
app.elf:     file format elf32-littleriscv
app.elf
architecture: riscv:rv32, flags 0x00000112:
EXEC_P, HAS_SYMS, D_PAGED
start address 0x00000474

Program Header:
0x70000003 off    0x000086da vaddr 0x00000000 paddr 0x00000000 align 2**0
         filesz 0x00000020 memsz 0x00000000 flags r--
    LOAD off    0x00001000 vaddr 0x00000000 paddr 0x00000000 align 2**12
         filesz 0x00000020 memsz 0x00000020 flags r-x
    LOAD off    0x00001020 vaddr 0x00000020 paddr 0x00000020 align 2**12
         filesz 0x00005f28 memsz 0x00005f28 flags r-x
    LOAD off    0x00006f48 vaddr 0x00005f48 paddr 0x000076c8 align 2**12
         filesz 0x00001780 memsz 0x00001780 flags rw-
    LOAD off    0x00000e48 vaddr 0x00008e48 paddr 0x00008e48 align 2**12
         filesz 0x00000000 memsz 0x000003e4 flags rw-

Sections:
Idx Name          Size      VMA       LMA       File off  Algn
  0 .entry        00000020  00000000  00000000  00001000  2**5
                  CONTENTS, ALLOC, LOAD, READONLY, CODE
  1 .exceptions   000002f4  00000020  00000020  00001020  2**2
                  CONTENTS, ALLOC, LOAD, READONLY, CODE
  2 .text         00005bd8  00000314  00000314  00001314  2**2
                  CONTENTS, ALLOC, LOAD, READONLY, CODE
  3 .rodata       0000005c  00005eec  00005eec  00006eec  2**2
                  CONTENTS, ALLOC, LOAD, READONLY, DATA
  4 .rwdata       00001780  00005f48  000076c8  00006f48  2**3
                  CONTENTS, ALLOC, LOAD, DATA
  5 .bss          000003e4  00008e48  00008e48  00008e48  2**3
                  ALLOC
  6 .RAM          00000000  0000922c  0000922c  000086c8  2**0
                  CONTENTS
  7 .comment      00000012  00000000  00000000  000086c8  2**0
                  CONTENTS, READONLY
  8 .riscv.attributes 00000020  00000000  00000000  000086da  2**0
                  CONTENTS, READONLY
  9 .debug_aranges 00000598  00000000  00000000  00008700  2**3
                  CONTENTS, READONLY, DEBUGGING, OCTETS
 10 .debug_info   00007431  00000000  00000000  00008c98  2**0
                  CONTENTS, READONLY, DEBUGGING, OCTETS
 11 .debug_abbrev 00002e7c  00000000  00000000  000100c9  2**0
                  CONTENTS, READONLY, DEBUGGING, OCTETS
 12 .debug_line   0000370e  00000000  00000000  00012f45  2**0
                  CONTENTS, READONLY, DEBUGGING, OCTETS
 13 .debug_frame  00000d1c  00000000  00000000  00016654  2**2
                  CONTENTS, READONLY, DEBUGGING, OCTETS
 14 .debug_str    00001198  00000000  00000000  00017370  2**0
                  CONTENTS, READONLY, DEBUGGING, OCTETS
 15 .debug_line_str 000017dc  00000000  00000000  00018508  2**0
                  CONTENTS, READONLY, DEBUGGING, OCTETS
 16 .debug_ranges 00000020  00000000  00000000  00019ce8  2**3
                  CONTENTS, READONLY, DEBUGGING, OCTETS
 17 .debug_rnglists 0000005f  00000000  00000000  00019d08  2**0
                  CONTENTS, READONLY, DEBUGGING, OCTETS
SYMBOL TABLE:
00000000 l    d  .entry	00000000 .entry
00000020 l    d  .exceptions	00000000 .exceptions
00000314 l    d  .text	00000000 .text
00005eec l    d  .rodata	00000000 .rodata
00005f48 l    d  .rwdata	00000000 .rwdata
00008e48 l    d  .bss	00000000 .bss
0000922c l    d  .RAM	00000000 .RAM
00000000 l    d  .comment	00000000 .comment
00000000 l    d  .riscv.attributes	00000000 .riscv.attributes
00000000 l    d  .debug_aranges	00000000 .debug_aranges
00000000 l    d  .debug_info	00000000 .debug_info
00000000 l    d  .debug_abbrev	00000000 .debug_abbrev
00000000 l    d  .debug_line	00000000 .debug_line
00000000 l    d  .debug_frame	00000000 .debug_frame
00000000 l    d  .debug_str	00000000 .debug_str
00000000 l    d  .debug_line_str	00000000 .debug_line_str
00000000 l    d  .debug_ranges	00000000 .debug_ranges
00000000 l    d  .debug_rnglists	00000000 .debug_rnglists
00000000 l    df *ABS*	00000000 crt0.S.obj
0000051c l       .text	00000000 alt_after_alt_main
00000000 l    df *ABS*	00000000 machine_trap.S.obj
00000020 l       .exceptions	00000000 save_registers
00000000 l    df *ABS*	00000000 alt_irq_handler.c
00000000 l    df *ABS*	00000000 main.c
00000000 l    df *ABS*	00000000 alt_load.c
00000520 l     F .text	00000064 alt_load_section
00000000 l    df *ABS*	00000000 alt_main.c
00000000 l    df *ABS*	00000000 alt_usleep.c
00000000 l    df *ABS*	00000000 alt_sys_init.c
00005f58 l     O .rwdata	00001060 JTAG_UART
00000000 l    df *ABS*	00000000 altera_avalon_jtag_uart_fd.c
00000000 l    df *ABS*	00000000 altera_avalon_jtag_uart_init.c
000009ac l     F .text	00000238 altera_avalon_jtag_uart_irq
00000be4 l     F .text	000000bc altera_avalon_jtag_uart_timeout
00000000 l    df *ABS*	00000000 altera_avalon_jtag_uart_ioctl.c
00000000 l    df *ABS*	00000000 altera_avalon_jtag_uart_read.c
00000000 l    df *ABS*	00000000 altera_avalon_jtag_uart_write.c
00000000 l    df *ABS*	00000000 alt_alarm_start.c
00000000 l    df *ABS*	00000000 alt_busy_sleep.c
00000000 l    df *ABS*	00000000 alt_dcache_flush_all.c
00000000 l    df *ABS*	00000000 alt_dev.c
00001480 l     F .text	0000002c alt_dev_null_write
00000000 l    df *ABS*	00000000 alt_dev_llist_insert.c
000014e8 l     F .text	00000044 alt_get_errno
00000000 l    df *ABS*	00000000 alt_do_ctors.c
00000000 l    df *ABS*	00000000 alt_do_dtors.c
00000000 l    df *ABS*	00000000 alt_errno.c
00000000 l    df *ABS*	00000000 alt_icache_flush_all.c
00000000 l    df *ABS*	00000000 alt_iic.c
00000000 l    df *ABS*	00000000 alt_iic_isr_register.c
00000000 l    df *ABS*	00000000 alt_io_redirect.c
00001880 l     F .text	000000dc alt_open_fd
00000000 l    df *ABS*	00000000 alt_release_fd.c
00000000 l    df *ABS*	00000000 alt_tick.c
00000000 l    df *ABS*	00000000 intel_niosv_irq.c
00000000 l    df *ABS*	00000000 mtimer.c
00000000 l    df *ABS*	00000000 libc_a-exit.o
00000000 l    df *ABS*	00000000 libc_a-sysopen.o
00000000 l    df *ABS*	00000000 libc_a-reent.o
00000000 l    df *ABS*	00000000 libc_a-findfp.o
000021ac l     F .text	0000001c stdio_exit_handler
000021c8 l     F .text	00000070 cleanup_stdio
00002238 l     F .text	00000040 __fp_lock
00002278 l     F .text	00000040 __fp_unlock
000022b8 l     F .text	00000190 global_stdio_init.part.0
00000000 l    df *ABS*	00000000 libc_a-setvbuf.o
00000000 l    df *ABS*	00000000 libc_a-openr.o
00000000 l    df *ABS*	00000000 libc_a-fwalk.o
00000000 l    df *ABS*	00000000 libc_a-stdio.o
00000000 l    df *ABS*	00000000 libc_a-malloc.o
00000000 l    df *ABS*	00000000 libc_a-mallocr.o
00000000 l    df *ABS*	00000000 libc_a-__call_atexit.o
000034f4 l     F .text	00000018 register_fini
00000000 l    df *ABS*	00000000 libc_a-sbrkr.o
00000000 l    df *ABS*	00000000 libc_a-writer.o
00000000 l    df *ABS*	00000000 libc_a-makebuf.o
00000000 l    df *ABS*	00000000 libc_a-mlock.o
00000000 l    df *ABS*	00000000 libc_a-atexit.o
00000000 l    df *ABS*	00000000 libc_a-fini.o
00000000 l    df *ABS*	00000000 libc_a-lock.o
00000000 l    df *ABS*	00000000 libc_a-sysclose.o
00000000 l    df *ABS*	00000000 libc_a-fclose.o
00000000 l    df *ABS*	00000000 libc_a-memset.o
00000000 l    df *ABS*	00000000 libc_a-memcpy.o
00000000 l    df *ABS*	00000000 libc_a-freer.o
00000000 l    df *ABS*	00000000 libc_a-fflush.o
00000000 l    df *ABS*	00000000 libc_a-closer.o
00000000 l    df *ABS*	00000000 libc_a-fstatr.o
00000000 l    df *ABS*	00000000 libc_a-isattyr.o
00000000 l    df *ABS*	00000000 libc_a-lseekr.o
00000000 l    df *ABS*	00000000 libc_a-readr.o
00000000 l    df *ABS*	00000000 libc_a-__atexit.o
00000000 l    df *ABS*	00000000 div.o
00000000 l    df *ABS*	00000000 alt_close.c
000048b4 l     F .text	00000044 alt_get_errno
00000000 l    df *ABS*	00000000 alt_exit.c
00000000 l    df *ABS*	00000000 alt_fstat.c
00004a18 l     F .text	00000044 alt_get_errno
00000000 l    df *ABS*	00000000 alt_isatty.c
00004b1c l     F .text	00000044 alt_get_errno
00000000 l    df *ABS*	00000000 alt_lseek.c
00004c5c l     F .text	00000044 alt_get_errno
00000000 l    df *ABS*	00000000 alt_open.c
00004d80 l     F .text	00000044 alt_get_errno
00004dc4 l     F .text	000000e8 alt_file_locked
00000000 l    df *ABS*	00000000 alt_read.c
00005014 l     F .text	00000044 alt_get_errno
00000000 l    df *ABS*	00000000 alt_sbrk.c
000076c4 l     O .rwdata	00000004 heap_end
00000000 l    df *ABS*	00000000 alt_write.c
00005214 l     F .text	00000044 alt_get_errno
00000000 l    df *ABS*	00000000 alt_find_dev.c
00000000 l    df *ABS*	00000000 alt_find_file.c
00000000 l    df *ABS*	00000000 alt_get_fd.c
00000000 l    df *ABS*	00000000 libc_a-stack_protector.o
00000000 l    df *ABS*	00000000 libc_a-sysfstat.o
00000000 l    df *ABS*	00000000 libc_a-strlen.o
00000000 l    df *ABS*	00000000 libc_a-signal.o
00000000 l    df *ABS*	00000000 libc_a-syswrite.o
00000000 l    df *ABS*	00000000 libc_a-signalr.o
00000000 l    df *ABS*	00000000 alt_getpid.c
00000000 l    df *ABS*	00000000 alt_kill.c
00005dac l     F .text	00000044 alt_get_errno
00005710 g     F .text	0000000c .hidden __stack_chk_fail_local
000045f4 g     F .text	00000058 _isatty_r
000005f8 g     F .text	00000088 alt_main
00005d8c g     F .text	00000020 _getpid
00008ebc g     O .bss	00000080 alt_irq
0000464c g     F .text	00000064 _lseek_r
000076c8 g       *ABS*	00000000 __flash_rwdata_start
0000922c g       *ABS*	00000000 __alt_heap_start
00005d28 g     F .text	00000060 _kill_r
00007e94 g       *ABS*	00000000 __global_pointer$
00008eb0 g     O .bss	00000001 __lock___atexit_recursive_mutex
00005830 g     F .text	0000009c _signal_r
00002b2c g     F .text	00000078 __sseek
000025a0 g     F .text	00000070 __sinit
00005f48 g       *ABS*	00000000 __tls_base
00003844 g     F .text	0000000c __malloc_unlock
00008e98 g     O .bss	00000001 __lock___arc4random_mutex
000000c0 g     F .exceptions	00000028 is_ecc_handler_present
00008eb8 g     O .bss	00000004 __stack_chk_guard
000076c0 g     O .rwdata	00000004 __atexit_recursive_mutex
000038c8 g     F .text	00000004 __retarget_lock_close
00000000 g     F .entry	00000004 __reset
00008e84 g     O .bss	00000004 __stdio_exit_handler
00000020 g       *ABS*	00000000 __flash_exceptions_start
00004594 g     F .text	00000060 _fstat_r
00008e80 g     O .bss	00000004 errno
00002a9c g     F .text	00000008 __seofread
00008e58 g     O .bss	00000004 alt_argv
00000680 g     F .text	00000034 usleep
00006fe0 g     O .rwdata	00000180 alt_fd_list
0000535c g     F .text	00000120 alt_find_dev
00003b54 g     F .text	000001a4 memcpy
00002690 g     F .text	00000298 setvbuf
00001f28 g     F .text	000000ac alt_niosv_timer_sc_isr
0000195c g     F .text	000000fc alt_io_redirect
00005eec g       *ABS*	00000000 __fini_array_end
00004808 g     F .text	00000048 .hidden __hidden___udivsi3
00000e0c g     F .text	0000022c altera_avalon_jtag_uart_read
00002bac g     F .text	0000000c malloc
00004808 g     F .text	00000048 .hidden __udivsi3
000058cc g     F .text	000000c4 _raise_r
00004a5c g     F .text	000000c0 _fstat
000001fc g     F .exceptions	00000118 handle_trap
00008e90 g     O .bss	00000004 __malloc_top_pad
00005d88 g     F .text	00000004 _getpid_r
00008e60 g     O .bss	00000004 __dso_handle
00005990 g     F .text	000000e0 __sigtramp_r
0000350c g     F .text	00000058 _sbrk_r
00005f48 g     O .rwdata	00000010 seven_seg
000046b0 g     F .text	00000064 _read_r
000076a4 g     O .rwdata	00000004 alt_max_fd
000038fc g     F .text	00000170 _fclose_r
0000446c g     F .text	000000d0 fflush
00008e8c g     O .bss	00000004 __malloc_max_sbrked_mem
0000571c g     F .text	0000001c __stack_chk_init
00008ea4 g     O .bss	00000001 __lock___env_recursive_mutex
00004b60 g     F .text	000000fc _isatty
0000922c g       *ABS*	00000000 __bss_end
00001704 g     F .text	0000017c alt_iic_isr_register
00001b64 g     F .text	00000158 alt_tick
00004eac g     F .text	00000168 _open
00005160 g     F .text	000000b4 _sbrk
00005678 g     F .text	00000098 __stack_chk_fail
00005f48 g       *ABS*	00000000 __tbss_start
00001fd4 g     F .text	0000007c alt_niosv_mtimecmp_interrupt_init
00002628 g     F .text	00000034 __fp_lock_all
00001acc g     F .text	00000098 alt_alarm_stop
00000108 g     F .exceptions	000000f4 alt_irq_handler
00006fb8 g     O .rwdata	00000028 alt_dev_null
00003864 g     F .text	0000005c __libc_fini_array
00001d9c g     F .text	00000084 alt_niosv_mtime_get
000020c8 g     F .text	000000e4 _reclaim_reent
00001464 g     F .text	0000001c alt_dcache_flush_all
000000e8 g     F .exceptions	00000020 break_operation
00008ea8 g     O .bss	00000001 __lock___malloc_recursive_mutex
000076c8 g       *ABS*	00000000 __ram_rwdata_end
00008f3c g     O .bss	00000138 __sf
0000769c g     O .rwdata	00000008 alt_dev_list
00005d14 g     F .text	00000014 write
00001d78 g     F .text	00000024 alt_timestamp_freq
00005f48 g       *ABS*	00000000 __ram_rodata_end
00005738 g     F .text	00000010 fstat
00004850 g     F .text	00000010 .hidden __umodsi3
0000922c g       *ABS*	00000000 end
000014ac g     F .text	0000003c alt_dev_reg
000038ec g     F .text	00000004 __retarget_lock_release_recursive
000038e0 g     F .text	00000008 __retarget_lock_try_acquire_recursive
000008ec g     F .text	000000c0 altera_avalon_jtag_uart_init
00008e48 g     O .bss	00000001 i
0001e000 g       *ABS*	00000000 __alt_stack_pointer
00001038 g     F .text	0000023c altera_avalon_jtag_uart_write
00002610 g     F .text	0000000c __sfp_lock_acquire
00003e38 g     F .text	00000308 _free_r
000033a0 g     F .text	00000154 __call_exitprocs
0000909c g     O .bss	00000190 __atexit0
000076b8 g     O .rwdata	00000004 __malloc_sbrk_base
00000474 g     F .text	000000ac _start
00008e68 g     O .bss	00000004 _alt_tick_rate
000038d8 g     F .text	00000008 __retarget_lock_try_acquire
00004ca0 g     F .text	000000e0 _lseek
00008e70 g     O .bss	00000008 _alt_nticks
00005b30 g     F .text	000000a4 signal
00001e9c g     F .text	0000008c alt_niosv_mtimecmp_get
000006ec g     F .text	0000008c alt_sys_init
00002928 g     F .text	00000064 _open_r
00005f48 g       *ABS*	00000000 __tdata_source
00004714 g     F .text	000000ec __register_exitproc
00000ca0 g     F .text	0000006c altera_avalon_jtag_uart_close
00005f48 g       *ABS*	00000000 __ram_rwdata_start
00005eec g       *ABS*	00000000 __ram_rodata_start
00009074 g     O .bss	00000028 __malloc_current_mallinfo
00008e78 g     O .bss	00000008 alt_niosv_timestamp_offset
00008e50 g     O .bss	00000004 alt_niosv_timer_interrupt_handler
00000778 g     F .text	00000064 altera_avalon_jtag_uart_read_fd
000055b8 g     F .text	000000c0 alt_get_fd
000013dc g     F .text	00000088 alt_busy_sleep
0000453c g     F .text	00000058 _close_r
00000840 g     F .text	00000054 altera_avalon_jtag_uart_close_fd
0000922c g       *ABS*	00000000 __alt_stack_base
00000894 g     F .text	00000058 altera_avalon_jtag_uart_ioctl_fd
000038cc g     F .text	00000004 __retarget_lock_close_recursive
00002448 g     F .text	00000158 __sfp
0000728c g     O .rwdata	00000408 __malloc_av_
00008e94 g     O .bss	00000004 __atexit
00002a40 g     F .text	0000005c __sread
0000547c g     F .text	0000013c alt_find_file
0000152c g     F .text	000000a8 alt_dev_llist_insert
00003838 g     F .text	0000000c __malloc_lock
00005eec g       *ABS*	00000000 __fini_array_start
0000438c g     F .text	000000e0 _fflush_r
000038d4 g     F .text	00000004 __retarget_lock_acquire_recursive
00008e48 g       *ABS*	00000000 __bss_start
00005f48 g       *ABS*	00000000 __tdata_start
00005f48 g       *ABS*	00000000 __tdata_end
00003a78 g     F .text	000000dc memset
00000314 g     F .text	00000160 main
00000000 g       *ABS*	00000000 __alt_mem_RAM
00008e5c g     O .bss	00000004 alt_envp
00008e88 g     O .bss	00000004 __malloc_max_total_mem
000007dc g     F .text	00000064 altera_avalon_jtag_uart_write_fd
000038c4 g     F .text	00000004 __retarget_lock_init_recursive
00002ba4 g     F .text	00000008 __sclose
0001e000 g       *ABS*	00000000 __alt_heap_limit
00003a6c g     F .text	0000000c fclose
00001ce0 g     F .text	00000040 alt_timestamp_start
00005eec g       *ABS*	00000000 __init_array_end
00002bc4 g     F .text	000007dc _malloc_r
000076a8 g     O .rwdata	00000004 alt_errno
00005bd4 g     F .text	0000005c _init_signal
00004800 g     F .text	00000084 .hidden __divsi3
00003cf8 g     F .text	00000140 _malloc_trim_r
00005eec g       *ABS*	00000000 __flash_rodata_start
000038c0 g     F .text	00000004 __retarget_lock_init
000006b4 g     F .text	00000038 alt_irq_init
00001a58 g     F .text	00000074 alt_release_fd
00003850 g     F .text	00000014 atexit
00003564 g     F .text	00000064 _write_r
000076b4 g     O .rwdata	00000004 _impure_ptr
00008e54 g     O .bss	00000004 alt_argc
00004140 g     F .text	0000024c __sflush_r
00001634 g     F .text	00000060 _do_dtors
0000298c g     F .text	000000b4 _fwalk_sglue
0000265c g     F .text	00000034 __fp_unlock_all
00007694 g     O .rwdata	00000008 alt_fs_list
00000020 g       *ABS*	00000000 __ram_exceptions_start
00001d20 g     F .text	00000058 alt_timestamp
00003760 g     F .text	000000d8 __swhatbuf_r
000016b0 g     F .text	00000054 alt_ic_isr_register
00007280 g     O .rwdata	0000000c __sglue
00000020 g     F .exceptions	00000000 trap_vector
00005258 g     F .text	00000104 _write
000076c8 g       *ABS*	00000000 _edata
0000922c g       *ABS*	00000000 _end
00000314 g       *ABS*	00000000 __ram_exceptions_end
00008eac g     O .bss	00000001 __lock___at_quick_exit_mutex
00000d0c g     F .text	00000100 altera_avalon_jtag_uart_ioctl
00001cbc g     F .text	00000024 intel_niosv_irq_init
00002aa4 g     F .text	00000088 __swrite
000076bc g     O .rwdata	00000004 __malloc_trim_threshold
00002050 g     F .text	00000030 exit
00004884 g     F .text	00000030 .hidden __modsi3
00005df0 g     F .text	000000f4 _kill
00007160 g     O .rwdata	00000120 _impure_data
0001e000 g       *ABS*	00000000 __alt_data_end
00005f48 g       *ABS*	00000000 __tbss_end
0000261c g     F .text	0000000c __sfp_lock_release
00005058 g     F .text	00000108 _read
00005ee4 g       *ABS*	00000000 __init_array_start
000038d0 g     F .text	00000004 __retarget_lock_acquire
000038e8 g     F .text	00000004 __retarget_lock_release
000049d8 g     F .text	00000040 _exit
00001274 g     F .text	00000168 alt_alarm_start
00008e9c g     O .bss	00000001 __lock___dd_hash_mutex
000035c8 g     F .text	00000198 __smakebuf_r
00008ea0 g     O .bss	00000001 __lock___tz_mutex
00005748 g     F .text	0000008c strlen
000057d4 g     F .text	0000005c _init_signal_r
00002080 g     F .text	00000048 open
00001694 g     F .text	0000001c alt_icache_flush_all
00001e20 g     F .text	0000007c alt_niosv_mtimecmp_set
000076ac g     O .rwdata	00000008 alt_alarm_list
000015d4 g     F .text	00000060 _do_ctors
00005c30 g     F .text	000000e4 __sigtramp
000038f0 g     F .text	0000000c close
00000584 g     F .text	00000074 alt_load
00008e4c g     O .bss	00000004 alt_niosv_software_interrupt_handler
00008eb4 g     O .bss	00000001 __lock___sfp_recursive_mutex
00005a70 g     F .text	000000c0 raise
000048f8 g     F .text	000000e0 _close
00002bb8 g     F .text	0000000c free



Disassembly of section .entry:

00000000 <__reset>:
 * Jump to the _start entry point in the .text section if reset code
 * is allowed or if optimizing for RTL simulation.
 */

    /* Jump to the _start entry point in the .text section. */
    tail _start
   0:	4740006f          	j	474 <_start>
	...

Disassembly of section .exceptions:

00000020 <trap_vector>:
    /* Save caller-saved registers on the stack */

#if __riscv_flen == 32 // rv32if
    addi sp, sp, -36 * 4
#elif ALT_CPU_NUM_GPR == 32 // rv32i
	addi sp, sp, -16 * 4
  20:	fc010113          	add	sp,sp,-64
#else // rv32e (16-bit)
	addi sp, sp, -10 * 4
#endif

    /* rv32e (16-bit), rv32i and rv32if */
    sw ra,  0 * 4(sp)
  24:	00112023          	sw	ra,0(sp)
    sw t0,  1 * 4(sp)
  28:	00512223          	sw	t0,4(sp)
    sw t1,  2 * 4(sp)
  2c:	00612423          	sw	t1,8(sp)
    sw t2,  3 * 4(sp)
  30:	00712623          	sw	t2,12(sp)
    sw a0,  4 * 4(sp)
  34:	00a12823          	sw	a0,16(sp)
    sw a1,  5 * 4(sp)
  38:	00b12a23          	sw	a1,20(sp)
    sw a2,  6 * 4(sp)
  3c:	00c12c23          	sw	a2,24(sp)
    sw a3,  7 * 4(sp)
  40:	00d12e23          	sw	a3,28(sp)
    sw a4,  8 * 4(sp)
  44:	02e12023          	sw	a4,32(sp)
    sw a5,  9 * 4(sp)
  48:	02f12223          	sw	a5,36(sp)

    /* rv32i and rv32if */
#if ALT_CPU_NUM_GPR == 32 
    sw a6, 10 * 4(sp)
  4c:	03012423          	sw	a6,40(sp)
    sw a7, 11 * 4(sp)
  50:	03112623          	sw	a7,44(sp)
    sw t3, 12 * 4(sp)
  54:	03c12823          	sw	t3,48(sp)
    sw t4, 13 * 4(sp)
  58:	03d12a23          	sw	t4,52(sp)
    sw t5, 14 * 4(sp)
  5c:	03e12c23          	sw	t5,56(sp)
    sw t6, 15 * 4(sp)
  60:	03f12e23          	sw	t6,60(sp)
    fsw fa6, 34 * 4(sp)
    fsw fa7, 35 * 4(sp)
#endif
   
    /* Call handle_trap to dispatch the correct handler, if available */
    csrr a0, mcause
  64:	34202573          	csrr	a0,mcause
    csrr a1, mepc
  68:	341025f3          	csrr	a1,mepc
    csrr a2, mtval
  6c:	34302673          	csrr	a2,mtval
    jal handle_trap
  70:	18c000ef          	jal	1fc <handle_trap>
    csrw mepc, a0
  74:	34151073          	csrw	mepc,a0

    /* Restore caller-saved registers */

    /* rv32e (16-bit), rv32i and rv32if */
    lw ra,  0 * 4(sp)
  78:	00012083          	lw	ra,0(sp)
    lw t0,  1 * 4(sp)
  7c:	00412283          	lw	t0,4(sp)
    lw t1,  2 * 4(sp)
  80:	00812303          	lw	t1,8(sp)
    lw t2,  3 * 4(sp)
  84:	00c12383          	lw	t2,12(sp)
    lw a0,  4 * 4(sp)
  88:	01012503          	lw	a0,16(sp)
    lw a1,  5 * 4(sp)
  8c:	01412583          	lw	a1,20(sp)
    lw a2,  6 * 4(sp)
  90:	01812603          	lw	a2,24(sp)
    lw a3,  7 * 4(sp)
  94:	01c12683          	lw	a3,28(sp)
    lw a4,  8 * 4(sp)
  98:	02012703          	lw	a4,32(sp)
    lw a5,  9 * 4(sp)
  9c:	02412783          	lw	a5,36(sp)

    /* rv32i and rv32if */
#if ALT_CPU_NUM_GPR == 32	
    lw a6, 10 * 4(sp)
  a0:	02812803          	lw	a6,40(sp)
    lw a7, 11 * 4(sp)
  a4:	02c12883          	lw	a7,44(sp)
    lw t3, 12 * 4(sp)
  a8:	03012e03          	lw	t3,48(sp)
    lw t4, 13 * 4(sp)
  ac:	03412e83          	lw	t4,52(sp)
    lw t5, 14 * 4(sp)
  b0:	03812f03          	lw	t5,56(sp)
    lw t6, 15 * 4(sp)
  b4:	03c12f83          	lw	t6,60(sp)
#endif

#if __riscv_flen == 32 // rv32if
    addi sp, sp, 36 * 4
#elif ALT_CPU_NUM_GPR == 32 // rv32i
	addi sp, sp, 16 * 4
  b8:	04010113          	add	sp,sp,64
    lw s0, 0(sp)
    lw s1, 4(sp)
    addi sp, sp, 8
#endif

    mret
  bc:	30200073          	mret

000000c0 <is_ecc_handler_present>:
    }

    return epc;
}

alt_u32 is_ecc_handler_present (alt_u32 e_code) {
  c0:	fd010113          	add	sp,sp,-48
  c4:	02812623          	sw	s0,44(sp)
  c8:	03010413          	add	s0,sp,48
  cc:	fca42e23          	sw	a0,-36(s0)
#ifdef ALT_CPU_ECC_PRESENT
    alt_u32 present = (e_code == NIOSV_ECC_EXCEPTION && alt_ecc_exception_handler);
#else
    alt_u32 present = 0;
  d0:	fe042623          	sw	zero,-20(s0)
#endif
    return present;
  d4:	fec42783          	lw	a5,-20(s0)
} 
  d8:	00078513          	mv	a0,a5
  dc:	02c12403          	lw	s0,44(sp)
  e0:	03010113          	add	sp,sp,48
  e4:	00008067          	ret

000000e8 <break_operation>:

void break_operation (void)
{
  e8:	ff010113          	add	sp,sp,-16
  ec:	00812623          	sw	s0,12(sp)
  f0:	01010413          	add	s0,sp,16
#ifdef ALT_CPU_HAS_DEBUG_STUB
            NIOSV_EBREAK();
  f4:	00100073          	ebreak
#else  // ALT_CPU_HAS_DEBUG_STUB
            while(1)
                ;
#endif // ALT_CPU_HAS_DEBUG_STUB  
}
  f8:	00000013          	nop
  fc:	00c12403          	lw	s0,12(sp)
 100:	01010113          	add	sp,sp,16
 104:	00008067          	ret

00000108 <alt_irq_handler>:
 * This means that if there is never a call to alt_irq_register() then
 * this function will not get linked in to the executable. This is acceptable
 * since if no handler is ever registered, then an interrupt can never occur.
 */
void alt_irq_handler (void)
{
 108:	fd010113          	add	sp,sp,-48
 10c:	02112623          	sw	ra,44(sp)
 110:	02812423          	sw	s0,40(sp)
 114:	03010413          	add	s0,sp,48
    alt_u32 i;

    /*
     * Notify the operating system that we are at interrupt level.
     */  
    ALT_OS_INT_ENTER();
 118:	00000013          	nop
{
#if ALT_HAS_IRQ_SUPPORT
    alt_u32 active;
    alt_u32 enabled;

    NIOSV_READ_CSR(NIOSV_MIP_CSR, active);
 11c:	344027f3          	csrr	a5,mip
 120:	fef42023          	sw	a5,-32(s0)
    NIOSV_READ_CSR(NIOSV_MIE_CSR, enabled);
 124:	304027f3          	csrr	a5,mie
 128:	fef42223          	sw	a5,-28(s0)

    // Since this is used by alt_irq_handler, we want to only process the upper 16-bits
    // --> the interrupt lines connected via Platform Designer...
    return (active & enabled) >> 16;
 12c:	fe042703          	lw	a4,-32(s0)
 130:	fe442783          	lw	a5,-28(s0)
 134:	00f777b3          	and	a5,a4,a5
 138:	0107d793          	srl	a5,a5,0x10
     * reduced by finding out which interrupts are pending as late as possible.
     * Consider the case where the high priority interupt is asserted during
     * the interrupt entry sequence for a lower priority interrupt to see why
     * this is the case.
     */
    active = alt_irq_pending();
 13c:	fcf42a23          	sw	a5,-44(s0)

    do
    {
        i = 0;
 140:	fc042e23          	sw	zero,-36(s0)
        mask = 1;
 144:	00100793          	li	a5,1
 148:	fcf42c23          	sw	a5,-40(s0)
         * called to clear the interrupt condition.
         */

        do
        {
            if (active & mask)
 14c:	fd442703          	lw	a4,-44(s0)
 150:	fd842783          	lw	a5,-40(s0)
 154:	00f777b3          	and	a5,a4,a5
 158:	06078263          	beqz	a5,1bc <alt_irq_handler+0xb4>
            {
                alt_irq[i].handler(alt_irq[i].context); 
 15c:	000097b7          	lui	a5,0x9
 160:	ebc78713          	add	a4,a5,-324 # 8ebc <alt_irq>
 164:	fdc42783          	lw	a5,-36(s0)
 168:	00379793          	sll	a5,a5,0x3
 16c:	00f707b3          	add	a5,a4,a5
 170:	0007a703          	lw	a4,0(a5)
 174:	000097b7          	lui	a5,0x9
 178:	ebc78693          	add	a3,a5,-324 # 8ebc <alt_irq>
 17c:	fdc42783          	lw	a5,-36(s0)
 180:	00379793          	sll	a5,a5,0x3
 184:	00f687b3          	add	a5,a3,a5
 188:	0047a783          	lw	a5,4(a5)
 18c:	00078513          	mv	a0,a5
 190:	000700e7          	jalr	a4
                break;
 194:	00000013          	nop
    NIOSV_READ_CSR(NIOSV_MIP_CSR, active);
 198:	344027f3          	csrr	a5,mip
 19c:	fef42423          	sw	a5,-24(s0)
    NIOSV_READ_CSR(NIOSV_MIE_CSR, enabled);
 1a0:	304027f3          	csrr	a5,mie
 1a4:	fef42623          	sw	a5,-20(s0)
    return (active & enabled) >> 16;
 1a8:	fe842703          	lw	a4,-24(s0)
 1ac:	fec42783          	lw	a5,-20(s0)
 1b0:	00f777b3          	and	a5,a4,a5
 1b4:	0107d793          	srl	a5,a5,0x10
 1b8:	0200006f          	j	1d8 <alt_irq_handler+0xd0>
            }
            
            mask <<= 1;
 1bc:	fd842783          	lw	a5,-40(s0)
 1c0:	00179793          	sll	a5,a5,0x1
 1c4:	fcf42c23          	sw	a5,-40(s0)
            i++;
 1c8:	fdc42783          	lw	a5,-36(s0)
 1cc:	00178793          	add	a5,a5,1
 1d0:	fcf42e23          	sw	a5,-36(s0)
            if (active & mask)
 1d4:	f79ff06f          	j	14c <alt_irq_handler+0x44>
            
        } while (1);

        active = alt_irq_pending();
 1d8:	fcf42a23          	sw	a5,-44(s0)
    
    } while (active);
 1dc:	fd442783          	lw	a5,-44(s0)
 1e0:	f60790e3          	bnez	a5,140 <alt_irq_handler+0x38>

    /*
     * Notify the operating system that interrupt processing is complete.
     */ 

    ALT_OS_INT_EXIT();
 1e4:	00000013          	nop
}
 1e8:	00000013          	nop
 1ec:	02c12083          	lw	ra,44(sp)
 1f0:	02812403          	lw	s0,40(sp)
 1f4:	03010113          	add	sp,sp,48
 1f8:	00008067          	ret

000001fc <handle_trap>:
{
 1fc:	fd010113          	add	sp,sp,-48
 200:	02112623          	sw	ra,44(sp)
 204:	02812423          	sw	s0,40(sp)
 208:	03010413          	add	s0,sp,48
 20c:	fca42e23          	sw	a0,-36(s0)
 210:	fcb42c23          	sw	a1,-40(s0)
 214:	fcc42a23          	sw	a2,-44(s0)
    is_irq = (cause & NIOSV_MCAUSE_INTERRUPT_MASK);
 218:	fdc42703          	lw	a4,-36(s0)
 21c:	800007b7          	lui	a5,0x80000
 220:	00f777b3          	and	a5,a4,a5
 224:	fef42423          	sw	a5,-24(s0)
    exception_code = (cause & ~NIOSV_MCAUSE_INTERRUPT_MASK);
 228:	fdc42703          	lw	a4,-36(s0)
 22c:	800007b7          	lui	a5,0x80000
 230:	fff78793          	add	a5,a5,-1 # 7fffffff <__alt_data_end+0x7ffe1fff>
 234:	00f777b3          	and	a5,a4,a5
 238:	fef42623          	sw	a5,-20(s0)
    if (is_irq) {
 23c:	fe842783          	lw	a5,-24(s0)
 240:	08078863          	beqz	a5,2d0 <handle_trap+0xd4>
        switch (exception_code) {
 244:	fec42703          	lw	a4,-20(s0)
 248:	00300793          	li	a5,3
 24c:	04f70063          	beq	a4,a5,28c <handle_trap+0x90>
 250:	fec42703          	lw	a4,-20(s0)
 254:	00700793          	li	a5,7
 258:	06f71263          	bne	a4,a5,2bc <handle_trap+0xc0>
                if (alt_niosv_timer_interrupt_handler) {
 25c:	000097b7          	lui	a5,0x9
 260:	e507a783          	lw	a5,-432(a5) # 8e50 <alt_niosv_timer_interrupt_handler>
 264:	08078263          	beqz	a5,2e8 <handle_trap+0xec>
                    ALT_OS_INT_ENTER();
 268:	00000013          	nop
                    alt_niosv_timer_interrupt_handler(cause, epc, tval);
 26c:	000097b7          	lui	a5,0x9
 270:	e507a783          	lw	a5,-432(a5) # 8e50 <alt_niosv_timer_interrupt_handler>
 274:	fd442603          	lw	a2,-44(s0)
 278:	fd842583          	lw	a1,-40(s0)
 27c:	fdc42503          	lw	a0,-36(s0)
 280:	000780e7          	jalr	a5
                    ALT_OS_INT_EXIT();
 284:	00000013          	nop
                break;
 288:	0600006f          	j	2e8 <handle_trap+0xec>
                if (alt_niosv_software_interrupt_handler) {
 28c:	000097b7          	lui	a5,0x9
 290:	e4c7a783          	lw	a5,-436(a5) # 8e4c <alt_niosv_software_interrupt_handler>
 294:	04078e63          	beqz	a5,2f0 <handle_trap+0xf4>
                    ALT_OS_INT_ENTER();
 298:	00000013          	nop
                    alt_niosv_software_interrupt_handler(cause, epc, tval);
 29c:	000097b7          	lui	a5,0x9
 2a0:	e4c7a783          	lw	a5,-436(a5) # 8e4c <alt_niosv_software_interrupt_handler>
 2a4:	fd442603          	lw	a2,-44(s0)
 2a8:	fd842583          	lw	a1,-40(s0)
 2ac:	fdc42503          	lw	a0,-36(s0)
 2b0:	000780e7          	jalr	a5
                    ALT_OS_INT_EXIT();
 2b4:	00000013          	nop
                break;
 2b8:	0380006f          	j	2f0 <handle_trap+0xf4>
                if (exception_code >= 16) {
 2bc:	fec42703          	lw	a4,-20(s0)
 2c0:	00f00793          	li	a5,15
 2c4:	02e7fa63          	bgeu	a5,a4,2f8 <handle_trap+0xfc>
                    alt_irq_handler();
 2c8:	e41ff0ef          	jal	108 <alt_irq_handler>
                break;
 2cc:	02c0006f          	j	2f8 <handle_trap+0xfc>
        if (!is_ecc_handler_present(exception_code)) {
 2d0:	fec42503          	lw	a0,-20(s0)
 2d4:	dedff0ef          	jal	c0 <is_ecc_handler_present>
 2d8:	00050793          	mv	a5,a0
 2dc:	02079063          	bnez	a5,2fc <handle_trap+0x100>
             break_operation();
 2e0:	e09ff0ef          	jal	e8 <break_operation>
 2e4:	0180006f          	j	2fc <handle_trap+0x100>
                break;
 2e8:	00000013          	nop
 2ec:	0100006f          	j	2fc <handle_trap+0x100>
                break;
 2f0:	00000013          	nop
 2f4:	0080006f          	j	2fc <handle_trap+0x100>
                break;
 2f8:	00000013          	nop
    return epc;
 2fc:	fd842783          	lw	a5,-40(s0)
}
 300:	00078513          	mv	a0,a5
 304:	02c12083          	lw	ra,44(sp)
 308:	02812403          	lw	s0,40(sp)
 30c:	03010113          	add	sp,sp,48
 310:	00008067          	ret

Disassembly of section .text:

00000314 <main>:
  0X92, 0X82, 0XF8, 0X80, 0X90,
  0x08, 0x03, 0x46, 0x21, 0x06,
  0x0e
};
// MAIN
int main(){
     314:	fe010113          	add	sp,sp,-32
     318:	00112e23          	sw	ra,28(sp)
     31c:	00812c23          	sw	s0,24(sp)
     320:	02010413          	add	s0,sp,32
  uint32_t counter = 0;
     324:	fe042623          	sw	zero,-20(s0)
  uint8_t  LED_REF = 0x01;
     328:	00100793          	li	a5,1
     32c:	fef405a3          	sb	a5,-21(s0)

  while(1){
    HEX_0_REG = seven_seg[counter%10];
     330:	fec42783          	lw	a5,-20(s0)
     334:	00a00593          	li	a1,10
     338:	00078513          	mv	a0,a5
     33c:	514040ef          	jal	4850 <__umodsi3>
     340:	00050793          	mv	a5,a0
     344:	00078713          	mv	a4,a5
     348:	000067b7          	lui	a5,0x6
     34c:	f4878793          	add	a5,a5,-184 # 5f48 <seven_seg>
     350:	00e787b3          	add	a5,a5,a4
     354:	0007c703          	lbu	a4,0(a5)
     358:	000307b7          	lui	a5,0x30
     35c:	03078793          	add	a5,a5,48 # 30030 <__alt_data_end+0x12030>
     360:	00e7a023          	sw	a4,0(a5)
    HEX_1_REG = seven_seg[(counter/10)%10];
     364:	fec42783          	lw	a5,-20(s0)
     368:	00a00593          	li	a1,10
     36c:	00078513          	mv	a0,a5
     370:	498040ef          	jal	4808 <__hidden___udivsi3>
     374:	00050793          	mv	a5,a0
     378:	00a00593          	li	a1,10
     37c:	00078513          	mv	a0,a5
     380:	4d0040ef          	jal	4850 <__umodsi3>
     384:	00050793          	mv	a5,a0
     388:	00078713          	mv	a4,a5
     38c:	000067b7          	lui	a5,0x6
     390:	f4878793          	add	a5,a5,-184 # 5f48 <seven_seg>
     394:	00e787b3          	add	a5,a5,a4
     398:	0007c703          	lbu	a4,0(a5)
     39c:	000307b7          	lui	a5,0x30
     3a0:	02078793          	add	a5,a5,32 # 30020 <__alt_data_end+0x12020>
     3a4:	00e7a023          	sw	a4,0(a5)
    HEX_2_REG = seven_seg[(counter/100)%10];
     3a8:	fec42783          	lw	a5,-20(s0)
     3ac:	06400593          	li	a1,100
     3b0:	00078513          	mv	a0,a5
     3b4:	454040ef          	jal	4808 <__hidden___udivsi3>
     3b8:	00050793          	mv	a5,a0
     3bc:	00a00593          	li	a1,10
     3c0:	00078513          	mv	a0,a5
     3c4:	48c040ef          	jal	4850 <__umodsi3>
     3c8:	00050793          	mv	a5,a0
     3cc:	00078713          	mv	a4,a5
     3d0:	000067b7          	lui	a5,0x6
     3d4:	f4878793          	add	a5,a5,-184 # 5f48 <seven_seg>
     3d8:	00e787b3          	add	a5,a5,a4
     3dc:	0007c703          	lbu	a4,0(a5)
     3e0:	000307b7          	lui	a5,0x30
     3e4:	01078793          	add	a5,a5,16 # 30010 <__alt_data_end+0x12010>
     3e8:	00e7a023          	sw	a4,0(a5)
    HEX_3_REG = seven_seg[(counter/1000)%10];
     3ec:	fec42783          	lw	a5,-20(s0)
     3f0:	3e800593          	li	a1,1000
     3f4:	00078513          	mv	a0,a5
     3f8:	410040ef          	jal	4808 <__hidden___udivsi3>
     3fc:	00050793          	mv	a5,a0
     400:	00a00593          	li	a1,10
     404:	00078513          	mv	a0,a5
     408:	448040ef          	jal	4850 <__umodsi3>
     40c:	00050793          	mv	a5,a0
     410:	00078713          	mv	a4,a5
     414:	000067b7          	lui	a5,0x6
     418:	f4878793          	add	a5,a5,-184 # 5f48 <seven_seg>
     41c:	00e787b3          	add	a5,a5,a4
     420:	0007c703          	lbu	a4,0(a5)
     424:	000307b7          	lui	a5,0x30
     428:	00e7a023          	sw	a4,0(a5) # 30000 <__alt_data_end+0x12000>
    
    if(LED_REF == 0x00){
     42c:	feb44783          	lbu	a5,-21(s0)
     430:	00079663          	bnez	a5,43c <main+0x128>
      LED_REF = 0x01;
     434:	00100793          	li	a5,1
     438:	fef405a3          	sb	a5,-21(s0)
    }

    LED_REG = LED_REF;
     43c:	000307b7          	lui	a5,0x30
     440:	04078793          	add	a5,a5,64 # 30040 <__alt_data_end+0x12040>
     444:	feb44703          	lbu	a4,-21(s0)
     448:	00e7a023          	sw	a4,0(a5)

    usleep(100*ms);
     44c:	000187b7          	lui	a5,0x18
     450:	6a078513          	add	a0,a5,1696 # 186a0 <__alt_heap_start+0xf474>
     454:	22c000ef          	jal	680 <usleep>
    counter++;
     458:	fec42783          	lw	a5,-20(s0)
     45c:	00178793          	add	a5,a5,1
     460:	fef42623          	sw	a5,-20(s0)
    LED_REF <<= 1;
     464:	feb44783          	lbu	a5,-21(s0)
     468:	00179793          	sll	a5,a5,0x1
     46c:	fef405a3          	sb	a5,-21(s0)
    HEX_0_REG = seven_seg[counter%10];
     470:	ec1ff06f          	j	330 <main+0x1c>

00000474 <_start>:
    .type _start, @function
_start:
#if ALT_CPU_HAS_CSR_SUPPORT
    /* assume that we are in machine mode on startup */
    /* setup trap to catch anything that goes wrong early in the boot process */
    la t0, trap_vector
     474:	00000297          	auipc	t0,0x0
     478:	bac28293          	add	t0,t0,-1108 # 20 <trap_vector>
    csrw mtvec, t0
     47c:	30529073          	csrw	mtvec,t0

    /* disable all interrupt */
    li t0, 0x88
     480:	08800293          	li	t0,136
    csrc mstatus, t0
     484:	3002b073          	csrc	mstatus,t0
    csrw mie, zero
     488:	30401073          	csrw	mie,zero
    csrw mip, zero
     48c:	34401073          	csrw	mip,zero
#endif /* Initialize Data Cache */
#endif /* ALT_SIM_OPTIMIZE */

    .option push
    .option norelax
    la gp, __global_pointer$
     490:	00008197          	auipc	gp,0x8
     494:	a0418193          	add	gp,gp,-1532 # 7e94 <__global_pointer$>

    /*
     * Now that the caches are initialized, set up the stack pointer and global pointer.
     * The values provided by the linker are assumed to be correctly aligned.
     */
    la sp, __alt_stack_pointer
     498:	0001e117          	auipc	sp,0x1e
     49c:	b6810113          	add	sp,sp,-1176 # 1e000 <__alt_data_end>
    /* Log that the BSS is about to be cleared. */
#ifdef ALT_LOG_ENABLE
    ALT_LOG_PUTS(alt_log_msg_bss)
#endif /* ALT_LOG_ENABLE */

    la t1, __bss_start
     4a0:	00009317          	auipc	t1,0x9
     4a4:	9a830313          	add	t1,t1,-1624 # 8e48 <i>
    la t2, __bss_end
     4a8:	00009397          	auipc	t2,0x9
     4ac:	d8438393          	add	t2,t2,-636 # 922c <__alt_heap_start>
0:
    sw zero, (t1)
     4b0:	00032023          	sw	zero,0(t1)
    addi t1, t1, 4
     4b4:	00430313          	add	t1,t1,4
    bltu t1, t2, 0b
     4b8:	fe736ce3          	bltu	t1,t2,4b0 <_start+0x3c>
/*
 * The alt_load() facility is normally used when there is no bootloader.
 * It copies some sections into RAM so it acts like a mini-bootloader.
 */
#ifdef CALL_ALT_LOAD
    call alt_load
     4bc:	0c8000ef          	jal	584 <alt_load>
 */
#ifndef ALT_SIM_OPTIMIZE
.globl __tbss_start
.globl __tbss_end

    la t1, __tbss_start
     4c0:	00006317          	auipc	t1,0x6
     4c4:	a8830313          	add	t1,t1,-1400 # 5f48 <seven_seg>
    la t2, __tbss_end
     4c8:	00006397          	auipc	t2,0x6
     4cc:	a8038393          	add	t2,t2,-1408 # 5f48 <seven_seg>
    
    // Check if we need to skip this (if .tbss is empty)
    bgeu t1, t2, 1f
     4d0:	00737863          	bgeu	t1,t2,4e0 <_start+0x6c>
0:
    sw zero, (t1)
     4d4:	00032023          	sw	zero,0(t1)
    addi t1, t1, 4
     4d8:	00430313          	add	t1,t1,4
    bltu t1, t2, 0b
     4dc:	fe736ce3          	bltu	t1,t2,4d4 <_start+0x60>
// Copy tdata to tdata golden source location
.globl __tdata_start
.globl __tdata_end
.globl __tdata_source

    la t0, __tdata_start
     4e0:	00006297          	auipc	t0,0x6
     4e4:	a6828293          	add	t0,t0,-1432 # 5f48 <seven_seg>
    la t1, __tdata_end
     4e8:	00006317          	auipc	t1,0x6
     4ec:	a6030313          	add	t1,t1,-1440 # 5f48 <seven_seg>
    la t2, __tdata_source
     4f0:	00006397          	auipc	t2,0x6
     4f4:	a5838393          	add	t2,t2,-1448 # 5f48 <seven_seg>

    // Check if we need to skip this (if .tdata is empty)
    bgeu t0, t1, 1f
     4f8:	0062fc63          	bgeu	t0,t1,510 <_start+0x9c>
0:
    lw s1, (t0)
     4fc:	0002a483          	lw	s1,0(t0)
    sw s1, (t2)
     500:	0093a023          	sw	s1,0(t2)
    addi t0, t0, 4
     504:	00428293          	add	t0,t0,4
    addi t2, t2, 4
     508:	00438393          	add	t2,t2,4
    bltu t0, t1, 0b
     50c:	fe62e8e3          	bltu	t0,t1,4fc <_start+0x88>
1:

// Assign thread pointer register (tp) to main thread tls base
.globl __tls_base
    la tp, __tls_base
     510:	00006217          	auipc	tp,0x6
     514:	a3820213          	add	tp,tp,-1480 # 5f48 <seven_seg>
#ifdef ALT_LOG_ENABLE
    ALT_LOG_PUTS(alt_log_msg_alt_main)
#endif /* ALT_LOG_ENABLE */

    /* Call the C entry point. It should never return. */
    call alt_main
     518:	0e0000ef          	jal	5f8 <alt_main>

0000051c <alt_after_alt_main>:

    /* Wait in infinite loop in case alt_main does return. */
alt_after_alt_main:
    j alt_after_alt_main
     51c:	0000006f          	j	51c <alt_after_alt_main>

00000520 <alt_load_section>:
     520:	fe010113          	add	sp,sp,-32
     524:	00812e23          	sw	s0,28(sp)
 */  

void alt_load (void)
{
  /* 
   * Copy the .rwdata section. 
     528:	02010413          	add	s0,sp,32
     52c:	fea42623          	sw	a0,-20(s0)
     530:	feb42423          	sw	a1,-24(s0)
     534:	fec42223          	sw	a2,-28(s0)
   */
     538:	fe842703          	lw	a4,-24(s0)
     53c:	fec42783          	lw	a5,-20(s0)
     540:	02f70a63          	beq	a4,a5,574 <alt_load_section+0x54>

  alt_load_section (&__flash_rwdata_start, 
     544:	0240006f          	j	568 <alt_load_section+0x48>
		               &__ram_rwdata_start,
		               &__ram_rwdata_end);
     548:	fec42703          	lw	a4,-20(s0)
     54c:	00470793          	add	a5,a4,4
     550:	fef42623          	sw	a5,-20(s0)
     554:	fe842783          	lw	a5,-24(s0)
     558:	00478693          	add	a3,a5,4
     55c:	fed42423          	sw	a3,-24(s0)
     560:	00072703          	lw	a4,0(a4)
     564:	00e7a023          	sw	a4,0(a5)
  alt_load_section (&__flash_rwdata_start, 
     568:	fe842703          	lw	a4,-24(s0)
     56c:	fe442783          	lw	a5,-28(s0)
     570:	fcf71ce3          	bne	a4,a5,548 <alt_load_section+0x28>

  /*
   * Copy the exception handler.
     574:	00000013          	nop
     578:	01c12403          	lw	s0,28(sp)
     57c:	02010113          	add	sp,sp,32
     580:	00008067          	ret

00000584 <alt_load>:
{
     584:	ff010113          	add	sp,sp,-16
     588:	00112623          	sw	ra,12(sp)
     58c:	00812423          	sw	s0,8(sp)
     590:	01010413          	add	s0,sp,16
  alt_load_section (&__flash_rwdata_start, 
     594:	000077b7          	lui	a5,0x7
     598:	6c878613          	add	a2,a5,1736 # 76c8 <__flash_rwdata_start>
     59c:	000067b7          	lui	a5,0x6
     5a0:	f4878593          	add	a1,a5,-184 # 5f48 <seven_seg>
     5a4:	000077b7          	lui	a5,0x7
     5a8:	6c878513          	add	a0,a5,1736 # 76c8 <__flash_rwdata_start>
     5ac:	f75ff0ef          	jal	520 <alt_load_section>
   */

  alt_load_section (&__flash_exceptions_start, 
     5b0:	31400613          	li	a2,788
     5b4:	02000593          	li	a1,32
     5b8:	02000513          	li	a0,32
     5bc:	f65ff0ef          	jal	520 <alt_load_section>

  /*
   * Copy the .rodata section.
   */

  alt_load_section (&__flash_rodata_start, 
     5c0:	000067b7          	lui	a5,0x6
     5c4:	f4878613          	add	a2,a5,-184 # 5f48 <seven_seg>
     5c8:	000067b7          	lui	a5,0x6
     5cc:	eec78593          	add	a1,a5,-276 # 5eec <__fini_array_end>
     5d0:	000067b7          	lui	a5,0x6
     5d4:	eec78513          	add	a0,a5,-276 # 5eec <__fini_array_end>
     5d8:	f49ff0ef          	jal	520 <alt_load_section>
  
  /*
   * Now ensure that the caches are in synch.
   */
  
  alt_dcache_flush_all();
     5dc:	689000ef          	jal	1464 <alt_dcache_flush_all>
  alt_icache_flush_all();
     5e0:	0b4010ef          	jal	1694 <alt_icache_flush_all>
}
     5e4:	00000013          	nop
     5e8:	00c12083          	lw	ra,12(sp)
     5ec:	00812403          	lw	s0,8(sp)
     5f0:	01010113          	add	sp,sp,16
     5f4:	00008067          	ret

000005f8 <alt_main>:
 * devices/filesystems/components in the system; and call the entry point for
 * the users application, i.e. main().
 */

void alt_main (void)
{
     5f8:	fe010113          	add	sp,sp,-32
     5fc:	00112e23          	sw	ra,28(sp)
     600:	00812c23          	sw	s0,24(sp)
     604:	02010413          	add	s0,sp,32
#endif

  /* ALT LOG - please see HAL/sys/alt_log_printf.h for details */
  ALT_LOG_PRINT_BOOT("[alt_main.c] Entering alt_main, calling alt_irq_init.\r\n");
  /* Initialize the interrupt controller. */
  alt_irq_init (NULL);
     608:	00000513          	li	a0,0
     60c:	0a8000ef          	jal	6b4 <alt_irq_init>

  /* Initialize the operating system */
  ALT_LOG_PRINT_BOOT("[alt_main.c] Done alt_irq_init, calling alt_os_init.\r\n");
  ALT_OS_INIT();
     610:	00000013          	nop
  ALT_LOG_PRINT_BOOT("[alt_main.c] Done OS Init, calling alt_sem_create.\r\n");
  ALT_SEM_CREATE (&alt_fd_list_lock, 1);

  /* Initialize the device drivers/software components. */
  ALT_LOG_PRINT_BOOT("[alt_main.c] Calling alt_sys_init.\r\n");
  alt_sys_init();
     614:	0d8000ef          	jal	6ec <alt_sys_init>
   * devices be present (not equal to /dev/null) and if direct drivers
   * aren't being used.
   */

    ALT_LOG_PRINT_BOOT("[alt_main.c] Redirecting IO.\r\n");
    alt_io_redirect(ALT_STDOUT, ALT_STDIN, ALT_STDERR);
     618:	000067b7          	lui	a5,0x6
     61c:	eec78613          	add	a2,a5,-276 # 5eec <__fini_array_end>
     620:	000067b7          	lui	a5,0x6
     624:	eec78593          	add	a1,a5,-276 # 5eec <__fini_array_end>
     628:	000067b7          	lui	a5,0x6
     62c:	eec78513          	add	a0,a5,-276 # 5eec <__fini_array_end>
     630:	32c010ef          	jal	195c <alt_io_redirect>
  /* 
   * Call the C++ constructors 
   */

  ALT_LOG_PRINT_BOOT("[alt_main.c] Calling C++ constructors.\r\n");
  _do_ctors ();
     634:	7a1000ef          	jal	15d4 <_do_ctors>
   * redefined as _exit()). This is in the interest of reducing code footprint,
   * in that the atexit() overhead is removed when it's not needed.
   */

  ALT_LOG_PRINT_BOOT("[alt_main.c] Calling atexit.\r\n");
  atexit (_do_dtors);
     638:	000017b7          	lui	a5,0x1
     63c:	63478513          	add	a0,a5,1588 # 1634 <_do_dtors>
     640:	210030ef          	jal	3850 <atexit>
  ALT_LOG_PRINT_BOOT("[alt_main.c] Calling main.\r\n");

#ifdef ALT_NO_EXIT
  main (alt_argc, alt_argv, alt_envp);
#else
  result = main (alt_argc, alt_argv, alt_envp);
     644:	000097b7          	lui	a5,0x9
     648:	e547a703          	lw	a4,-428(a5) # 8e54 <alt_argc>
     64c:	000097b7          	lui	a5,0x9
     650:	e587a683          	lw	a3,-424(a5) # 8e58 <alt_argv>
     654:	000097b7          	lui	a5,0x9
     658:	e5c7a783          	lw	a5,-420(a5) # 8e5c <alt_envp>
     65c:	00078613          	mv	a2,a5
     660:	00068593          	mv	a1,a3
     664:	00070513          	mv	a0,a4
     668:	cadff0ef          	jal	314 <main>
     66c:	fea42623          	sw	a0,-20(s0)
  close(STDOUT_FILENO);
     670:	00100513          	li	a0,1
     674:	27c030ef          	jal	38f0 <close>
  exit (result);
     678:	fec42503          	lw	a0,-20(s0)
     67c:	1d5010ef          	jal	2050 <exit>

00000680 <usleep>:
#if defined (__GNUC__) && __GNUC__ >= 4
int ALT_USLEEP (useconds_t us)
#else
unsigned int ALT_USLEEP (unsigned int us)
#endif
{
     680:	fe010113          	add	sp,sp,-32
     684:	00112e23          	sw	ra,28(sp)
     688:	00812c23          	sw	s0,24(sp)
     68c:	02010413          	add	s0,sp,32
     690:	fea42623          	sw	a0,-20(s0)
  return alt_busy_sleep(us);
     694:	fec42503          	lw	a0,-20(s0)
     698:	545000ef          	jal	13dc <alt_busy_sleep>
     69c:	00050793          	mv	a5,a0
}
     6a0:	00078513          	mv	a0,a5
     6a4:	01c12083          	lw	ra,28(sp)
     6a8:	01812403          	lw	s0,24(sp)
     6ac:	02010113          	add	sp,sp,32
     6b0:	00008067          	ret

000006b4 <alt_irq_init>:
 * The "base" parameter is ignored and only
 * present for backwards-compatibility.
 */

void alt_irq_init ( const void* base )
{
     6b4:	fe010113          	add	sp,sp,-32
     6b8:	00112e23          	sw	ra,28(sp)
     6bc:	00812c23          	sw	s0,24(sp)
     6c0:	02010413          	add	s0,sp,32
     6c4:	fea42623          	sw	a0,-20(s0)
    INTEL_NIOSV_M_IRQ_INIT ( NIOSV, NiosV);
     6c8:	5f4010ef          	jal	1cbc <intel_niosv_irq_init>
    NIOSV_SET_CSR(NIOSV_MSTATUS_CSR, NIOSV_MSTATUS_MIE_MASK);
     6cc:	00800793          	li	a5,8
     6d0:	3007a073          	csrs	mstatus,a5
}
     6d4:	00000013          	nop
    alt_irq_cpu_enable_interrupts();
}
     6d8:	00000013          	nop
     6dc:	01c12083          	lw	ra,28(sp)
     6e0:	01812403          	lw	s0,24(sp)
     6e4:	02010113          	add	sp,sp,32
     6e8:	00008067          	ret

000006ec <alt_sys_init>:
 * Initialize the non-interrupt controller devices.
 * Called after alt_irq_init().
 */

void alt_sys_init( void )
{
     6ec:	fe010113          	add	sp,sp,-32
     6f0:	00112e23          	sw	ra,28(sp)
     6f4:	00812c23          	sw	s0,24(sp)
     6f8:	02010413          	add	s0,sp,32
    ALTERA_AVALON_JTAG_UART_INIT ( JTAG_UART, JTAG_UART);
     6fc:	00000613          	li	a2,0
     700:	00000593          	li	a1,0
     704:	000067b7          	lui	a5,0x6
     708:	f8078513          	add	a0,a5,-128 # 5f80 <JTAG_UART+0x28>
     70c:	1e0000ef          	jal	8ec <altera_avalon_jtag_uart_init>
     710:	000067b7          	lui	a5,0x6
     714:	f5878513          	add	a0,a5,-168 # 5f58 <JTAG_UART>
     718:	595000ef          	jal	14ac <alt_dev_reg>
     71c:	3e800793          	li	a5,1000
     720:	fef42623          	sw	a5,-20(s0)
 * in order to initialise the value of the clock frequency.
 */

static ALT_INLINE int ALT_ALWAYS_INLINE alt_sysclk_init (alt_u32 nticks)
{
  if (! _alt_tick_rate)
     724:	000097b7          	lui	a5,0x9
     728:	e687a783          	lw	a5,-408(a5) # 8e68 <_alt_tick_rate>
     72c:	00079a63          	bnez	a5,740 <alt_sys_init+0x54>
  {
    _alt_tick_rate = nticks;
     730:	000097b7          	lui	a5,0x9
     734:	fec42703          	lw	a4,-20(s0)
     738:	e6e7a423          	sw	a4,-408(a5) # 8e68 <_alt_tick_rate>
    return 0;
     73c:	0080006f          	j	744 <alt_sys_init+0x58>
  }
  else
  {
    return -1;
     740:	00000013          	nop
     744:	000027b7          	lui	a5,0x2
     748:	f2878793          	add	a5,a5,-216 # 1f28 <alt_niosv_timer_sc_isr>
     74c:	fef42423          	sw	a5,-24(s0)
alt_u64 alt_niosv_mtimecmp_get();
void alt_niosv_mtimecmp_interrupt_init();
extern alt_niosv_timer_isr_t alt_niosv_timer_interrupt_handler;

static ALT_INLINE void ALT_ALWAYS_INLINE alt_niosv_register_mtimecmp_interrupt_handle(alt_niosv_timer_isr_t handle) {
    alt_niosv_timer_interrupt_handler = handle;
     750:	000097b7          	lui	a5,0x9
     754:	fe842703          	lw	a4,-24(s0)
     758:	e4e7a823          	sw	a4,-432(a5) # 8e50 <alt_niosv_timer_interrupt_handler>
}
     75c:	00000013          	nop
    INTEL_NIOSV_M_INIT ( NIOSV, NiosV);
     760:	075010ef          	jal	1fd4 <alt_niosv_mtimecmp_interrupt_init>
}
     764:	00000013          	nop
     768:	01c12083          	lw	ra,28(sp)
     76c:	01812403          	lw	s0,24(sp)
     770:	02010113          	add	sp,sp,32
     774:	00008067          	ret

00000778 <altera_avalon_jtag_uart_read_fd>:
 *
 */

int 
altera_avalon_jtag_uart_read_fd(alt_fd* fd, char* buffer, int space)
{
     778:	fd010113          	add	sp,sp,-48
     77c:	02112623          	sw	ra,44(sp)
     780:	02812423          	sw	s0,40(sp)
     784:	03010413          	add	s0,sp,48
     788:	fca42e23          	sw	a0,-36(s0)
     78c:	fcb42c23          	sw	a1,-40(s0)
     790:	fcc42a23          	sw	a2,-44(s0)
    altera_avalon_jtag_uart_dev* dev = (altera_avalon_jtag_uart_dev*) fd->dev; 
     794:	fdc42783          	lw	a5,-36(s0)
     798:	0007a783          	lw	a5,0(a5)
     79c:	fef42623          	sw	a5,-20(s0)

    return altera_avalon_jtag_uart_read(&dev->state, buffer, space,
     7a0:	fec42783          	lw	a5,-20(s0)
     7a4:	02878713          	add	a4,a5,40
     7a8:	fdc42783          	lw	a5,-36(s0)
     7ac:	0087a783          	lw	a5,8(a5)
     7b0:	00078693          	mv	a3,a5
     7b4:	fd442603          	lw	a2,-44(s0)
     7b8:	fd842583          	lw	a1,-40(s0)
     7bc:	00070513          	mv	a0,a4
     7c0:	64c000ef          	jal	e0c <altera_avalon_jtag_uart_read>
     7c4:	00050793          	mv	a5,a0
      fd->fd_flags);
}
     7c8:	00078513          	mv	a0,a5
     7cc:	02c12083          	lw	ra,44(sp)
     7d0:	02812403          	lw	s0,40(sp)
     7d4:	03010113          	add	sp,sp,48
     7d8:	00008067          	ret

000007dc <altera_avalon_jtag_uart_write_fd>:

int 
altera_avalon_jtag_uart_write_fd(alt_fd* fd, const char* buffer, int space)
{
     7dc:	fd010113          	add	sp,sp,-48
     7e0:	02112623          	sw	ra,44(sp)
     7e4:	02812423          	sw	s0,40(sp)
     7e8:	03010413          	add	s0,sp,48
     7ec:	fca42e23          	sw	a0,-36(s0)
     7f0:	fcb42c23          	sw	a1,-40(s0)
     7f4:	fcc42a23          	sw	a2,-44(s0)
    altera_avalon_jtag_uart_dev* dev = (altera_avalon_jtag_uart_dev*) fd->dev; 
     7f8:	fdc42783          	lw	a5,-36(s0)
     7fc:	0007a783          	lw	a5,0(a5)
     800:	fef42623          	sw	a5,-20(s0)

    return altera_avalon_jtag_uart_write(&dev->state, buffer, space,
     804:	fec42783          	lw	a5,-20(s0)
     808:	02878713          	add	a4,a5,40
     80c:	fdc42783          	lw	a5,-36(s0)
     810:	0087a783          	lw	a5,8(a5)
     814:	00078693          	mv	a3,a5
     818:	fd442603          	lw	a2,-44(s0)
     81c:	fd842583          	lw	a1,-40(s0)
     820:	00070513          	mv	a0,a4
     824:	015000ef          	jal	1038 <altera_avalon_jtag_uart_write>
     828:	00050793          	mv	a5,a0
      fd->fd_flags);
}
     82c:	00078513          	mv	a0,a5
     830:	02c12083          	lw	ra,44(sp)
     834:	02812403          	lw	s0,40(sp)
     838:	03010113          	add	sp,sp,48
     83c:	00008067          	ret

00000840 <altera_avalon_jtag_uart_close_fd>:

#ifndef ALTERA_AVALON_JTAG_UART_SMALL

int 
altera_avalon_jtag_uart_close_fd(alt_fd* fd)
{
     840:	fd010113          	add	sp,sp,-48
     844:	02112623          	sw	ra,44(sp)
     848:	02812423          	sw	s0,40(sp)
     84c:	03010413          	add	s0,sp,48
     850:	fca42e23          	sw	a0,-36(s0)
    altera_avalon_jtag_uart_dev* dev = (altera_avalon_jtag_uart_dev*) fd->dev; 
     854:	fdc42783          	lw	a5,-36(s0)
     858:	0007a783          	lw	a5,0(a5)
     85c:	fef42623          	sw	a5,-20(s0)

    return altera_avalon_jtag_uart_close(&dev->state, fd->fd_flags);
     860:	fec42783          	lw	a5,-20(s0)
     864:	02878713          	add	a4,a5,40
     868:	fdc42783          	lw	a5,-36(s0)
     86c:	0087a783          	lw	a5,8(a5)
     870:	00078593          	mv	a1,a5
     874:	00070513          	mv	a0,a4
     878:	428000ef          	jal	ca0 <altera_avalon_jtag_uart_close>
     87c:	00050793          	mv	a5,a0
}
     880:	00078513          	mv	a0,a5
     884:	02c12083          	lw	ra,44(sp)
     888:	02812403          	lw	s0,40(sp)
     88c:	03010113          	add	sp,sp,48
     890:	00008067          	ret

00000894 <altera_avalon_jtag_uart_ioctl_fd>:

int 
altera_avalon_jtag_uart_ioctl_fd(alt_fd* fd, int req, void* arg)
{
     894:	fd010113          	add	sp,sp,-48
     898:	02112623          	sw	ra,44(sp)
     89c:	02812423          	sw	s0,40(sp)
     8a0:	03010413          	add	s0,sp,48
     8a4:	fca42e23          	sw	a0,-36(s0)
     8a8:	fcb42c23          	sw	a1,-40(s0)
     8ac:	fcc42a23          	sw	a2,-44(s0)
    altera_avalon_jtag_uart_dev* dev = (altera_avalon_jtag_uart_dev*) fd->dev;
     8b0:	fdc42783          	lw	a5,-36(s0)
     8b4:	0007a783          	lw	a5,0(a5)
     8b8:	fef42623          	sw	a5,-20(s0)

    return altera_avalon_jtag_uart_ioctl(&dev->state, req, arg);
     8bc:	fec42783          	lw	a5,-20(s0)
     8c0:	02878793          	add	a5,a5,40
     8c4:	fd442603          	lw	a2,-44(s0)
     8c8:	fd842583          	lw	a1,-40(s0)
     8cc:	00078513          	mv	a0,a5
     8d0:	43c000ef          	jal	d0c <altera_avalon_jtag_uart_ioctl>
     8d4:	00050793          	mv	a5,a0
}
     8d8:	00078513          	mv	a0,a5
     8dc:	02c12083          	lw	ra,44(sp)
     8e0:	02812403          	lw	s0,40(sp)
     8e4:	03010113          	add	sp,sp,48
     8e8:	00008067          	ret

000008ec <altera_avalon_jtag_uart_init>:
 * Return 1 on sucessful IRQ register and 0 on failure.
 */

void altera_avalon_jtag_uart_init(altera_avalon_jtag_uart_state* sp, 
                                  int irq_controller_id, int irq)
{
     8ec:	fd010113          	add	sp,sp,-48
     8f0:	02112623          	sw	ra,44(sp)
     8f4:	02812423          	sw	s0,40(sp)
     8f8:	03010413          	add	s0,sp,48
     8fc:	fca42e23          	sw	a0,-36(s0)
     900:	fcb42c23          	sw	a1,-40(s0)
     904:	fcc42a23          	sw	a2,-44(s0)
  ALT_FLAG_CREATE(&sp->events, 0);
  ALT_SEM_CREATE(&sp->read_lock, 1);
  ALT_SEM_CREATE(&sp->write_lock, 1);

  /* enable read interrupts at the device */
  sp->irq_enable = ALTERA_AVALON_JTAG_UART_CONTROL_RE_MSK;
     908:	fdc42783          	lw	a5,-36(s0)
     90c:	00100713          	li	a4,1
     910:	02e7a023          	sw	a4,32(a5)

  IOWR_ALTERA_AVALON_JTAG_UART_CONTROL(sp->base, sp->irq_enable); 
     914:	fdc42783          	lw	a5,-36(s0)
     918:	0207a783          	lw	a5,32(a5)
     91c:	fef42623          	sw	a5,-20(s0)
     920:	fdc42783          	lw	a5,-36(s0)
     924:	0007a783          	lw	a5,0(a5)
     928:	00478793          	add	a5,a5,4
     92c:	00078713          	mv	a4,a5
     930:	fec42783          	lw	a5,-20(s0)
     934:	00f72023          	sw	a5,0(a4)
  
  /* register the interrupt handler */
#ifdef ALT_ENHANCED_INTERRUPT_API_PRESENT
  alt_ic_isr_register(irq_controller_id, irq, altera_avalon_jtag_uart_irq, 
     938:	fd842503          	lw	a0,-40(s0)
     93c:	fd442583          	lw	a1,-44(s0)
     940:	00000713          	li	a4,0
     944:	fdc42683          	lw	a3,-36(s0)
     948:	000017b7          	lui	a5,0x1
     94c:	9ac78613          	add	a2,a5,-1620 # 9ac <altera_avalon_jtag_uart_irq>
     950:	561000ef          	jal	16b0 <alt_ic_isr_register>
#else
  alt_irq_register(irq, sp, altera_avalon_jtag_uart_irq);
#endif  

  /* Register an alarm to go off every second to check for presence of host */
  sp->host_inactive = 0;
     954:	fdc42783          	lw	a5,-36(s0)
     958:	0207a223          	sw	zero,36(a5)

  if (alt_alarm_start(&sp->alarm, alt_ticks_per_second(), 
     95c:	fdc42783          	lw	a5,-36(s0)
     960:	00878713          	add	a4,a5,8
  return _alt_tick_rate;
     964:	000097b7          	lui	a5,0x9
     968:	e687a583          	lw	a1,-408(a5) # 8e68 <_alt_tick_rate>
     96c:	fdc42683          	lw	a3,-36(s0)
     970:	000017b7          	lui	a5,0x1
     974:	be478613          	add	a2,a5,-1052 # be4 <altera_avalon_jtag_uart_timeout>
     978:	00070513          	mv	a0,a4
     97c:	0f9000ef          	jal	1274 <alt_alarm_start>
     980:	00050793          	mv	a5,a0
     984:	0007da63          	bgez	a5,998 <altera_avalon_jtag_uart_init+0xac>
    &altera_avalon_jtag_uart_timeout, sp) < 0)
  {
    /* If we can't set the alarm then record "don't know if host present" 
     * and behave as though the host is present.
     */
    sp->timeout = INT_MAX;
     988:	fdc42783          	lw	a5,-36(s0)
     98c:	80000737          	lui	a4,0x80000
     990:	fff70713          	add	a4,a4,-1 # 7fffffff <__alt_data_end+0x7ffe1fff>
     994:	00e7a223          	sw	a4,4(a5)
  }

  /* ALT_LOG - see altera_hal/HAL/inc/sys/alt_log_printf.h */ 
  ALT_LOG_JTAG_UART_ALARM_REGISTER(sp, sp->base);
}
     998:	00000013          	nop
     99c:	02c12083          	lw	ra,44(sp)
     9a0:	02812403          	lw	s0,40(sp)
     9a4:	03010113          	add	sp,sp,48
     9a8:	00008067          	ret

000009ac <altera_avalon_jtag_uart_irq>:
#ifdef ALT_ENHANCED_INTERRUPT_API_PRESENT
static void altera_avalon_jtag_uart_irq(void* context)
#else
static void altera_avalon_jtag_uart_irq(void* context, alt_u32 id)
#endif
{
     9ac:	fa010113          	add	sp,sp,-96
     9b0:	04812e23          	sw	s0,92(sp)
     9b4:	06010413          	add	s0,sp,96
     9b8:	faa42623          	sw	a0,-84(s0)
  altera_avalon_jtag_uart_state* sp = (altera_avalon_jtag_uart_state*) context;
     9bc:	fac42783          	lw	a5,-84(s0)
     9c0:	fcf42223          	sw	a5,-60(s0)
  unsigned int base = sp->base;
     9c4:	fc442783          	lw	a5,-60(s0)
     9c8:	0007a783          	lw	a5,0(a5)
     9cc:	fcf42423          	sw	a5,-56(s0)
  unsigned int postflag=0;
     9d0:	fa042c23          	sw	zero,-72(s0)
  /* ALT_LOG - see altera_hal/HAL/inc/sys/alt_log_printf.h */ 
  ALT_LOG_JTAG_UART_ISR_FUNCTION(base, sp);

  for ( ; ; )
  {
    unsigned int control = IORD_ALTERA_AVALON_JTAG_UART_CONTROL(base);
     9d4:	fc842783          	lw	a5,-56(s0)
     9d8:	00478793          	add	a5,a5,4
     9dc:	0007a783          	lw	a5,0(a5)
     9e0:	fcf42623          	sw	a5,-52(s0)
     9e4:	fcc42783          	lw	a5,-52(s0)
     9e8:	fcf42823          	sw	a5,-48(s0)

    /* Return once nothing more to do */
    if ((control & (ALTERA_AVALON_JTAG_UART_CONTROL_RI_MSK | ALTERA_AVALON_JTAG_UART_CONTROL_WI_MSK)) == 0)
     9ec:	fd042783          	lw	a5,-48(s0)
     9f0:	3007f793          	and	a5,a5,768
     9f4:	1c078e63          	beqz	a5,bd0 <altera_avalon_jtag_uart_irq+0x224>
      break;

    if (control & ALTERA_AVALON_JTAG_UART_CONTROL_RI_MSK)
     9f8:	fd042783          	lw	a5,-48(s0)
     9fc:	1007f793          	and	a5,a5,256
     a00:	0e078663          	beqz	a5,aec <altera_avalon_jtag_uart_irq+0x140>
    {
      /* process a read irq.  Start by assuming that there is data in the
       * receive FIFO (otherwise why would we have been interrupted?)
       */
      unsigned int data = 1 << ALTERA_AVALON_JTAG_UART_DATA_RAVAIL_OFST;
     a04:	000107b7          	lui	a5,0x10
     a08:	faf42e23          	sw	a5,-68(s0)
      for ( ; ; )
      {
        /* Check whether there is space in the buffer.  If not then we must not
         * read any characters from the buffer as they will be lost.
         */
        unsigned int next = (sp->rx_in + 1) % ALTERA_AVALON_JTAG_UART_BUF_LEN;
     a0c:	fc442783          	lw	a5,-60(s0)
     a10:	0287a783          	lw	a5,40(a5) # 10028 <__alt_heap_start+0x6dfc>
     a14:	00178793          	add	a5,a5,1
     a18:	7ff7f793          	and	a5,a5,2047
     a1c:	fcf42a23          	sw	a5,-44(s0)
        if (next == sp->rx_out)
     a20:	fc442783          	lw	a5,-60(s0)
     a24:	02c7a783          	lw	a5,44(a5)
     a28:	fd442703          	lw	a4,-44(s0)
     a2c:	06f70263          	beq	a4,a5,a90 <altera_avalon_jtag_uart_irq+0xe4>
          break;

        /* Try to remove a character from the FIFO and find out whether there
         * are any more characters remaining.
         */
        data = IORD_ALTERA_AVALON_JTAG_UART_DATA(base);
     a30:	fc842783          	lw	a5,-56(s0)
     a34:	0007a783          	lw	a5,0(a5)
     a38:	fcf42c23          	sw	a5,-40(s0)
     a3c:	fd842783          	lw	a5,-40(s0)
     a40:	faf42e23          	sw	a5,-68(s0)
        
        if ((data & ALTERA_AVALON_JTAG_UART_DATA_RVALID_MSK) == 0)
     a44:	fbc42703          	lw	a4,-68(s0)
     a48:	000087b7          	lui	a5,0x8
     a4c:	00f777b3          	and	a5,a4,a5
     a50:	04078463          	beqz	a5,a98 <altera_avalon_jtag_uart_irq+0xec>
          break;

        sp->rx_buf[sp->rx_in] = (data & ALTERA_AVALON_JTAG_UART_DATA_DATA_MSK) >> ALTERA_AVALON_JTAG_UART_DATA_DATA_OFST;
     a54:	fc442783          	lw	a5,-60(s0)
     a58:	0287a783          	lw	a5,40(a5) # 8028 <__global_pointer$+0x194>
     a5c:	fbc42703          	lw	a4,-68(s0)
     a60:	0ff77713          	zext.b	a4,a4
     a64:	fc442683          	lw	a3,-60(s0)
     a68:	00f687b3          	add	a5,a3,a5
     a6c:	02e78c23          	sb	a4,56(a5)
        sp->rx_in = (sp->rx_in + 1) % ALTERA_AVALON_JTAG_UART_BUF_LEN;
     a70:	fc442783          	lw	a5,-60(s0)
     a74:	0287a783          	lw	a5,40(a5)
     a78:	00178793          	add	a5,a5,1
     a7c:	7ff7f713          	and	a4,a5,2047
     a80:	fc442783          	lw	a5,-60(s0)
     a84:	02e7a423          	sw	a4,40(a5)
 * HAL.
 */

static ALT_INLINE int ALT_ALWAYS_INLINE alt_no_error (void)
{
  return 0;
     a88:	00000013          	nop
      {
     a8c:	f81ff06f          	j	a0c <altera_avalon_jtag_uart_irq+0x60>
          break;
     a90:	00000013          	nop
     a94:	0080006f          	j	a9c <altera_avalon_jtag_uart_irq+0xf0>
          break;
     a98:	00000013          	nop

        /* Post an event to notify jtag_uart_read that a character has been read */
        ALT_FLAG_POST (sp->events, ALT_JTAG_UART_READ_RDY, ALT_FLAG_SET);
      }

      if (data & ALTERA_AVALON_JTAG_UART_DATA_RAVAIL_MSK)
     a9c:	fbc42703          	lw	a4,-68(s0)
     aa0:	000107b7          	lui	a5,0x10
     aa4:	04f76463          	bltu	a4,a5,aec <altera_avalon_jtag_uart_irq+0x140>
      {
        /* If there is still data available here then the buffer is full 
         * so turn off receive interrupts until some space becomes available.
         */
        sp->irq_enable &= ~ALTERA_AVALON_JTAG_UART_CONTROL_RE_MSK;
     aa8:	fc442783          	lw	a5,-60(s0)
     aac:	0207a783          	lw	a5,32(a5) # 10020 <__alt_heap_start+0x6df4>
     ab0:	ffe7f713          	and	a4,a5,-2
     ab4:	fc442783          	lw	a5,-60(s0)
     ab8:	02e7a023          	sw	a4,32(a5)
        IOWR_ALTERA_AVALON_JTAG_UART_CONTROL(base, sp->irq_enable);
     abc:	fc442783          	lw	a5,-60(s0)
     ac0:	0207a783          	lw	a5,32(a5)
     ac4:	fcf42e23          	sw	a5,-36(s0)
     ac8:	fc842783          	lw	a5,-56(s0)
     acc:	00478793          	add	a5,a5,4
     ad0:	00078713          	mv	a4,a5
     ad4:	fdc42783          	lw	a5,-36(s0)
     ad8:	00f72023          	sw	a5,0(a4)
        
        /* Dummy read to ensure IRQ is cleared prior to ISR completion */
        IORD_ALTERA_AVALON_JTAG_UART_CONTROL(base);
     adc:	fc842783          	lw	a5,-56(s0)
     ae0:	00478793          	add	a5,a5,4
     ae4:	0007a783          	lw	a5,0(a5)
     ae8:	fef42023          	sw	a5,-32(s0)
      }
    }

    if (control & ALTERA_AVALON_JTAG_UART_CONTROL_WI_MSK)
     aec:	fd042783          	lw	a5,-48(s0)
     af0:	2007f793          	and	a5,a5,512
     af4:	ee0780e3          	beqz	a5,9d4 <altera_avalon_jtag_uart_irq+0x28>
    {
      /* process a write irq */
      unsigned int space = (control & ALTERA_AVALON_JTAG_UART_CONTROL_WSPACE_MSK) >> ALTERA_AVALON_JTAG_UART_CONTROL_WSPACE_OFST;
     af8:	fd042783          	lw	a5,-48(s0)
     afc:	0107d793          	srl	a5,a5,0x10
     b00:	fcf42023          	sw	a5,-64(s0)

      while (space > 0 && sp->tx_out != sp->tx_in)
     b04:	05c0006f          	j	b60 <altera_avalon_jtag_uart_irq+0x1b4>
      {
        IOWR_ALTERA_AVALON_JTAG_UART_DATA(base, sp->tx_buf[sp->tx_out]);
     b08:	fc442783          	lw	a5,-60(s0)
     b0c:	0347a783          	lw	a5,52(a5)
     b10:	fc442703          	lw	a4,-60(s0)
     b14:	00f707b3          	add	a5,a4,a5
     b18:	00001737          	lui	a4,0x1
     b1c:	00f707b3          	add	a5,a4,a5
     b20:	8387c783          	lbu	a5,-1992(a5)
     b24:	fef42223          	sw	a5,-28(s0)
     b28:	fc842783          	lw	a5,-56(s0)
     b2c:	fe442703          	lw	a4,-28(s0)
     b30:	00e7a023          	sw	a4,0(a5)

        sp->tx_out = (sp->tx_out + 1) % ALTERA_AVALON_JTAG_UART_BUF_LEN;
     b34:	fc442783          	lw	a5,-60(s0)
     b38:	0347a783          	lw	a5,52(a5)
     b3c:	00178793          	add	a5,a5,1
     b40:	7ff7f713          	and	a4,a5,2047
     b44:	fc442783          	lw	a5,-60(s0)
     b48:	02e7aa23          	sw	a4,52(a5)
        
        /* indicate that the ALT_FLAG_POST routine must be called */
        postflag=1;
     b4c:	00100793          	li	a5,1
     b50:	faf42c23          	sw	a5,-72(s0)

        space--;
     b54:	fc042783          	lw	a5,-64(s0)
     b58:	fff78793          	add	a5,a5,-1
     b5c:	fcf42023          	sw	a5,-64(s0)
      while (space > 0 && sp->tx_out != sp->tx_in)
     b60:	fc042783          	lw	a5,-64(s0)
     b64:	00078c63          	beqz	a5,b7c <altera_avalon_jtag_uart_irq+0x1d0>
     b68:	fc442783          	lw	a5,-60(s0)
     b6c:	0347a703          	lw	a4,52(a5)
     b70:	fc442783          	lw	a5,-60(s0)
     b74:	0307a783          	lw	a5,48(a5)
     b78:	f8f718e3          	bne	a4,a5,b08 <altera_avalon_jtag_uart_irq+0x15c>
      {
        /* Post an event to notify jtag_uart_write that a character has been written */
        ALT_FLAG_POST (sp->events, ALT_JTAG_UART_WRITE_RDY, ALT_FLAG_SET);
      }

      if (space > 0)
     b7c:	fc042783          	lw	a5,-64(s0)
     b80:	e4078ae3          	beqz	a5,9d4 <altera_avalon_jtag_uart_irq+0x28>
      {
        /* If we don't have any more data available then turn off the TX interrupt */
        sp->irq_enable &= ~ALTERA_AVALON_JTAG_UART_CONTROL_WE_MSK;
     b84:	fc442783          	lw	a5,-60(s0)
     b88:	0207a783          	lw	a5,32(a5)
     b8c:	ffd7f713          	and	a4,a5,-3
     b90:	fc442783          	lw	a5,-60(s0)
     b94:	02e7a023          	sw	a4,32(a5)
        IOWR_ALTERA_AVALON_JTAG_UART_CONTROL(sp->base, sp->irq_enable);
     b98:	fc442783          	lw	a5,-60(s0)
     b9c:	0207a783          	lw	a5,32(a5)
     ba0:	fef42423          	sw	a5,-24(s0)
     ba4:	fc442783          	lw	a5,-60(s0)
     ba8:	0007a783          	lw	a5,0(a5)
     bac:	00478793          	add	a5,a5,4
     bb0:	00078713          	mv	a4,a5
     bb4:	fe842783          	lw	a5,-24(s0)
     bb8:	00f72023          	sw	a5,0(a4) # 1000 <altera_avalon_jtag_uart_read+0x1f4>
        
        /* Dummy read to ensure IRQ is cleared prior to ISR completion */
        IORD_ALTERA_AVALON_JTAG_UART_CONTROL(base);
     bbc:	fc842783          	lw	a5,-56(s0)
     bc0:	00478793          	add	a5,a5,4
     bc4:	0007a783          	lw	a5,0(a5)
     bc8:	fef42623          	sw	a5,-20(s0)
  {
     bcc:	e09ff06f          	j	9d4 <altera_avalon_jtag_uart_irq+0x28>
      break;
     bd0:	00000013          	nop
      }
    }
  }
}
     bd4:	00000013          	nop
     bd8:	05c12403          	lw	s0,92(sp)
     bdc:	06010113          	add	sp,sp,96
     be0:	00008067          	ret

00000be4 <altera_avalon_jtag_uart_timeout>:
 * Timeout routine is called every second
 */

static alt_u32 
altera_avalon_jtag_uart_timeout(void* context) 
{
     be4:	fd010113          	add	sp,sp,-48
     be8:	02812623          	sw	s0,44(sp)
     bec:	03010413          	add	s0,sp,48
     bf0:	fca42e23          	sw	a0,-36(s0)
  altera_avalon_jtag_uart_state* sp = (altera_avalon_jtag_uart_state *) context;
     bf4:	fdc42783          	lw	a5,-36(s0)
     bf8:	fef42023          	sw	a5,-32(s0)

  unsigned int control = IORD_ALTERA_AVALON_JTAG_UART_CONTROL(sp->base);
     bfc:	fe042783          	lw	a5,-32(s0)
     c00:	0007a783          	lw	a5,0(a5)
     c04:	00478793          	add	a5,a5,4
     c08:	0007a783          	lw	a5,0(a5)
     c0c:	fef42223          	sw	a5,-28(s0)
     c10:	fe442783          	lw	a5,-28(s0)
     c14:	fef42423          	sw	a5,-24(s0)

  if (control & ALTERA_AVALON_JTAG_UART_CONTROL_AC_MSK)
     c18:	fe842783          	lw	a5,-24(s0)
     c1c:	4007f793          	and	a5,a5,1024
     c20:	02078c63          	beqz	a5,c58 <altera_avalon_jtag_uart_timeout+0x74>
  {
    IOWR_ALTERA_AVALON_JTAG_UART_CONTROL(sp->base, sp->irq_enable | ALTERA_AVALON_JTAG_UART_CONTROL_AC_MSK);
     c24:	fe042783          	lw	a5,-32(s0)
     c28:	0207a783          	lw	a5,32(a5)
     c2c:	4007e793          	or	a5,a5,1024
     c30:	fef42623          	sw	a5,-20(s0)
     c34:	fe042783          	lw	a5,-32(s0)
     c38:	0007a783          	lw	a5,0(a5)
     c3c:	00478793          	add	a5,a5,4
     c40:	00078713          	mv	a4,a5
     c44:	fec42783          	lw	a5,-20(s0)
     c48:	00f72023          	sw	a5,0(a4)
    sp->host_inactive = 0;
     c4c:	fe042783          	lw	a5,-32(s0)
     c50:	0207a223          	sw	zero,36(a5)
     c54:	0340006f          	j	c88 <altera_avalon_jtag_uart_timeout+0xa4>
  }
  else if (sp->host_inactive < INT_MAX - 2) {
     c58:	fe042783          	lw	a5,-32(s0)
     c5c:	0247a703          	lw	a4,36(a5)
     c60:	800007b7          	lui	a5,0x80000
     c64:	ffc78793          	add	a5,a5,-4 # 7ffffffc <__alt_data_end+0x7ffe1ffc>
     c68:	02e7e063          	bltu	a5,a4,c88 <altera_avalon_jtag_uart_timeout+0xa4>
    sp->host_inactive++;
     c6c:	fe042783          	lw	a5,-32(s0)
     c70:	0247a783          	lw	a5,36(a5)
     c74:	00178713          	add	a4,a5,1
     c78:	fe042783          	lw	a5,-32(s0)
     c7c:	02e7a223          	sw	a4,36(a5)
    
    if (sp->host_inactive >= sp->timeout) {
     c80:	fe042783          	lw	a5,-32(s0)
     c84:	0247a783          	lw	a5,36(a5)
     c88:	000097b7          	lui	a5,0x9
     c8c:	e687a783          	lw	a5,-408(a5) # 8e68 <_alt_tick_rate>
      ALT_FLAG_POST (sp->events, ALT_JTAG_UART_TIMEOUT, ALT_FLAG_SET);
    }
  }

  return alt_ticks_per_second();
}
     c90:	00078513          	mv	a0,a5
     c94:	02c12403          	lw	s0,44(sp)
     c98:	03010113          	add	sp,sp,48
     c9c:	00008067          	ret

00000ca0 <altera_avalon_jtag_uart_close>:
 * The close routine is not implemented for the small driver; instead it will
 * map to null. This is because the small driver simply waits while characters
 * are transmitted; there is no interrupt-serviced buffer to empty 
 */
int altera_avalon_jtag_uart_close(altera_avalon_jtag_uart_state* sp, int flags)
{
     ca0:	fe010113          	add	sp,sp,-32
     ca4:	00812e23          	sw	s0,28(sp)
     ca8:	02010413          	add	s0,sp,32
     cac:	fea42623          	sw	a0,-20(s0)
     cb0:	feb42423          	sw	a1,-24(s0)
  /* 
   * Wait for all transmit data to be emptied by the JTAG UART ISR, or
   * for a host-inactivity timeout, in which case transmit data will be lost
   */
  while ( (sp->tx_out != sp->tx_in) && (sp->host_inactive < sp->timeout) ) {
     cb4:	01c0006f          	j	cd0 <altera_avalon_jtag_uart_close+0x30>
    if (flags & O_NONBLOCK) {
     cb8:	fe842703          	lw	a4,-24(s0)
     cbc:	000047b7          	lui	a5,0x4
     cc0:	00f777b3          	and	a5,a4,a5
     cc4:	00078663          	beqz	a5,cd0 <altera_avalon_jtag_uart_close+0x30>
      return -EWOULDBLOCK; 
     cc8:	ff500793          	li	a5,-11
     ccc:	0300006f          	j	cfc <altera_avalon_jtag_uart_close+0x5c>
  while ( (sp->tx_out != sp->tx_in) && (sp->host_inactive < sp->timeout) ) {
     cd0:	fec42783          	lw	a5,-20(s0)
     cd4:	0347a703          	lw	a4,52(a5) # 4034 <_free_r+0x1fc>
     cd8:	fec42783          	lw	a5,-20(s0)
     cdc:	0307a783          	lw	a5,48(a5)
     ce0:	00f70c63          	beq	a4,a5,cf8 <altera_avalon_jtag_uart_close+0x58>
     ce4:	fec42783          	lw	a5,-20(s0)
     ce8:	0247a703          	lw	a4,36(a5)
     cec:	fec42783          	lw	a5,-20(s0)
     cf0:	0047a783          	lw	a5,4(a5)
     cf4:	fcf762e3          	bltu	a4,a5,cb8 <altera_avalon_jtag_uart_close+0x18>
    }
  }

  return 0;
     cf8:	00000793          	li	a5,0
}
     cfc:	00078513          	mv	a0,a5
     d00:	01c12403          	lw	s0,28(sp)
     d04:	02010113          	add	sp,sp,32
     d08:	00008067          	ret

00000d0c <altera_avalon_jtag_uart_ioctl>:
/* ----------------------------------------------------------- */

int 
altera_avalon_jtag_uart_ioctl(altera_avalon_jtag_uart_state* sp, int req,
  void* arg)
{
     d0c:	fd010113          	add	sp,sp,-48
     d10:	02812623          	sw	s0,44(sp)
     d14:	03010413          	add	s0,sp,48
     d18:	fca42e23          	sw	a0,-36(s0)
     d1c:	fcb42c23          	sw	a1,-40(s0)
     d20:	fcc42a23          	sw	a2,-44(s0)
  int rc = -ENOTTY;
     d24:	fe700793          	li	a5,-25
     d28:	fef42423          	sw	a5,-24(s0)

  switch (req)
     d2c:	fd842703          	lw	a4,-40(s0)
     d30:	000077b7          	lui	a5,0x7
     d34:	a0178793          	add	a5,a5,-1535 # 6a01 <JTAG_UART+0xaa9>
     d38:	00f70c63          	beq	a4,a5,d50 <altera_avalon_jtag_uart_ioctl+0x44>
     d3c:	fd842703          	lw	a4,-40(s0)
     d40:	000077b7          	lui	a5,0x7
     d44:	a0278793          	add	a5,a5,-1534 # 6a02 <JTAG_UART+0xaaa>
     d48:	06f70263          	beq	a4,a5,dac <altera_avalon_jtag_uart_ioctl+0xa0>
      rc = 0;
    }
    break;

  default:
    break;
     d4c:	0ac0006f          	j	df8 <altera_avalon_jtag_uart_ioctl+0xec>
    if (sp->timeout != INT_MAX)
     d50:	fdc42783          	lw	a5,-36(s0)
     d54:	0047a703          	lw	a4,4(a5)
     d58:	800007b7          	lui	a5,0x80000
     d5c:	fff78793          	add	a5,a5,-1 # 7fffffff <__alt_data_end+0x7ffe1fff>
     d60:	08f70663          	beq	a4,a5,dec <altera_avalon_jtag_uart_ioctl+0xe0>
      int timeout = *((int *)arg);
     d64:	fd442783          	lw	a5,-44(s0)
     d68:	0007a783          	lw	a5,0(a5)
     d6c:	fef42623          	sw	a5,-20(s0)
      sp->timeout = (timeout >= 2 && timeout < INT_MAX) ? timeout : INT_MAX - 1;
     d70:	fec42703          	lw	a4,-20(s0)
     d74:	00100793          	li	a5,1
     d78:	00e7de63          	bge	a5,a4,d94 <altera_avalon_jtag_uart_ioctl+0x88>
     d7c:	fec42703          	lw	a4,-20(s0)
     d80:	800007b7          	lui	a5,0x80000
     d84:	fff78793          	add	a5,a5,-1 # 7fffffff <__alt_data_end+0x7ffe1fff>
     d88:	00f70663          	beq	a4,a5,d94 <altera_avalon_jtag_uart_ioctl+0x88>
     d8c:	fec42783          	lw	a5,-20(s0)
     d90:	00c0006f          	j	d9c <altera_avalon_jtag_uart_ioctl+0x90>
     d94:	800007b7          	lui	a5,0x80000
     d98:	ffe78793          	add	a5,a5,-2 # 7ffffffe <__alt_data_end+0x7ffe1ffe>
     d9c:	fdc42703          	lw	a4,-36(s0)
     da0:	00f72223          	sw	a5,4(a4)
      rc = 0;
     da4:	fe042423          	sw	zero,-24(s0)
    break;
     da8:	0440006f          	j	dec <altera_avalon_jtag_uart_ioctl+0xe0>
    if (sp->timeout != INT_MAX)
     dac:	fdc42783          	lw	a5,-36(s0)
     db0:	0047a703          	lw	a4,4(a5)
     db4:	800007b7          	lui	a5,0x80000
     db8:	fff78793          	add	a5,a5,-1 # 7fffffff <__alt_data_end+0x7ffe1fff>
     dbc:	02f70c63          	beq	a4,a5,df4 <altera_avalon_jtag_uart_ioctl+0xe8>
      *((int *)arg) = (sp->host_inactive < sp->timeout) ? 1 : 0;
     dc0:	fdc42783          	lw	a5,-36(s0)
     dc4:	0247a703          	lw	a4,36(a5)
     dc8:	fdc42783          	lw	a5,-36(s0)
     dcc:	0047a783          	lw	a5,4(a5)
     dd0:	00f737b3          	sltu	a5,a4,a5
     dd4:	0ff7f793          	zext.b	a5,a5
     dd8:	00078713          	mv	a4,a5
     ddc:	fd442783          	lw	a5,-44(s0)
     de0:	00e7a023          	sw	a4,0(a5)
      rc = 0;
     de4:	fe042423          	sw	zero,-24(s0)
    break;
     de8:	00c0006f          	j	df4 <altera_avalon_jtag_uart_ioctl+0xe8>
    break;
     dec:	00000013          	nop
     df0:	0080006f          	j	df8 <altera_avalon_jtag_uart_ioctl+0xec>
    break;
     df4:	00000013          	nop
  }

  return rc;
     df8:	fe842783          	lw	a5,-24(s0)
}
     dfc:	00078513          	mv	a0,a5
     e00:	02c12403          	lw	s0,44(sp)
     e04:	03010113          	add	sp,sp,48
     e08:	00008067          	ret

00000e0c <altera_avalon_jtag_uart_read>:
/* ----------------------------------------------------------- */

int 
altera_avalon_jtag_uart_read(altera_avalon_jtag_uart_state* sp, 
  char * buffer, int space, int flags)
{
     e0c:	fc010113          	add	sp,sp,-64
     e10:	02112e23          	sw	ra,60(sp)
     e14:	02812c23          	sw	s0,56(sp)
     e18:	04010413          	add	s0,sp,64
     e1c:	fca42623          	sw	a0,-52(s0)
     e20:	fcb42423          	sw	a1,-56(s0)
     e24:	fcc42223          	sw	a2,-60(s0)
     e28:	fcd42023          	sw	a3,-64(s0)
  char * ptr = buffer;
     e2c:	fc842783          	lw	a5,-56(s0)
     e30:	fcf42823          	sw	a5,-48(s0)
   * When running in a multi threaded environment, obtain the "read_lock"
   * semaphore. This ensures that reading from the device is thread-safe.
   */
  ALT_SEM_PEND (sp->read_lock, 0);

  while (space > 0)
     e34:	1280006f          	j	f5c <altera_avalon_jtag_uart_read+0x150>
    unsigned int in, out;

    /* Read as much data as possible */
    do
    {
      in  = sp->rx_in;
     e38:	fcc42783          	lw	a5,-52(s0)
     e3c:	0287a783          	lw	a5,40(a5)
     e40:	fcf42c23          	sw	a5,-40(s0)
      out = sp->rx_out;
     e44:	fcc42783          	lw	a5,-52(s0)
     e48:	02c7a783          	lw	a5,44(a5)
     e4c:	fcf42e23          	sw	a5,-36(s0)

      if (in >= out)
     e50:	fd842703          	lw	a4,-40(s0)
     e54:	fdc42783          	lw	a5,-36(s0)
     e58:	00f76c63          	bltu	a4,a5,e70 <altera_avalon_jtag_uart_read+0x64>
        n = in - out;
     e5c:	fd842703          	lw	a4,-40(s0)
     e60:	fdc42783          	lw	a5,-36(s0)
     e64:	40f707b3          	sub	a5,a4,a5
     e68:	fcf42a23          	sw	a5,-44(s0)
     e6c:	0180006f          	j	e84 <altera_avalon_jtag_uart_read+0x78>
      else
        n = ALTERA_AVALON_JTAG_UART_BUF_LEN - out;
     e70:	000017b7          	lui	a5,0x1
     e74:	80078713          	add	a4,a5,-2048 # 800 <altera_avalon_jtag_uart_write_fd+0x24>
     e78:	fdc42783          	lw	a5,-36(s0)
     e7c:	40f707b3          	sub	a5,a4,a5
     e80:	fcf42a23          	sw	a5,-44(s0)

      if (n == 0)
     e84:	fd442783          	lw	a5,-44(s0)
     e88:	06078e63          	beqz	a5,f04 <altera_avalon_jtag_uart_read+0xf8>
        break; /* No more data available */

      if (n > space)
     e8c:	fc442783          	lw	a5,-60(s0)
     e90:	fd442703          	lw	a4,-44(s0)
     e94:	00e7f663          	bgeu	a5,a4,ea0 <altera_avalon_jtag_uart_read+0x94>
        n = space;
     e98:	fc442783          	lw	a5,-60(s0)
     e9c:	fcf42a23          	sw	a5,-44(s0)

      memcpy(ptr, sp->rx_buf + out, n);
     ea0:	fcc42783          	lw	a5,-52(s0)
     ea4:	03878713          	add	a4,a5,56
     ea8:	fdc42783          	lw	a5,-36(s0)
     eac:	00f707b3          	add	a5,a4,a5
     eb0:	fd442603          	lw	a2,-44(s0)
     eb4:	00078593          	mv	a1,a5
     eb8:	fd042503          	lw	a0,-48(s0)
     ebc:	499020ef          	jal	3b54 <memcpy>
      ptr   += n;
     ec0:	fd042703          	lw	a4,-48(s0)
     ec4:	fd442783          	lw	a5,-44(s0)
     ec8:	00f707b3          	add	a5,a4,a5
     ecc:	fcf42823          	sw	a5,-48(s0)
      space -= n;
     ed0:	fc442703          	lw	a4,-60(s0)
     ed4:	fd442783          	lw	a5,-44(s0)
     ed8:	40f707b3          	sub	a5,a4,a5
     edc:	fcf42223          	sw	a5,-60(s0)

      sp->rx_out = (out + n) % ALTERA_AVALON_JTAG_UART_BUF_LEN;
     ee0:	fdc42703          	lw	a4,-36(s0)
     ee4:	fd442783          	lw	a5,-44(s0)
     ee8:	00f707b3          	add	a5,a4,a5
     eec:	7ff7f713          	and	a4,a5,2047
     ef0:	fcc42783          	lw	a5,-52(s0)
     ef4:	02e7a623          	sw	a4,44(a5)
    }
    while (space > 0);
     ef8:	fc442783          	lw	a5,-60(s0)
     efc:	f2f04ee3          	bgtz	a5,e38 <altera_avalon_jtag_uart_read+0x2c>
     f00:	0080006f          	j	f08 <altera_avalon_jtag_uart_read+0xfc>
        break; /* No more data available */
     f04:	00000013          	nop

    /* If we read any data then return it */
    if (ptr != buffer)
     f08:	fd042703          	lw	a4,-48(s0)
     f0c:	fc842783          	lw	a5,-56(s0)
     f10:	04f71c63          	bne	a4,a5,f68 <altera_avalon_jtag_uart_read+0x15c>
      break;

    /* If in non-blocking mode then return error */
    if (flags & O_NONBLOCK)
     f14:	fc042703          	lw	a4,-64(s0)
     f18:	000047b7          	lui	a5,0x4
     f1c:	00f777b3          	and	a5,a4,a5
     f20:	04079863          	bnez	a5,f70 <altera_avalon_jtag_uart_read+0x164>
      while (in == sp->rx_in && sp->host_inactive < sp->timeout)
        ;
    }
#else
    /* No OS: Always spin */
    while (in == sp->rx_in && sp->host_inactive < sp->timeout)
     f24:	00000013          	nop
     f28:	fcc42783          	lw	a5,-52(s0)
     f2c:	0287a783          	lw	a5,40(a5) # 4028 <_free_r+0x1f0>
     f30:	fd842703          	lw	a4,-40(s0)
     f34:	00f71c63          	bne	a4,a5,f4c <altera_avalon_jtag_uart_read+0x140>
     f38:	fcc42783          	lw	a5,-52(s0)
     f3c:	0247a703          	lw	a4,36(a5)
     f40:	fcc42783          	lw	a5,-52(s0)
     f44:	0047a783          	lw	a5,4(a5)
     f48:	fef760e3          	bltu	a4,a5,f28 <altera_avalon_jtag_uart_read+0x11c>
      ;
#endif /* __ucosii__ */

    if (in == sp->rx_in)
     f4c:	fcc42783          	lw	a5,-52(s0)
     f50:	0287a783          	lw	a5,40(a5)
     f54:	fd842703          	lw	a4,-40(s0)
     f58:	02f70063          	beq	a4,a5,f78 <altera_avalon_jtag_uart_read+0x16c>
  while (space > 0)
     f5c:	fc442783          	lw	a5,-60(s0)
     f60:	ecf04ce3          	bgtz	a5,e38 <altera_avalon_jtag_uart_read+0x2c>
     f64:	0180006f          	j	f7c <altera_avalon_jtag_uart_read+0x170>
      break;
     f68:	00000013          	nop
     f6c:	0100006f          	j	f7c <altera_avalon_jtag_uart_read+0x170>
      break;
     f70:	00000013          	nop
     f74:	0080006f          	j	f7c <altera_avalon_jtag_uart_read+0x170>
      break;
     f78:	00000013          	nop
   * semaphore so that other threads can access the buffer.
   */

  ALT_SEM_POST (sp->read_lock);

  if (ptr != buffer)
     f7c:	fd042703          	lw	a4,-48(s0)
     f80:	fc842783          	lw	a5,-56(s0)
     f84:	06f70463          	beq	a4,a5,fec <altera_avalon_jtag_uart_read+0x1e0>
    NIOSV_READ_AND_CLR_CSR(NIOSV_MSTATUS_CSR, context, NIOSV_MSTATUS_MIE_MASK);
     f88:	00800793          	li	a5,8
     f8c:	3007b7f3          	csrrc	a5,mstatus,a5
     f90:	fef42623          	sw	a5,-20(s0)
    return context;
     f94:	fec42783          	lw	a5,-20(s0)
  {
    /* If we read any data then there is space in the buffer so enable interrupts */
    context = alt_irq_disable_all();
     f98:	fef42023          	sw	a5,-32(s0)
    sp->irq_enable |= ALTERA_AVALON_JTAG_UART_CONTROL_RE_MSK;
     f9c:	fcc42783          	lw	a5,-52(s0)
     fa0:	0207a783          	lw	a5,32(a5)
     fa4:	0017e713          	or	a4,a5,1
     fa8:	fcc42783          	lw	a5,-52(s0)
     fac:	02e7a023          	sw	a4,32(a5)
    IOWR_ALTERA_AVALON_JTAG_UART_CONTROL(sp->base, sp->irq_enable);
     fb0:	fcc42783          	lw	a5,-52(s0)
     fb4:	0207a783          	lw	a5,32(a5)
     fb8:	fef42223          	sw	a5,-28(s0)
     fbc:	fcc42783          	lw	a5,-52(s0)
     fc0:	0007a783          	lw	a5,0(a5)
     fc4:	00478793          	add	a5,a5,4
     fc8:	00078713          	mv	a4,a5
     fcc:	fe442783          	lw	a5,-28(s0)
     fd0:	00f72023          	sw	a5,0(a4)
     fd4:	fe042783          	lw	a5,-32(s0)
     fd8:	fef42423          	sw	a5,-24(s0)
    NIOSV_SET_CSR(NIOSV_MSTATUS_CSR, context & NIOSV_MSTATUS_MIE_MASK);
     fdc:	fe842783          	lw	a5,-24(s0)
     fe0:	0087f793          	and	a5,a5,8
     fe4:	3007a073          	csrs	mstatus,a5
}
     fe8:	00000013          	nop
    alt_irq_enable_all(context);
  }

  if (ptr != buffer)
     fec:	fd042703          	lw	a4,-48(s0)
     ff0:	fc842783          	lw	a5,-56(s0)
     ff4:	00f70a63          	beq	a4,a5,1008 <altera_avalon_jtag_uart_read+0x1fc>
    return ptr - buffer;
     ff8:	fd042703          	lw	a4,-48(s0)
     ffc:	fc842783          	lw	a5,-56(s0)
    1000:	40f707b3          	sub	a5,a4,a5
    1004:	0200006f          	j	1024 <altera_avalon_jtag_uart_read+0x218>
  else if (flags & O_NONBLOCK)
    1008:	fc042703          	lw	a4,-64(s0)
    100c:	000047b7          	lui	a5,0x4
    1010:	00f777b3          	and	a5,a4,a5
    1014:	00078663          	beqz	a5,1020 <altera_avalon_jtag_uart_read+0x214>
    return -EWOULDBLOCK;
    1018:	ff500793          	li	a5,-11
    101c:	0080006f          	j	1024 <altera_avalon_jtag_uart_read+0x218>
  else
    return -EIO;
    1020:	ffb00793          	li	a5,-5
}
    1024:	00078513          	mv	a0,a5
    1028:	03c12083          	lw	ra,60(sp)
    102c:	03812403          	lw	s0,56(sp)
    1030:	04010113          	add	sp,sp,64
    1034:	00008067          	ret

00001038 <altera_avalon_jtag_uart_write>:
/* ----------------------------------------------------------- */

int 
altera_avalon_jtag_uart_write(altera_avalon_jtag_uart_state* sp, 
  const char * ptr, int count, int flags)
{
    1038:	fc010113          	add	sp,sp,-64
    103c:	02112e23          	sw	ra,60(sp)
    1040:	02812c23          	sw	s0,56(sp)
    1044:	04010413          	add	s0,sp,64
    1048:	fca42623          	sw	a0,-52(s0)
    104c:	fcb42423          	sw	a1,-56(s0)
    1050:	fcc42223          	sw	a2,-60(s0)
    1054:	fcd42023          	sw	a3,-64(s0)
  /* Remove warning at optimisation level 03 by seting out to 0 */
  unsigned int in, out=0;
    1058:	fc042823          	sw	zero,-48(s0)
  unsigned int n;
  alt_irq_context context;

  const char * start = ptr;
    105c:	fc842783          	lw	a5,-56(s0)
    1060:	fcf42c23          	sw	a5,-40(s0)
  ALT_SEM_PEND (sp->write_lock, 0);

  do
  {
    /* Copy as much as we can into the transmit buffer */
    while (count > 0)
    1064:	0ec0006f          	j	1150 <altera_avalon_jtag_uart_write+0x118>
    {
      /* We need a stable value of the out pointer to calculate the space available */
      in  = sp->tx_in;
    1068:	fcc42783          	lw	a5,-52(s0)
    106c:	0307a783          	lw	a5,48(a5) # 4030 <_free_r+0x1f8>
    1070:	fcf42e23          	sw	a5,-36(s0)
      out = sp->tx_out;
    1074:	fcc42783          	lw	a5,-52(s0)
    1078:	0347a783          	lw	a5,52(a5)
    107c:	fcf42823          	sw	a5,-48(s0)

      if (in < out)
    1080:	fdc42703          	lw	a4,-36(s0)
    1084:	fd042783          	lw	a5,-48(s0)
    1088:	00f77e63          	bgeu	a4,a5,10a4 <altera_avalon_jtag_uart_write+0x6c>
        n = out - 1 - in;
    108c:	fd042703          	lw	a4,-48(s0)
    1090:	fdc42783          	lw	a5,-36(s0)
    1094:	40f707b3          	sub	a5,a4,a5
    1098:	fff78793          	add	a5,a5,-1
    109c:	fcf42a23          	sw	a5,-44(s0)
    10a0:	0340006f          	j	10d4 <altera_avalon_jtag_uart_write+0x9c>
      else if (out > 0)
    10a4:	fd042783          	lw	a5,-48(s0)
    10a8:	00078e63          	beqz	a5,10c4 <altera_avalon_jtag_uart_write+0x8c>
        n = ALTERA_AVALON_JTAG_UART_BUF_LEN - in;
    10ac:	000017b7          	lui	a5,0x1
    10b0:	80078713          	add	a4,a5,-2048 # 800 <altera_avalon_jtag_uart_write_fd+0x24>
    10b4:	fdc42783          	lw	a5,-36(s0)
    10b8:	40f707b3          	sub	a5,a4,a5
    10bc:	fcf42a23          	sw	a5,-44(s0)
    10c0:	0140006f          	j	10d4 <altera_avalon_jtag_uart_write+0x9c>
      else
        n = ALTERA_AVALON_JTAG_UART_BUF_LEN - 1 - in;
    10c4:	7ff00713          	li	a4,2047
    10c8:	fdc42783          	lw	a5,-36(s0)
    10cc:	40f707b3          	sub	a5,a4,a5
    10d0:	fcf42a23          	sw	a5,-44(s0)

      if (n == 0)
    10d4:	fd442783          	lw	a5,-44(s0)
    10d8:	08078263          	beqz	a5,115c <altera_avalon_jtag_uart_write+0x124>
        break;

      if (n > count)
    10dc:	fc442783          	lw	a5,-60(s0)
    10e0:	fd442703          	lw	a4,-44(s0)
    10e4:	00e7f663          	bgeu	a5,a4,10f0 <altera_avalon_jtag_uart_write+0xb8>
        n = count;
    10e8:	fc442783          	lw	a5,-60(s0)
    10ec:	fcf42a23          	sw	a5,-44(s0)

      memcpy(sp->tx_buf + in, ptr, n);
    10f0:	fcc42703          	lw	a4,-52(s0)
    10f4:	000017b7          	lui	a5,0x1
    10f8:	83878793          	add	a5,a5,-1992 # 838 <altera_avalon_jtag_uart_write_fd+0x5c>
    10fc:	00f70733          	add	a4,a4,a5
    1100:	fdc42783          	lw	a5,-36(s0)
    1104:	00f707b3          	add	a5,a4,a5
    1108:	fd442603          	lw	a2,-44(s0)
    110c:	fc842583          	lw	a1,-56(s0)
    1110:	00078513          	mv	a0,a5
    1114:	241020ef          	jal	3b54 <memcpy>
      ptr   += n;
    1118:	fc842703          	lw	a4,-56(s0)
    111c:	fd442783          	lw	a5,-44(s0)
    1120:	00f707b3          	add	a5,a4,a5
    1124:	fcf42423          	sw	a5,-56(s0)
      count -= n;
    1128:	fc442703          	lw	a4,-60(s0)
    112c:	fd442783          	lw	a5,-44(s0)
    1130:	40f707b3          	sub	a5,a4,a5
    1134:	fcf42223          	sw	a5,-60(s0)

      sp->tx_in = (in + n) % ALTERA_AVALON_JTAG_UART_BUF_LEN;
    1138:	fdc42703          	lw	a4,-36(s0)
    113c:	fd442783          	lw	a5,-44(s0)
    1140:	00f707b3          	add	a5,a4,a5
    1144:	7ff7f713          	and	a4,a5,2047
    1148:	fcc42783          	lw	a5,-52(s0)
    114c:	02e7a823          	sw	a4,48(a5)
    while (count > 0)
    1150:	fc442783          	lw	a5,-60(s0)
    1154:	f0f04ae3          	bgtz	a5,1068 <altera_avalon_jtag_uart_write+0x30>
    1158:	0080006f          	j	1160 <altera_avalon_jtag_uart_write+0x128>
        break;
    115c:	00000013          	nop
    NIOSV_READ_AND_CLR_CSR(NIOSV_MSTATUS_CSR, context, NIOSV_MSTATUS_MIE_MASK);
    1160:	00800793          	li	a5,8
    1164:	3007b7f3          	csrrc	a5,mstatus,a5
    1168:	fef42623          	sw	a5,-20(s0)
    return context;
    116c:	fec42783          	lw	a5,-20(s0)
     * to enable interrupts if there is no space left in the FIFO
     *
     * For now kick the interrupt routine every time to make it transmit 
     * the data 
     */
    context = alt_irq_disable_all();
    1170:	fef42023          	sw	a5,-32(s0)
    sp->irq_enable |= ALTERA_AVALON_JTAG_UART_CONTROL_WE_MSK;
    1174:	fcc42783          	lw	a5,-52(s0)
    1178:	0207a783          	lw	a5,32(a5)
    117c:	0027e713          	or	a4,a5,2
    1180:	fcc42783          	lw	a5,-52(s0)
    1184:	02e7a023          	sw	a4,32(a5)
    IOWR_ALTERA_AVALON_JTAG_UART_CONTROL(sp->base, sp->irq_enable);
    1188:	fcc42783          	lw	a5,-52(s0)
    118c:	0207a783          	lw	a5,32(a5)
    1190:	fef42223          	sw	a5,-28(s0)
    1194:	fcc42783          	lw	a5,-52(s0)
    1198:	0007a783          	lw	a5,0(a5)
    119c:	00478793          	add	a5,a5,4
    11a0:	00078713          	mv	a4,a5
    11a4:	fe442783          	lw	a5,-28(s0)
    11a8:	00f72023          	sw	a5,0(a4)
    11ac:	fe042783          	lw	a5,-32(s0)
    11b0:	fef42423          	sw	a5,-24(s0)
    NIOSV_SET_CSR(NIOSV_MSTATUS_CSR, context & NIOSV_MSTATUS_MIE_MASK);
    11b4:	fe842783          	lw	a5,-24(s0)
    11b8:	0087f793          	and	a5,a5,8
    11bc:	3007a073          	csrs	mstatus,a5
}
    11c0:	00000013          	nop
    /* 
     * If there is any data left then either return now or block until 
     * some has been sent 
     */
    /* consider: test whether there is anything there while doing this and delay for at most 2s. */
    if (count > 0)
    11c4:	fc442783          	lw	a5,-60(s0)
    11c8:	04f05463          	blez	a5,1210 <altera_avalon_jtag_uart_write+0x1d8>
    {
      if (flags & O_NONBLOCK)
    11cc:	fc042703          	lw	a4,-64(s0)
    11d0:	000047b7          	lui	a5,0x4
    11d4:	00f777b3          	and	a5,a4,a5
    11d8:	04079263          	bnez	a5,121c <altera_avalon_jtag_uart_write+0x1e4>
      /*
       * No OS present: Always wait for data to be removed from buffer.  Once
       * the interrupt routine has removed some data then we will be able to
       * insert some more.
       */
      while (out == sp->tx_out && sp->host_inactive < sp->timeout)
    11dc:	00000013          	nop
    11e0:	fcc42783          	lw	a5,-52(s0)
    11e4:	0347a783          	lw	a5,52(a5) # 4034 <_free_r+0x1fc>
    11e8:	fd042703          	lw	a4,-48(s0)
    11ec:	00f71c63          	bne	a4,a5,1204 <altera_avalon_jtag_uart_write+0x1cc>
    11f0:	fcc42783          	lw	a5,-52(s0)
    11f4:	0247a703          	lw	a4,36(a5)
    11f8:	fcc42783          	lw	a5,-52(s0)
    11fc:	0047a783          	lw	a5,4(a5)
    1200:	fef760e3          	bltu	a4,a5,11e0 <altera_avalon_jtag_uart_write+0x1a8>
        ;
#endif /* __ucosii__ */

      if  (sp->host_inactive)
    1204:	fcc42783          	lw	a5,-52(s0)
    1208:	0247a783          	lw	a5,36(a5)
    120c:	00079c63          	bnez	a5,1224 <altera_avalon_jtag_uart_write+0x1ec>
         break;
    }
  }
  while (count > 0);
    1210:	fc442783          	lw	a5,-60(s0)
    1214:	f2f04ee3          	bgtz	a5,1150 <altera_avalon_jtag_uart_write+0x118>
    1218:	0100006f          	j	1228 <altera_avalon_jtag_uart_write+0x1f0>
        break;
    121c:	00000013          	nop
    1220:	0080006f          	j	1228 <altera_avalon_jtag_uart_write+0x1f0>
         break;
    1224:	00000013          	nop
   * Now that access to the circular buffer is complete, release the write
   * semaphore so that other threads can access the buffer.
   */
  ALT_SEM_POST (sp->write_lock);

  if (ptr != start)
    1228:	fc842703          	lw	a4,-56(s0)
    122c:	fd842783          	lw	a5,-40(s0)
    1230:	00f70a63          	beq	a4,a5,1244 <altera_avalon_jtag_uart_write+0x20c>
    return ptr - start;
    1234:	fc842703          	lw	a4,-56(s0)
    1238:	fd842783          	lw	a5,-40(s0)
    123c:	40f707b3          	sub	a5,a4,a5
    1240:	0200006f          	j	1260 <altera_avalon_jtag_uart_write+0x228>
  else if (flags & O_NONBLOCK)
    1244:	fc042703          	lw	a4,-64(s0)
    1248:	000047b7          	lui	a5,0x4
    124c:	00f777b3          	and	a5,a4,a5
    1250:	00078663          	beqz	a5,125c <altera_avalon_jtag_uart_write+0x224>
    return -EWOULDBLOCK;
    1254:	ff500793          	li	a5,-11
    1258:	0080006f          	j	1260 <altera_avalon_jtag_uart_write+0x228>
    sp->tx_out = sp->tx_in = 0;
    return ptr - start + count;
  }
#endif
  else
    return -EIO; /* Host not connected */
    125c:	ffb00793          	li	a5,-5
}
    1260:	00078513          	mv	a0,a5
    1264:	03c12083          	lw	ra,60(sp)
    1268:	03812403          	lw	s0,56(sp)
    126c:	04010113          	add	sp,sp,64
    1270:	00008067          	ret

00001274 <alt_alarm_start>:
 */ 

int alt_alarm_start (alt_alarm* alarm, alt_u32 nticks,
                     alt_u32 (*callback) (void* context),
                     void* context)
{
    1274:	fc010113          	add	sp,sp,-64
    1278:	02812e23          	sw	s0,60(sp)
    127c:	04010413          	add	s0,sp,64
    1280:	fca42623          	sw	a0,-52(s0)
    1284:	fcb42423          	sw	a1,-56(s0)
    1288:	fcc42223          	sw	a2,-60(s0)
    128c:	fcd42023          	sw	a3,-64(s0)
  alt_irq_context irq_context;
  alt_u64 current_nticks = 0;
    1290:	00000713          	li	a4,0
    1294:	00000793          	li	a5,0
    1298:	fee42423          	sw	a4,-24(s0)
    129c:	fef42623          	sw	a5,-20(s0)
    12a0:	000097b7          	lui	a5,0x9
    12a4:	e687a783          	lw	a5,-408(a5) # 8e68 <_alt_tick_rate>
  
  if (alt_ticks_per_second ())
    12a8:	12078063          	beqz	a5,13c8 <alt_alarm_start+0x154>
  {
    if (alarm)
    12ac:	fcc42783          	lw	a5,-52(s0)
    12b0:	10078863          	beqz	a5,13c0 <alt_alarm_start+0x14c>
    {
      alarm->callback = callback;
    12b4:	fcc42783          	lw	a5,-52(s0)
    12b8:	fc442703          	lw	a4,-60(s0)
    12bc:	00e7a823          	sw	a4,16(a5)
      alarm->context  = context;
    12c0:	fcc42783          	lw	a5,-52(s0)
    12c4:	fc042703          	lw	a4,-64(s0)
    12c8:	00e7aa23          	sw	a4,20(a5)
    NIOSV_READ_AND_CLR_CSR(NIOSV_MSTATUS_CSR, context, NIOSV_MSTATUS_MIE_MASK);
    12cc:	00800793          	li	a5,8
    12d0:	3007b7f3          	csrrc	a5,mstatus,a5
    12d4:	fef42223          	sw	a5,-28(s0)
    return context;
    12d8:	fe442783          	lw	a5,-28(s0)
 
      irq_context = alt_irq_disable_all ();
    12dc:	fcf42a23          	sw	a5,-44(s0)
 * alt_nticks() returns the elapsed number of system clock ticks since reset.
 */

static ALT_INLINE alt_u64 ALT_ALWAYS_INLINE alt_nticks (void)
{
  return _alt_nticks;
    12e0:	000097b7          	lui	a5,0x9
    12e4:	e707a703          	lw	a4,-400(a5) # 8e70 <_alt_nticks>
    12e8:	e747a783          	lw	a5,-396(a5)
      
      current_nticks = alt_nticks();
    12ec:	fee42423          	sw	a4,-24(s0)
    12f0:	fef42623          	sw	a5,-20(s0)
      
      alarm->time = (alt_u64)nticks + current_nticks + 1; 
    12f4:	fc842783          	lw	a5,-56(s0)
    12f8:	00078813          	mv	a6,a5
    12fc:	00000893          	li	a7,0
    1300:	fe842603          	lw	a2,-24(s0)
    1304:	fec42683          	lw	a3,-20(s0)
    1308:	00c80733          	add	a4,a6,a2
    130c:	00070593          	mv	a1,a4
    1310:	0105b5b3          	sltu	a1,a1,a6
    1314:	00d887b3          	add	a5,a7,a3
    1318:	00f586b3          	add	a3,a1,a5
    131c:	00068793          	mv	a5,a3
    1320:	00070613          	mv	a2,a4
    1324:	00078693          	mv	a3,a5
    1328:	00100513          	li	a0,1
    132c:	00000593          	li	a1,0
    1330:	00a60733          	add	a4,a2,a0
    1334:	00070813          	mv	a6,a4
    1338:	00c83833          	sltu	a6,a6,a2
    133c:	00b687b3          	add	a5,a3,a1
    1340:	00f806b3          	add	a3,a6,a5
    1344:	00068793          	mv	a5,a3
    1348:	fcc42683          	lw	a3,-52(s0)
    134c:	00e6a423          	sw	a4,8(a3)
    1350:	00f6a623          	sw	a5,12(a3)
          
      alt_llist_insert (&alt_alarm_list, &alarm->llist);
    1354:	fcc42783          	lw	a5,-52(s0)
    1358:	81818713          	add	a4,gp,-2024 # 76ac <alt_alarm_list>
    135c:	fce42e23          	sw	a4,-36(s0)
    1360:	fef42023          	sw	a5,-32(s0)
 */

static ALT_INLINE void ALT_ALWAYS_INLINE alt_llist_insert(alt_llist* list, 
                alt_llist* entry)
{
  entry->previous = list;
    1364:	fe042783          	lw	a5,-32(s0)
    1368:	fdc42703          	lw	a4,-36(s0)
    136c:	00e7a223          	sw	a4,4(a5)
  entry->next     = list->next;
    1370:	fdc42783          	lw	a5,-36(s0)
    1374:	0007a703          	lw	a4,0(a5)
    1378:	fe042783          	lw	a5,-32(s0)
    137c:	00e7a023          	sw	a4,0(a5)

  list->next->previous = entry;
    1380:	fdc42783          	lw	a5,-36(s0)
    1384:	0007a783          	lw	a5,0(a5)
    1388:	fe042703          	lw	a4,-32(s0)
    138c:	00e7a223          	sw	a4,4(a5)
  list->next           = entry;
    1390:	fdc42783          	lw	a5,-36(s0)
    1394:	fe042703          	lw	a4,-32(s0)
    1398:	00e7a023          	sw	a4,0(a5)
}
    139c:	00000013          	nop
    13a0:	fd442783          	lw	a5,-44(s0)
    13a4:	fcf42c23          	sw	a5,-40(s0)
    NIOSV_SET_CSR(NIOSV_MSTATUS_CSR, context & NIOSV_MSTATUS_MIE_MASK);
    13a8:	fd842783          	lw	a5,-40(s0)
    13ac:	0087f793          	and	a5,a5,8
    13b0:	3007a073          	csrs	mstatus,a5
}
    13b4:	00000013          	nop
      alt_irq_enable_all (irq_context);

      return 0;
    13b8:	00000793          	li	a5,0
    13bc:	0100006f          	j	13cc <alt_alarm_start+0x158>
    }
    else
    {
      return -EINVAL;
    13c0:	fea00793          	li	a5,-22
    13c4:	0080006f          	j	13cc <alt_alarm_start+0x158>
    }
  }
  else
  {
    return -ENOTSUP;
    13c8:	f7a00793          	li	a5,-134
  }
}
    13cc:	00078513          	mv	a0,a5
    13d0:	03c12403          	lw	s0,60(sp)
    13d4:	04010113          	add	sp,sp,64
    13d8:	00008067          	ret

000013dc <alt_busy_sleep>:

// For a 50 Mhz clock, this is 1,202,590,842.
#define US_PER_OUTER_LOOP ((alt_u64)CLOCKS_PER_OUTER_LOOP / (alt_u64)CPU_FREQUENCY_MHZ)

unsigned int alt_busy_sleep (unsigned int us)
{
    13dc:	fd010113          	add	sp,sp,-48
    13e0:	02112623          	sw	ra,44(sp)
    13e4:	02812423          	sw	s0,40(sp)
    13e8:	03010413          	add	s0,sp,48
    13ec:	fca42e23          	sw	a0,-36(s0)
 * is connected, use that. If no timer agent is connected, fallback to a low accuracy busy
 * loop. If accurate timing is desired for busy sleep (used by usleep), please be sure to
 * provide a timestamp source, or connect the timer agent.
 */
#if HAL_TIMESTAMP_ENABLED
    alt_timestamp_start();
    13f0:	0f1000ef          	jal	1ce0 <alt_timestamp_start>
    const alt_timestamp_type end_time = (CPU_FREQUENCY_MHZ * us);
    13f4:	fdc42703          	lw	a4,-36(s0)
    13f8:	00070793          	mv	a5,a4
    13fc:	00179793          	sll	a5,a5,0x1
    1400:	00e787b3          	add	a5,a5,a4
    1404:	00379793          	sll	a5,a5,0x3
    1408:	00e787b3          	add	a5,a5,a4
    140c:	00179793          	sll	a5,a5,0x1
    1410:	fef42423          	sw	a5,-24(s0)
    1414:	fe042623          	sw	zero,-20(s0)
    while (alt_timestamp() < end_time) {
    1418:	00000013          	nop
    141c:	105000ef          	jal	1d20 <alt_timestamp>
    1420:	00050713          	mv	a4,a0
    1424:	00058793          	mv	a5,a1
    1428:	fec42683          	lw	a3,-20(s0)
    142c:	00078613          	mv	a2,a5
    1430:	fed666e3          	bltu	a2,a3,141c <alt_busy_sleep+0x40>
    1434:	fec42683          	lw	a3,-20(s0)
    1438:	00078613          	mv	a2,a5
    143c:	00c69863          	bne	a3,a2,144c <alt_busy_sleep+0x70>
    1440:	fe842683          	lw	a3,-24(s0)
    1444:	00070793          	mv	a5,a4
    1448:	fcd7eae3          	bltu	a5,a3,141c <alt_busy_sleep+0x40>
        );
    }
#endif
#endif /* #ifndef ALT_SIM_OPTIMIZE */

  return 0;
    144c:	00000793          	li	a5,0
}
    1450:	00078513          	mv	a0,a5
    1454:	02c12083          	lw	ra,44(sp)
    1458:	02812403          	lw	s0,40(sp)
    145c:	03010113          	add	sp,sp,48
    1460:	00008067          	ret

00001464 <alt_dcache_flush_all>:

/*
 * alt_dcache_flush_all() is called to flush the entire data cache.
 */
void alt_dcache_flush_all (void)
{
    1464:	ff010113          	add	sp,sp,-16
    1468:	00812623          	sw	s0,12(sp)
    146c:	01010413          	add	s0,sp,16
    for (i = (char*)0; i < (char*) ALT_CPU_DCACHE_SIZE; i+= ALT_CPU_DCACHE_LINE_SIZE)
    { 
      DCACHE_CLEAN_BY_INDEX_VAL(i); 
    }
#endif
}
    1470:	00000013          	nop
    1474:	00c12403          	lw	s0,12(sp)
    1478:	01010113          	add	sp,sp,16
    147c:	00008067          	ret

00001480 <alt_dev_null_write>:
 * by the alt_dev_null device. It simple discards all data passed to it, and
 * indicates that the data has been successfully transmitted.
 */

static int alt_dev_null_write (alt_fd* fd, const char* ptr, int len)
{
    1480:	fe010113          	add	sp,sp,-32
    1484:	00812e23          	sw	s0,28(sp)
    1488:	02010413          	add	s0,sp,32
    148c:	fea42623          	sw	a0,-20(s0)
    1490:	feb42423          	sw	a1,-24(s0)
    1494:	fec42223          	sw	a2,-28(s0)
  return len;
    1498:	fe442783          	lw	a5,-28(s0)
}
    149c:	00078513          	mv	a0,a5
    14a0:	01c12403          	lw	s0,28(sp)
    14a4:	02010113          	add	sp,sp,32
    14a8:	00008067          	ret

000014ac <alt_dev_reg>:
    }
    /* all other elements are set to zero */
  };
  
int alt_dev_reg (alt_dev* dev)
{
    14ac:	fe010113          	add	sp,sp,-32
    14b0:	00112e23          	sw	ra,28(sp)
    14b4:	00812c23          	sw	s0,24(sp)
    14b8:	02010413          	add	s0,sp,32
    14bc:	fea42623          	sw	a0,-20(s0)
    return alt_dev_llist_insert ((alt_dev_llist*) dev, &alt_dev_list);
    14c0:	000077b7          	lui	a5,0x7
    14c4:	69c78593          	add	a1,a5,1692 # 769c <alt_dev_list>
    14c8:	fec42503          	lw	a0,-20(s0)
    14cc:	060000ef          	jal	152c <alt_dev_llist_insert>
    14d0:	00050793          	mv	a5,a0
}
    14d4:	00078513          	mv	a0,a5
    14d8:	01c12083          	lw	ra,28(sp)
    14dc:	01812403          	lw	s0,24(sp)
    14e0:	02010113          	add	sp,sp,32
    14e4:	00008067          	ret

000014e8 <alt_get_errno>:
    14e8:	ff010113          	add	sp,sp,-16
    14ec:	00112623          	sw	ra,12(sp)
    14f0:	00812423          	sw	s0,8(sp)
    14f4:	01010413          	add	s0,sp,16
    14f8:	8141a783          	lw	a5,-2028(gp) # 76a8 <alt_errno>
    14fc:	00078a63          	beqz	a5,1510 <alt_get_errno+0x28>
    1500:	8141a783          	lw	a5,-2028(gp) # 76a8 <alt_errno>
    1504:	000780e7          	jalr	a5
    1508:	00050793          	mv	a5,a0
    150c:	00c0006f          	j	1518 <alt_get_errno+0x30>
    1510:	000097b7          	lui	a5,0x9
    1514:	e8078793          	add	a5,a5,-384 # 8e80 <errno>
    1518:	00078513          	mv	a0,a5
    151c:	00c12083          	lw	ra,12(sp)
    1520:	00812403          	lw	s0,8(sp)
    1524:	01010113          	add	sp,sp,16
    1528:	00008067          	ret

0000152c <alt_dev_llist_insert>:
{
    152c:	fd010113          	add	sp,sp,-48
    1530:	02112623          	sw	ra,44(sp)
    1534:	02812423          	sw	s0,40(sp)
    1538:	03010413          	add	s0,sp,48
    153c:	fca42e23          	sw	a0,-36(s0)
    1540:	fcb42c23          	sw	a1,-40(s0)
  if (!dev || !dev->name)
    1544:	fdc42783          	lw	a5,-36(s0)
    1548:	00078863          	beqz	a5,1558 <alt_dev_llist_insert+0x2c>
    154c:	fdc42783          	lw	a5,-36(s0)
    1550:	0087a783          	lw	a5,8(a5)
    1554:	00079e63          	bnez	a5,1570 <alt_dev_llist_insert+0x44>
    ALT_ERRNO = EINVAL;
    1558:	f91ff0ef          	jal	14e8 <alt_get_errno>
    155c:	00050713          	mv	a4,a0
    1560:	01600793          	li	a5,22
    1564:	00f72023          	sw	a5,0(a4)
    return -EINVAL;
    1568:	fea00793          	li	a5,-22
    156c:	0540006f          	j	15c0 <alt_dev_llist_insert+0x94>
  alt_llist_insert(list, &dev->llist);
    1570:	fdc42783          	lw	a5,-36(s0)
    1574:	fd842703          	lw	a4,-40(s0)
    1578:	fee42423          	sw	a4,-24(s0)
    157c:	fef42623          	sw	a5,-20(s0)
  entry->previous = list;
    1580:	fec42783          	lw	a5,-20(s0)
    1584:	fe842703          	lw	a4,-24(s0)
    1588:	00e7a223          	sw	a4,4(a5)
  entry->next     = list->next;
    158c:	fe842783          	lw	a5,-24(s0)
    1590:	0007a703          	lw	a4,0(a5)
    1594:	fec42783          	lw	a5,-20(s0)
    1598:	00e7a023          	sw	a4,0(a5)
  list->next->previous = entry;
    159c:	fe842783          	lw	a5,-24(s0)
    15a0:	0007a783          	lw	a5,0(a5)
    15a4:	fec42703          	lw	a4,-20(s0)
    15a8:	00e7a223          	sw	a4,4(a5)
  list->next           = entry;
    15ac:	fe842783          	lw	a5,-24(s0)
    15b0:	fec42703          	lw	a4,-20(s0)
    15b4:	00e7a023          	sw	a4,0(a5)
}
    15b8:	00000013          	nop
  return 0;  
    15bc:	00000793          	li	a5,0
}
    15c0:	00078513          	mv	a0,a5
    15c4:	02c12083          	lw	ra,44(sp)
    15c8:	02812403          	lw	s0,40(sp)
    15cc:	03010113          	add	sp,sp,48
    15d0:	00008067          	ret

000015d4 <_do_ctors>:
/*
 * Run the C++ static constructors.
 */

void _do_ctors(void)
{
    15d4:	fe010113          	add	sp,sp,-32
    15d8:	00112e23          	sw	ra,28(sp)
    15dc:	00812c23          	sw	s0,24(sp)
    15e0:	02010413          	add	s0,sp,32
  constructor* ctor;

  for (ctor = __init_array_start; ctor < __init_array_end; ctor++)
    15e4:	000067b7          	lui	a5,0x6
    15e8:	ee478793          	add	a5,a5,-284 # 5ee4 <__init_array_start>
    15ec:	fef42623          	sw	a5,-20(s0)
    15f0:	01c0006f          	j	160c <_do_ctors+0x38>
        (*ctor) (); 
    15f4:	fec42783          	lw	a5,-20(s0)
    15f8:	0007a783          	lw	a5,0(a5)
    15fc:	000780e7          	jalr	a5
  for (ctor = __init_array_start; ctor < __init_array_end; ctor++)
    1600:	fec42783          	lw	a5,-20(s0)
    1604:	00478793          	add	a5,a5,4
    1608:	fef42623          	sw	a5,-20(s0)
    160c:	fec42703          	lw	a4,-20(s0)
    1610:	000067b7          	lui	a5,0x6
    1614:	eec78793          	add	a5,a5,-276 # 5eec <__fini_array_end>
    1618:	fcf76ee3          	bltu	a4,a5,15f4 <_do_ctors+0x20>
}
    161c:	00000013          	nop
    1620:	00000013          	nop
    1624:	01c12083          	lw	ra,28(sp)
    1628:	01812403          	lw	s0,24(sp)
    162c:	02010113          	add	sp,sp,32
    1630:	00008067          	ret

00001634 <_do_dtors>:
/*
 * Run the C++ static destructors.
 */

void _do_dtors(void)
{
    1634:	fe010113          	add	sp,sp,-32
    1638:	00112e23          	sw	ra,28(sp)
    163c:	00812c23          	sw	s0,24(sp)
    1640:	02010413          	add	s0,sp,32
  destructor* dtor;

  for (dtor = &__fini_array_end[-1]; dtor >= __fini_array_start; dtor--)
    1644:	000067b7          	lui	a5,0x6
    1648:	ee878793          	add	a5,a5,-280 # 5ee8 <__init_array_start+0x4>
    164c:	fef42623          	sw	a5,-20(s0)
    1650:	01c0006f          	j	166c <_do_dtors+0x38>
        (*dtor) (); 
    1654:	fec42783          	lw	a5,-20(s0)
    1658:	0007a783          	lw	a5,0(a5)
    165c:	000780e7          	jalr	a5
  for (dtor = &__fini_array_end[-1]; dtor >= __fini_array_start; dtor--)
    1660:	fec42783          	lw	a5,-20(s0)
    1664:	ffc78793          	add	a5,a5,-4
    1668:	fef42623          	sw	a5,-20(s0)
    166c:	fec42703          	lw	a4,-20(s0)
    1670:	000067b7          	lui	a5,0x6
    1674:	eec78793          	add	a5,a5,-276 # 5eec <__fini_array_end>
    1678:	fcf77ee3          	bgeu	a4,a5,1654 <_do_dtors+0x20>
}
    167c:	00000013          	nop
    1680:	00000013          	nop
    1684:	01c12083          	lw	ra,28(sp)
    1688:	01812403          	lw	s0,24(sp)
    168c:	02010113          	add	sp,sp,32
    1690:	00008067          	ret

00001694 <alt_icache_flush_all>:
/*
 * alt_icache_flush_all() is called to flush the entire instruction cache.
 */

void alt_icache_flush_all (void)
{
    1694:	ff010113          	add	sp,sp,-16
    1698:	00812623          	sw	s0,12(sp)
    169c:	01010413          	add	s0,sp,16
#if ALT_CPU_ICACHE_SIZE > 0
    __asm__ volatile("fence.i" ::: "memory");
#endif
}
    16a0:	00000013          	nop
    16a4:	00c12403          	lw	s0,12(sp)
    16a8:	01010113          	add	sp,sp,16
    16ac:	00008067          	ret

000016b0 <alt_ic_isr_register>:
  * @return                 0 if successful, else error (-1)
  */
int 
alt_ic_isr_register(alt_u32 ic_id, alt_u32 irq, alt_isr_func isr, 
  void *isr_context, void *flags)
{
    16b0:	fd010113          	add	sp,sp,-48
    16b4:	02112623          	sw	ra,44(sp)
    16b8:	02812423          	sw	s0,40(sp)
    16bc:	03010413          	add	s0,sp,48
    16c0:	fea42623          	sw	a0,-20(s0)
    16c4:	feb42423          	sw	a1,-24(s0)
    16c8:	fec42223          	sw	a2,-28(s0)
    16cc:	fed42023          	sw	a3,-32(s0)
    16d0:	fce42e23          	sw	a4,-36(s0)
    return alt_iic_isr_register(ic_id, irq, isr, isr_context, flags);
    16d4:	fdc42703          	lw	a4,-36(s0)
    16d8:	fe042683          	lw	a3,-32(s0)
    16dc:	fe442603          	lw	a2,-28(s0)
    16e0:	fe842583          	lw	a1,-24(s0)
    16e4:	fec42503          	lw	a0,-20(s0)
    16e8:	01c000ef          	jal	1704 <alt_iic_isr_register>
    16ec:	00050793          	mv	a5,a0
}  
    16f0:	00078513          	mv	a0,a5
    16f4:	02c12083          	lw	ra,44(sp)
    16f8:	02812403          	lw	s0,40(sp)
    16fc:	03010113          	add	sp,sp,48
    1700:	00008067          	ret

00001704 <alt_iic_isr_register>:
  * @param flags            
  * @return                 0 if successful, else error (-1)
  */
int alt_iic_isr_register(alt_u32 ic_id, alt_u32 irq, alt_isr_func isr, 
  void *isr_context, void *flags)
{
    1704:	fa010113          	add	sp,sp,-96
    1708:	04812e23          	sw	s0,92(sp)
    170c:	06010413          	add	s0,sp,96
    1710:	faa42e23          	sw	a0,-68(s0)
    1714:	fab42c23          	sw	a1,-72(s0)
    1718:	fac42a23          	sw	a2,-76(s0)
    171c:	fad42823          	sw	a3,-80(s0)
    1720:	fae42623          	sw	a4,-84(s0)
  int rc = -EINVAL;  
    1724:	fea00793          	li	a5,-22
    1728:	fcf42223          	sw	a5,-60(s0)
  int id = irq;             /* IRQ interpreted as the interrupt ID. */
    172c:	fb842783          	lw	a5,-72(s0)
    1730:	fcf42423          	sw	a5,-56(s0)
  alt_irq_context status;

  if (id < ALT_NIRQ)
    1734:	fc842703          	lw	a4,-56(s0)
    1738:	00f00793          	li	a5,15
    173c:	12e7c863          	blt	a5,a4,186c <alt_iic_isr_register+0x168>
    NIOSV_READ_AND_CLR_CSR(NIOSV_MSTATUS_CSR, context, NIOSV_MSTATUS_MIE_MASK);
    1740:	00800793          	li	a5,8
    1744:	3007b7f3          	csrrc	a5,mstatus,a5
    1748:	fcf42823          	sw	a5,-48(s0)
    return context;
    174c:	fd042783          	lw	a5,-48(s0)
     * interrupts are disabled while the handler tables are updated to ensure
     * that an interrupt doesn't occur while the tables are in an inconsistant
     * state.
     */

    status = alt_irq_disable_all();
    1750:	fcf42623          	sw	a5,-52(s0)

    alt_irq[id].handler = isr;
    1754:	000097b7          	lui	a5,0x9
    1758:	ebc78713          	add	a4,a5,-324 # 8ebc <alt_irq>
    175c:	fc842783          	lw	a5,-56(s0)
    1760:	00379793          	sll	a5,a5,0x3
    1764:	00f707b3          	add	a5,a4,a5
    1768:	fb442703          	lw	a4,-76(s0)
    176c:	00e7a023          	sw	a4,0(a5)
    alt_irq[id].context = isr_context;
    1770:	000097b7          	lui	a5,0x9
    1774:	ebc78713          	add	a4,a5,-324 # 8ebc <alt_irq>
    1778:	fc842783          	lw	a5,-56(s0)
    177c:	00379793          	sll	a5,a5,0x3
    1780:	00f707b3          	add	a5,a4,a5
    1784:	fb042703          	lw	a4,-80(s0)
    1788:	00e7a223          	sw	a4,4(a5)

    rc = (isr) ? alt_ic_irq_enable(ic_id, id) : alt_ic_irq_disable(ic_id, id);
    178c:	fb442783          	lw	a5,-76(s0)
    1790:	06078263          	beqz	a5,17f4 <alt_iic_isr_register+0xf0>
    1794:	fc842783          	lw	a5,-56(s0)
    1798:	fbc42703          	lw	a4,-68(s0)
    179c:	fce42a23          	sw	a4,-44(s0)
    17a0:	fcf42c23          	sw	a5,-40(s0)
    int rc = ALT_REMAP_IRQ_NUM(irq);
    17a4:	fd842703          	lw	a4,-40(s0)
    17a8:	00f00793          	li	a5,15
    17ac:	00e7e863          	bltu	a5,a4,17bc <alt_iic_isr_register+0xb8>
    17b0:	fd842783          	lw	a5,-40(s0)
    17b4:	01078793          	add	a5,a5,16
    17b8:	0080006f          	j	17c0 <alt_iic_isr_register+0xbc>
    17bc:	fff00793          	li	a5,-1
    17c0:	fcf42e23          	sw	a5,-36(s0)
    if (rc < 0)
    17c4:	fdc42783          	lw	a5,-36(s0)
    17c8:	0007d663          	bgez	a5,17d4 <alt_iic_isr_register+0xd0>
        return rc;
    17cc:	fdc42783          	lw	a5,-36(s0)
    17d0:	0800006f          	j	1850 <alt_iic_isr_register+0x14c>
        irq = (alt_u32)rc;
    17d4:	fdc42783          	lw	a5,-36(s0)
    17d8:	fcf42c23          	sw	a5,-40(s0)
    NIOSV_SET_CSR(NIOSV_MIE_CSR, 0x1 << irq);
    17dc:	fd842783          	lw	a5,-40(s0)
    17e0:	00100713          	li	a4,1
    17e4:	00f717b3          	sll	a5,a4,a5
    17e8:	3047a073          	csrs	mie,a5
    return 0;
    17ec:	00000793          	li	a5,0
    17f0:	0600006f          	j	1850 <alt_iic_isr_register+0x14c>
    17f4:	fc842783          	lw	a5,-56(s0)
    17f8:	fbc42703          	lw	a4,-68(s0)
    17fc:	fee42023          	sw	a4,-32(s0)
    1800:	fef42223          	sw	a5,-28(s0)
    int rc = ALT_REMAP_IRQ_NUM(irq);
    1804:	fe442703          	lw	a4,-28(s0)
    1808:	00f00793          	li	a5,15
    180c:	00e7e863          	bltu	a5,a4,181c <alt_iic_isr_register+0x118>
    1810:	fe442783          	lw	a5,-28(s0)
    1814:	01078793          	add	a5,a5,16
    1818:	0080006f          	j	1820 <alt_iic_isr_register+0x11c>
    181c:	fff00793          	li	a5,-1
    1820:	fef42423          	sw	a5,-24(s0)
    if (rc < 0)
    1824:	fe842783          	lw	a5,-24(s0)
    1828:	0007d663          	bgez	a5,1834 <alt_iic_isr_register+0x130>
        return rc;
    182c:	fe842783          	lw	a5,-24(s0)
    1830:	0200006f          	j	1850 <alt_iic_isr_register+0x14c>
        irq = (alt_u32)rc;
    1834:	fe842783          	lw	a5,-24(s0)
    1838:	fef42223          	sw	a5,-28(s0)
    NIOSV_CLR_CSR(NIOSV_MIE_CSR, 0x1 << irq);
    183c:	fe442783          	lw	a5,-28(s0)
    1840:	00100713          	li	a4,1
    1844:	00f717b3          	sll	a5,a4,a5
    1848:	3047b073          	csrc	mie,a5
    return 0;
    184c:	00000793          	li	a5,0
    1850:	fcf42223          	sw	a5,-60(s0)
    1854:	fcc42783          	lw	a5,-52(s0)
    1858:	fef42623          	sw	a5,-20(s0)
    NIOSV_SET_CSR(NIOSV_MSTATUS_CSR, context & NIOSV_MSTATUS_MIE_MASK);
    185c:	fec42783          	lw	a5,-20(s0)
    1860:	0087f793          	and	a5,a5,8
    1864:	3007a073          	csrs	mstatus,a5
}
    1868:	00000013          	nop

    alt_irq_enable_all(status);
  }

  return rc; 
    186c:	fc442783          	lw	a5,-60(s0)
}
    1870:	00078513          	mv	a0,a5
    1874:	05c12403          	lw	s0,92(sp)
    1878:	06010113          	add	sp,sp,96
    187c:	00008067          	ret

00001880 <alt_open_fd>:
 * If the device can not be succesfully opened, then the input file descriptor
 * remains unchanged.
 */

static void alt_open_fd(alt_fd* fd, const char* name, int flags, int mode)
{
    1880:	fd010113          	add	sp,sp,-48
    1884:	02112623          	sw	ra,44(sp)
    1888:	02812423          	sw	s0,40(sp)
    188c:	03010413          	add	s0,sp,48
    1890:	fca42e23          	sw	a0,-36(s0)
    1894:	fcb42c23          	sw	a1,-40(s0)
    1898:	fcc42a23          	sw	a2,-44(s0)
    189c:	fcd42823          	sw	a3,-48(s0)
  int old;

  old = open (name, flags, mode);
    18a0:	fd042603          	lw	a2,-48(s0)
    18a4:	fd442583          	lw	a1,-44(s0)
    18a8:	fd842503          	lw	a0,-40(s0)
    18ac:	7d4000ef          	jal	2080 <open>
    18b0:	fea42623          	sw	a0,-20(s0)

  if (old >= 0)
    18b4:	fec42783          	lw	a5,-20(s0)
    18b8:	0807c863          	bltz	a5,1948 <alt_open_fd+0xc8>
  {
    fd->dev      = alt_fd_list[old].dev;
    18bc:	000077b7          	lui	a5,0x7
    18c0:	fe078693          	add	a3,a5,-32 # 6fe0 <alt_fd_list>
    18c4:	fec42703          	lw	a4,-20(s0)
    18c8:	00070793          	mv	a5,a4
    18cc:	00179793          	sll	a5,a5,0x1
    18d0:	00e787b3          	add	a5,a5,a4
    18d4:	00279793          	sll	a5,a5,0x2
    18d8:	00f687b3          	add	a5,a3,a5
    18dc:	0007a703          	lw	a4,0(a5)
    18e0:	fdc42783          	lw	a5,-36(s0)
    18e4:	00e7a023          	sw	a4,0(a5)
    fd->priv     = alt_fd_list[old].priv;
    18e8:	000077b7          	lui	a5,0x7
    18ec:	fe078693          	add	a3,a5,-32 # 6fe0 <alt_fd_list>
    18f0:	fec42703          	lw	a4,-20(s0)
    18f4:	00070793          	mv	a5,a4
    18f8:	00179793          	sll	a5,a5,0x1
    18fc:	00e787b3          	add	a5,a5,a4
    1900:	00279793          	sll	a5,a5,0x2
    1904:	00f687b3          	add	a5,a3,a5
    1908:	0047a703          	lw	a4,4(a5)
    190c:	fdc42783          	lw	a5,-36(s0)
    1910:	00e7a223          	sw	a4,4(a5)
    fd->fd_flags = alt_fd_list[old].fd_flags;
    1914:	000077b7          	lui	a5,0x7
    1918:	fe078693          	add	a3,a5,-32 # 6fe0 <alt_fd_list>
    191c:	fec42703          	lw	a4,-20(s0)
    1920:	00070793          	mv	a5,a4
    1924:	00179793          	sll	a5,a5,0x1
    1928:	00e787b3          	add	a5,a5,a4
    192c:	00279793          	sll	a5,a5,0x2
    1930:	00f687b3          	add	a5,a3,a5
    1934:	0087a703          	lw	a4,8(a5)
    1938:	fdc42783          	lw	a5,-36(s0)
    193c:	00e7a423          	sw	a4,8(a5)

    alt_release_fd (old);
    1940:	fec42503          	lw	a0,-20(s0)
    1944:	114000ef          	jal	1a58 <alt_release_fd>
  }
} 
    1948:	00000013          	nop
    194c:	02c12083          	lw	ra,44(sp)
    1950:	02812403          	lw	s0,40(sp)
    1954:	03010113          	add	sp,sp,48
    1958:	00008067          	ret

0000195c <alt_io_redirect>:
 */
 
void alt_io_redirect(const char* stdout_dev, 
                     const char* stdin_dev, 
                     const char* stderr_dev)
{
    195c:	fe010113          	add	sp,sp,-32
    1960:	00112e23          	sw	ra,28(sp)
    1964:	00812c23          	sw	s0,24(sp)
    1968:	02010413          	add	s0,sp,32
    196c:	fea42623          	sw	a0,-20(s0)
    1970:	feb42423          	sw	a1,-24(s0)
    1974:	fec42223          	sw	a2,-28(s0)
  /* Redirect the channels */

  alt_open_fd (&alt_fd_list[STDOUT_FILENO], stdout_dev, O_WRONLY, 0777);
    1978:	1ff00693          	li	a3,511
    197c:	00100613          	li	a2,1
    1980:	fec42583          	lw	a1,-20(s0)
    1984:	000077b7          	lui	a5,0x7
    1988:	fec78513          	add	a0,a5,-20 # 6fec <alt_fd_list+0xc>
    198c:	ef5ff0ef          	jal	1880 <alt_open_fd>
  alt_open_fd (&alt_fd_list[STDIN_FILENO], stdin_dev, O_RDONLY, 0777);
    1990:	1ff00693          	li	a3,511
    1994:	00000613          	li	a2,0
    1998:	fe842583          	lw	a1,-24(s0)
    199c:	000077b7          	lui	a5,0x7
    19a0:	fe078513          	add	a0,a5,-32 # 6fe0 <alt_fd_list>
    19a4:	eddff0ef          	jal	1880 <alt_open_fd>
  alt_open_fd (&alt_fd_list[STDERR_FILENO], stderr_dev, O_WRONLY, 0777);
    19a8:	1ff00693          	li	a3,511
    19ac:	00100613          	li	a2,1
    19b0:	fe442583          	lw	a1,-28(s0)
    19b4:	000077b7          	lui	a5,0x7
    19b8:	ff878513          	add	a0,a5,-8 # 6ff8 <alt_fd_list+0x18>
    19bc:	ec5ff0ef          	jal	1880 <alt_open_fd>

#ifndef USE_PICOLIBC
  /* Allocate a stream buffer if it is not yet done.
   * And use no buffering mode by default.
   */
  if ((FILE *)stdin->_bf._base == NULL)
    19c0:	8201a783          	lw	a5,-2016(gp) # 76b4 <_impure_ptr>
    19c4:	0047a783          	lw	a5,4(a5)
    19c8:	0107a783          	lw	a5,16(a5)
    19cc:	02079063          	bnez	a5,19ec <alt_io_redirect+0x90>
  {
    setvbuf(stdin, NULL, _IONBF, 0);
    19d0:	8201a783          	lw	a5,-2016(gp) # 76b4 <_impure_ptr>
    19d4:	0047a783          	lw	a5,4(a5)
    19d8:	00000693          	li	a3,0
    19dc:	00200613          	li	a2,2
    19e0:	00000593          	li	a1,0
    19e4:	00078513          	mv	a0,a5
    19e8:	4a9000ef          	jal	2690 <setvbuf>
  }

  if ((FILE *)stdout->_bf._base == NULL)
    19ec:	8201a783          	lw	a5,-2016(gp) # 76b4 <_impure_ptr>
    19f0:	0087a783          	lw	a5,8(a5)
    19f4:	0107a783          	lw	a5,16(a5)
    19f8:	02079063          	bnez	a5,1a18 <alt_io_redirect+0xbc>
  {
    setvbuf(stdout, NULL, _IONBF, 0);
    19fc:	8201a783          	lw	a5,-2016(gp) # 76b4 <_impure_ptr>
    1a00:	0087a783          	lw	a5,8(a5)
    1a04:	00000693          	li	a3,0
    1a08:	00200613          	li	a2,2
    1a0c:	00000593          	li	a1,0
    1a10:	00078513          	mv	a0,a5
    1a14:	47d000ef          	jal	2690 <setvbuf>
  }

  if ((FILE *)stderr->_bf._base == NULL)
    1a18:	8201a783          	lw	a5,-2016(gp) # 76b4 <_impure_ptr>
    1a1c:	00c7a783          	lw	a5,12(a5)
    1a20:	0107a783          	lw	a5,16(a5)
    1a24:	02079063          	bnez	a5,1a44 <alt_io_redirect+0xe8>
  {
    setvbuf(stderr, NULL, _IONBF, 0);
    1a28:	8201a783          	lw	a5,-2016(gp) # 76b4 <_impure_ptr>
    1a2c:	00c7a783          	lw	a5,12(a5)
    1a30:	00000693          	li	a3,0
    1a34:	00200613          	li	a2,2
    1a38:	00000593          	li	a1,0
    1a3c:	00078513          	mv	a0,a5
    1a40:	451000ef          	jal	2690 <setvbuf>
  }
#endif
}  
    1a44:	00000013          	nop
    1a48:	01c12083          	lw	ra,28(sp)
    1a4c:	01812403          	lw	s0,24(sp)
    1a50:	02010113          	add	sp,sp,32
    1a54:	00008067          	ret

00001a58 <alt_release_fd>:
 * File descriptors correcponding to standard in, standard out and standard 
 * error cannont be released backed to the pool. They are always reserved.
 */

void alt_release_fd (int fd)
{
    1a58:	fe010113          	add	sp,sp,-32
    1a5c:	00812e23          	sw	s0,28(sp)
    1a60:	02010413          	add	s0,sp,32
    1a64:	fea42623          	sw	a0,-20(s0)
  if (fd > 2)
    1a68:	fec42703          	lw	a4,-20(s0)
    1a6c:	00200793          	li	a5,2
    1a70:	04e7d663          	bge	a5,a4,1abc <alt_release_fd+0x64>
  {
    alt_fd_list[fd].fd_flags = 0;
    1a74:	000077b7          	lui	a5,0x7
    1a78:	fe078693          	add	a3,a5,-32 # 6fe0 <alt_fd_list>
    1a7c:	fec42703          	lw	a4,-20(s0)
    1a80:	00070793          	mv	a5,a4
    1a84:	00179793          	sll	a5,a5,0x1
    1a88:	00e787b3          	add	a5,a5,a4
    1a8c:	00279793          	sll	a5,a5,0x2
    1a90:	00f687b3          	add	a5,a3,a5
    1a94:	0007a423          	sw	zero,8(a5)
    alt_fd_list[fd].dev      = 0;
    1a98:	000077b7          	lui	a5,0x7
    1a9c:	fe078693          	add	a3,a5,-32 # 6fe0 <alt_fd_list>
    1aa0:	fec42703          	lw	a4,-20(s0)
    1aa4:	00070793          	mv	a5,a4
    1aa8:	00179793          	sll	a5,a5,0x1
    1aac:	00e787b3          	add	a5,a5,a4
    1ab0:	00279793          	sll	a5,a5,0x2
    1ab4:	00f687b3          	add	a5,a3,a5
    1ab8:	0007a023          	sw	zero,0(a5)
  }
}
    1abc:	00000013          	nop
    1ac0:	01c12403          	lw	s0,28(sp)
    1ac4:	02010113          	add	sp,sp,32
    1ac8:	00008067          	ret

00001acc <alt_alarm_stop>:
 * alarms. Alternatively an alarm can unregister itself by returning zero when 
 * the alarm executes.
 */

void alt_alarm_stop (alt_alarm* alarm)
{
    1acc:	fd010113          	add	sp,sp,-48
    1ad0:	02812623          	sw	s0,44(sp)
    1ad4:	03010413          	add	s0,sp,48
    1ad8:	fca42e23          	sw	a0,-36(s0)
    NIOSV_READ_AND_CLR_CSR(NIOSV_MSTATUS_CSR, context, NIOSV_MSTATUS_MIE_MASK);
    1adc:	00800793          	li	a5,8
    1ae0:	3007b7f3          	csrrc	a5,mstatus,a5
    1ae4:	fef42623          	sw	a5,-20(s0)
    return context;
    1ae8:	fec42783          	lw	a5,-20(s0)
  alt_irq_context irq_context;

  irq_context = alt_irq_disable_all();
    1aec:	fef42023          	sw	a5,-32(s0)
  alt_llist_remove (&alarm->llist);
    1af0:	fdc42783          	lw	a5,-36(s0)
    1af4:	fef42423          	sw	a5,-24(s0)
 * input argument is the element to remove.
 */
     
static ALT_INLINE void ALT_ALWAYS_INLINE alt_llist_remove(alt_llist* entry)
{
  entry->next->previous = entry->previous;
    1af8:	fe842783          	lw	a5,-24(s0)
    1afc:	0007a783          	lw	a5,0(a5)
    1b00:	fe842703          	lw	a4,-24(s0)
    1b04:	00472703          	lw	a4,4(a4)
    1b08:	00e7a223          	sw	a4,4(a5)
  entry->previous->next = entry->next;
    1b0c:	fe842783          	lw	a5,-24(s0)
    1b10:	0047a783          	lw	a5,4(a5)
    1b14:	fe842703          	lw	a4,-24(s0)
    1b18:	00072703          	lw	a4,0(a4)
    1b1c:	00e7a023          	sw	a4,0(a5)
  /* 
   * Set the entry to point to itself, so that any further calls to
   * alt_llist_remove() are harmless.
   */

  entry->previous = entry;
    1b20:	fe842783          	lw	a5,-24(s0)
    1b24:	fe842703          	lw	a4,-24(s0)
    1b28:	00e7a223          	sw	a4,4(a5)
  entry->next     = entry;
    1b2c:	fe842783          	lw	a5,-24(s0)
    1b30:	fe842703          	lw	a4,-24(s0)
    1b34:	00e7a023          	sw	a4,0(a5)
} 
    1b38:	00000013          	nop
    1b3c:	fe042783          	lw	a5,-32(s0)
    1b40:	fef42223          	sw	a5,-28(s0)
    NIOSV_SET_CSR(NIOSV_MSTATUS_CSR, context & NIOSV_MSTATUS_MIE_MASK);
    1b44:	fe442783          	lw	a5,-28(s0)
    1b48:	0087f793          	and	a5,a5,8
    1b4c:	3007a073          	csrs	mstatus,a5
}
    1b50:	00000013          	nop
  alt_irq_enable_all (irq_context);
}
    1b54:	00000013          	nop
    1b58:	02c12403          	lw	s0,44(sp)
    1b5c:	03010113          	add	sp,sp,48
    1b60:	00008067          	ret

00001b64 <alt_tick>:
 * 
 * alt_tick() is expected to run at interrupt level.
 */

void alt_tick (void)
{
    1b64:	fe010113          	add	sp,sp,-32
    1b68:	00112e23          	sw	ra,28(sp)
    1b6c:	00812c23          	sw	s0,24(sp)
    1b70:	01212a23          	sw	s2,20(sp)
    1b74:	01312823          	sw	s3,16(sp)
    1b78:	02010413          	add	s0,sp,32
  alt_alarm* next;
  alt_alarm* alarm = (alt_alarm*) alt_alarm_list.next;
    1b7c:	81818793          	add	a5,gp,-2024 # 76ac <alt_alarm_list>
    1b80:	0007a783          	lw	a5,0(a5)
    1b84:	fef42223          	sw	a5,-28(s0)

  alt_u32    next_callback;

  /* update the tick counter */

  _alt_nticks++;
    1b88:	000097b7          	lui	a5,0x9
    1b8c:	e707a703          	lw	a4,-400(a5) # 8e70 <_alt_nticks>
    1b90:	e747a783          	lw	a5,-396(a5)
    1b94:	00100513          	li	a0,1
    1b98:	00000593          	li	a1,0
    1b9c:	00a70633          	add	a2,a4,a0
    1ba0:	00060813          	mv	a6,a2
    1ba4:	00e83833          	sltu	a6,a6,a4
    1ba8:	00b786b3          	add	a3,a5,a1
    1bac:	00d807b3          	add	a5,a6,a3
    1bb0:	00078693          	mv	a3,a5
    1bb4:	00060713          	mv	a4,a2
    1bb8:	00068793          	mv	a5,a3
    1bbc:	000096b7          	lui	a3,0x9
    1bc0:	e6e6a823          	sw	a4,-400(a3) # 8e70 <_alt_nticks>
    1bc4:	e6f6aa23          	sw	a5,-396(a3)
 
  /* process the registered callbacks */

  while (alarm != (alt_alarm*) &alt_alarm_list)
    1bc8:	0c80006f          	j	1c90 <alt_tick+0x12c>
  {
    next = (alt_alarm*) alarm->llist.next;
    1bcc:	fe442783          	lw	a5,-28(s0)
    1bd0:	0007a783          	lw	a5,0(a5)
    1bd4:	fef42423          	sw	a5,-24(s0)
    
    /* if the alarm period has expired, make the callback */    
    if (alarm->time <= _alt_nticks)
    1bd8:	fe442783          	lw	a5,-28(s0)
    1bdc:	0087a603          	lw	a2,8(a5)
    1be0:	00c7a683          	lw	a3,12(a5)
    1be4:	000097b7          	lui	a5,0x9
    1be8:	e707a703          	lw	a4,-400(a5) # 8e70 <_alt_nticks>
    1bec:	e747a783          	lw	a5,-396(a5)
    1bf0:	00068513          	mv	a0,a3
    1bf4:	00078593          	mv	a1,a5
    1bf8:	08a5e863          	bltu	a1,a0,1c88 <alt_tick+0x124>
    1bfc:	00068513          	mv	a0,a3
    1c00:	00078593          	mv	a1,a5
    1c04:	00b51863          	bne	a0,a1,1c14 <alt_tick+0xb0>
    1c08:	00060693          	mv	a3,a2
    1c0c:	00070793          	mv	a5,a4
    1c10:	06d7ec63          	bltu	a5,a3,1c88 <alt_tick+0x124>
    {
      next_callback = alarm->callback (alarm->context);
    1c14:	fe442783          	lw	a5,-28(s0)
    1c18:	0107a783          	lw	a5,16(a5)
    1c1c:	fe442703          	lw	a4,-28(s0)
    1c20:	01472703          	lw	a4,20(a4)
    1c24:	00070513          	mv	a0,a4
    1c28:	000780e7          	jalr	a5
    1c2c:	fea42623          	sw	a0,-20(s0)

      /* deactivate the alarm if the return value is zero */

      if (next_callback == 0)
    1c30:	fec42783          	lw	a5,-20(s0)
    1c34:	00079863          	bnez	a5,1c44 <alt_tick+0xe0>
      {
        alt_alarm_stop (alarm);
    1c38:	fe442503          	lw	a0,-28(s0)
    1c3c:	e91ff0ef          	jal	1acc <alt_alarm_stop>
    1c40:	0480006f          	j	1c88 <alt_tick+0x124>
      }
      else
      {
        alarm->time += next_callback;
    1c44:	fe442783          	lw	a5,-28(s0)
    1c48:	0087a703          	lw	a4,8(a5)
    1c4c:	00c7a783          	lw	a5,12(a5)
    1c50:	fec42683          	lw	a3,-20(s0)
    1c54:	00068913          	mv	s2,a3
    1c58:	00000993          	li	s3,0
    1c5c:	01270633          	add	a2,a4,s2
    1c60:	00060593          	mv	a1,a2
    1c64:	00e5b5b3          	sltu	a1,a1,a4
    1c68:	013786b3          	add	a3,a5,s3
    1c6c:	00d587b3          	add	a5,a1,a3
    1c70:	00078693          	mv	a3,a5
    1c74:	00060713          	mv	a4,a2
    1c78:	00068793          	mv	a5,a3
    1c7c:	fe442683          	lw	a3,-28(s0)
    1c80:	00e6a423          	sw	a4,8(a3)
    1c84:	00f6a623          	sw	a5,12(a3)
      }
    }
    alarm = next;
    1c88:	fe842783          	lw	a5,-24(s0)
    1c8c:	fef42223          	sw	a5,-28(s0)
  while (alarm != (alt_alarm*) &alt_alarm_list)
    1c90:	fe442703          	lw	a4,-28(s0)
    1c94:	81818793          	add	a5,gp,-2024 # 76ac <alt_alarm_list>
    1c98:	f2f71ae3          	bne	a4,a5,1bcc <alt_tick+0x68>

  /* 
   * Update the operating system specific timer facilities.
   */

  ALT_OS_TIME_TICK();
    1c9c:	00000013          	nop
}
    1ca0:	00000013          	nop
    1ca4:	01c12083          	lw	ra,28(sp)
    1ca8:	01812403          	lw	s0,24(sp)
    1cac:	01412903          	lw	s2,20(sp)
    1cb0:	01012983          	lw	s3,16(sp)
    1cb4:	02010113          	add	sp,sp,32
    1cb8:	00008067          	ret

00001cbc <intel_niosv_irq_init>:
/*
 * To initialize the internal interrupt controller, just clear the mie
 * register so that all possible IRQs are disabled.
 */
void intel_niosv_irq_init(void) 
{
    1cbc:	ff010113          	add	sp,sp,-16
    1cc0:	00812623          	sw	s0,12(sp)
    1cc4:	01010413          	add	s0,sp,16
#if ALT_HAS_IRQ_SUPPORT
    NIOSV_CLR_CSR(NIOSV_MIE_CSR, NIOSV_MIE_MASK);
    1cc8:	fff00793          	li	a5,-1
    1ccc:	3047b073          	csrc	mie,a5
    NIOSV_WRITE_CSR(NIOSV_MTVEC_CSR, (alt_u32) &VIC_VECTOR_TABLE | ALT_CPU_INT_MODE_VIC);
#endif /* ALT_CPU_INT_MODE == ALT_CPU_INT_MODE_VIC */
#endif /* ALT_CPU_INT_MODE */

#endif
}
    1cd0:	00000013          	nop
    1cd4:	00c12403          	lw	s0,12(sp)
    1cd8:	01010113          	add	sp,sp,16
    1cdc:	00008067          	ret

00001ce0 <alt_timestamp_start>:
#define INTEL_NIOSV_TIMER_DEVICE_TYPE 2

#if (ALT_TIMESTAMP_CLK_TIMER_DEVICE_TYPE == INTEL_NIOSV_TIMER_DEVICE_TYPE)
alt_u64 alt_niosv_timestamp_offset = 0;

int alt_timestamp_start() {
    1ce0:	ff010113          	add	sp,sp,-16
    1ce4:	00112623          	sw	ra,12(sp)
    1ce8:	00812423          	sw	s0,8(sp)
    1cec:	01010413          	add	s0,sp,16
void alt_niosv_timer_sc_isr(alt_u32 cause, alt_u32 epc, alt_u32 tval);

extern alt_u64 alt_niosv_timestamp_offset;

static ALT_INLINE int ALT_ALWAYS_INLINE alt_niosv_timer_timestamp_start() {
    alt_niosv_timestamp_offset = alt_niosv_mtime_get();
    1cf0:	0ac000ef          	jal	1d9c <alt_niosv_mtime_get>
    1cf4:	00050713          	mv	a4,a0
    1cf8:	00058793          	mv	a5,a1
    1cfc:	000096b7          	lui	a3,0x9
    1d00:	e6e6ac23          	sw	a4,-392(a3) # 8e78 <alt_niosv_timestamp_offset>
    1d04:	e6f6ae23          	sw	a5,-388(a3)
    return 0;
    1d08:	00000793          	li	a5,0
    return alt_niosv_timer_timestamp_start();
}
    1d0c:	00078513          	mv	a0,a5
    1d10:	00c12083          	lw	ra,12(sp)
    1d14:	00812403          	lw	s0,8(sp)
    1d18:	01010113          	add	sp,sp,16
    1d1c:	00008067          	ret

00001d20 <alt_timestamp>:

alt_timestamp_type alt_timestamp() {
    1d20:	ff010113          	add	sp,sp,-16
    1d24:	00112623          	sw	ra,12(sp)
    1d28:	00812423          	sw	s0,8(sp)
    1d2c:	01010413          	add	s0,sp,16
}

static ALT_INLINE alt_u64 ALT_ALWAYS_INLINE alt_niosv_timer_timestamp() {
    return alt_niosv_mtime_get() - alt_niosv_timestamp_offset;
    1d30:	06c000ef          	jal	1d9c <alt_niosv_mtime_get>
    1d34:	00050613          	mv	a2,a0
    1d38:	00058693          	mv	a3,a1
    1d3c:	000097b7          	lui	a5,0x9
    1d40:	e787a503          	lw	a0,-392(a5) # 8e78 <alt_niosv_timestamp_offset>
    1d44:	e7c7a583          	lw	a1,-388(a5)
    1d48:	40a60733          	sub	a4,a2,a0
    1d4c:	00070813          	mv	a6,a4
    1d50:	01063833          	sltu	a6,a2,a6
    1d54:	40b687b3          	sub	a5,a3,a1
    1d58:	410786b3          	sub	a3,a5,a6
    1d5c:	00068793          	mv	a5,a3
    return alt_niosv_timer_timestamp();
}
    1d60:	00070513          	mv	a0,a4
    1d64:	00078593          	mv	a1,a5
    1d68:	00c12083          	lw	ra,12(sp)
    1d6c:	00812403          	lw	s0,8(sp)
    1d70:	01010113          	add	sp,sp,16
    1d74:	00008067          	ret

00001d78 <alt_timestamp_freq>:

alt_u32 alt_timestamp_freq() {
    1d78:	ff010113          	add	sp,sp,-16
    1d7c:	00812623          	sw	s0,12(sp)
    1d80:	01010413          	add	s0,sp,16
}

static ALT_INLINE alt_u32 ALT_ALWAYS_INLINE alt_niosv_timer_timestamp_freq() {
    return ALT_CPU_CPU_FREQ;
    1d84:	02faf7b7          	lui	a5,0x2faf
    1d88:	08078793          	add	a5,a5,128 # 2faf080 <__alt_data_end+0x2f91080>
    return alt_niosv_timer_timestamp_freq();
}
    1d8c:	00078513          	mv	a0,a5
    1d90:	00c12403          	lw	s0,12(sp)
    1d94:	01010113          	add	sp,sp,16
    1d98:	00008067          	ret

00001d9c <alt_niosv_mtime_get>:
#endif

alt_u64 alt_niosv_mtime_get() {
    1d9c:	fe010113          	add	sp,sp,-32
    1da0:	00812e23          	sw	s0,28(sp)
    1da4:	02010413          	add	s0,sp,32
    alt_u32 lowbits;
    alt_u32 highbits;

    // Guard against rollover while acquiring each word
    do {
        highbits = ALT_VOLATILE_ACCESS((alt_u32 *)(NIOSV_MTIME_ADDR + 4));
    1da8:	00030337          	lui	t1,0x30
    1dac:	08430313          	add	t1,t1,132 # 30084 <__alt_data_end+0x12084>
    1db0:	00032303          	lw	t1,0(t1)
    1db4:	fe642423          	sw	t1,-24(s0)
        lowbits = ALT_VOLATILE_ACCESS((alt_u32 *)NIOSV_MTIME_ADDR);
    1db8:	00030337          	lui	t1,0x30
    1dbc:	08030313          	add	t1,t1,128 # 30080 <__alt_data_end+0x12080>
    1dc0:	00032303          	lw	t1,0(t1)
    1dc4:	fe642623          	sw	t1,-20(s0)
    } while (ALT_VOLATILE_ACCESS((alt_u32 *)(NIOSV_MTIME_ADDR + 4)) != highbits);
    1dc8:	00030337          	lui	t1,0x30
    1dcc:	08430313          	add	t1,t1,132 # 30084 <__alt_data_end+0x12084>
    1dd0:	00032303          	lw	t1,0(t1)
    1dd4:	fe842e03          	lw	t3,-24(s0)
    1dd8:	fc6e18e3          	bne	t3,t1,1da8 <alt_niosv_mtime_get+0xc>

    return (((alt_u64)highbits) << 32) | lowbits;
    1ddc:	fe842303          	lw	t1,-24(s0)
    1de0:	00030813          	mv	a6,t1
    1de4:	00000893          	li	a7,0
    1de8:	00081793          	sll	a5,a6,0x0
    1dec:	00000713          	li	a4,0
    1df0:	fec42803          	lw	a6,-20(s0)
    1df4:	00080613          	mv	a2,a6
    1df8:	00000693          	li	a3,0
    1dfc:	00c76533          	or	a0,a4,a2
    1e00:	00d7e5b3          	or	a1,a5,a3
    1e04:	00050713          	mv	a4,a0
    1e08:	00058793          	mv	a5,a1
}
    1e0c:	00070513          	mv	a0,a4
    1e10:	00078593          	mv	a1,a5
    1e14:	01c12403          	lw	s0,28(sp)
    1e18:	02010113          	add	sp,sp,32
    1e1c:	00008067          	ret

00001e20 <alt_niosv_mtimecmp_set>:

void alt_niosv_mtimecmp_set(alt_u64 time) {
    1e20:	fd010113          	add	sp,sp,-48
    1e24:	02812623          	sw	s0,44(sp)
    1e28:	03010413          	add	s0,sp,48
    1e2c:	fca42c23          	sw	a0,-40(s0)
    1e30:	fcb42e23          	sw	a1,-36(s0)
    NIOSV_READ_CSR(NIOSV_MHARTID_CSR, mhartid_val);
    1e34:	f14026f3          	csrr	a3,mhartid
    1e38:	fed42623          	sw	a3,-20(s0)
    return mhartid_val;
    1e3c:	fec42603          	lw	a2,-20(s0)
    return (alt_u32 *)(NIOSV_MTIMECMP_ADDR + (8 * alt_niosv_read_mhartid()));
    1e40:	000066b7          	lui	a3,0x6
    1e44:	01168693          	add	a3,a3,17 # 6011 <JTAG_UART+0xb9>
    1e48:	00d606b3          	add	a3,a2,a3
    1e4c:	00369693          	sll	a3,a3,0x3
    volatile alt_u32 *const mtimecmp_addr = alt_niosv_get_mtimecmp_addr();
    1e50:	fed42423          	sw	a3,-24(s0)

    // Make sure to set the high word to a max value first to prevent triggering inadvertently
    ALT_VOLATILE_ACCESS((alt_u32 *)(mtimecmp_addr + 1)) = 0xFFFFFFFF;
    1e54:	fe842683          	lw	a3,-24(s0)
    1e58:	00468693          	add	a3,a3,4
    1e5c:	fff00613          	li	a2,-1
    1e60:	00c6a023          	sw	a2,0(a3)
    ALT_VOLATILE_ACCESS(mtimecmp_addr) = (alt_u32)time;
    1e64:	fd842603          	lw	a2,-40(s0)
    1e68:	fe842683          	lw	a3,-24(s0)
    1e6c:	00c6a023          	sw	a2,0(a3)
    ALT_VOLATILE_ACCESS((alt_u32 *)(mtimecmp_addr + 1)) = (alt_u32)(time >> 32);
    1e70:	fdc42683          	lw	a3,-36(s0)
    1e74:	0006d713          	srl	a4,a3,0x0
    1e78:	00000793          	li	a5,0
    1e7c:	fe842683          	lw	a3,-24(s0)
    1e80:	00468693          	add	a3,a3,4
    1e84:	00070793          	mv	a5,a4
    1e88:	00f6a023          	sw	a5,0(a3)
}
    1e8c:	00000013          	nop
    1e90:	02c12403          	lw	s0,44(sp)
    1e94:	03010113          	add	sp,sp,48
    1e98:	00008067          	ret

00001e9c <alt_niosv_mtimecmp_get>:

alt_u64 alt_niosv_mtimecmp_get() {
    1e9c:	fe010113          	add	sp,sp,-32
    1ea0:	00812e23          	sw	s0,28(sp)
    1ea4:	02010413          	add	s0,sp,32
    NIOSV_READ_CSR(NIOSV_MHARTID_CSR, mhartid_val);
    1ea8:	f1402373          	csrr	t1,mhartid
    1eac:	fe642623          	sw	t1,-20(s0)
    return mhartid_val;
    1eb0:	fec42e03          	lw	t3,-20(s0)
    return (alt_u32 *)(NIOSV_MTIMECMP_ADDR + (8 * alt_niosv_read_mhartid()));
    1eb4:	00006337          	lui	t1,0x6
    1eb8:	01130313          	add	t1,t1,17 # 6011 <JTAG_UART+0xb9>
    1ebc:	006e0333          	add	t1,t3,t1
    1ec0:	00331313          	sll	t1,t1,0x3
    volatile alt_u32 *const mtimecmp_addr = alt_niosv_get_mtimecmp_addr();
    1ec4:	fe642023          	sw	t1,-32(s0)

    alt_u32 lowbits = ALT_VOLATILE_ACCESS(mtimecmp_addr);
    1ec8:	fe042303          	lw	t1,-32(s0)
    1ecc:	00032303          	lw	t1,0(t1)
    1ed0:	fe642223          	sw	t1,-28(s0)
    alt_u32 highbits = ALT_VOLATILE_ACCESS((alt_u32 *)(mtimecmp_addr + 1));
    1ed4:	fe042303          	lw	t1,-32(s0)
    1ed8:	00430313          	add	t1,t1,4
    1edc:	00032303          	lw	t1,0(t1)
    1ee0:	fe642423          	sw	t1,-24(s0)
    return (((alt_u64)highbits) << 32) | lowbits;
    1ee4:	fe842303          	lw	t1,-24(s0)
    1ee8:	00030813          	mv	a6,t1
    1eec:	00000893          	li	a7,0
    1ef0:	00081793          	sll	a5,a6,0x0
    1ef4:	00000713          	li	a4,0
    1ef8:	fe442803          	lw	a6,-28(s0)
    1efc:	00080613          	mv	a2,a6
    1f00:	00000693          	li	a3,0
    1f04:	00c76533          	or	a0,a4,a2
    1f08:	00d7e5b3          	or	a1,a5,a3
    1f0c:	00050713          	mv	a4,a0
    1f10:	00058793          	mv	a5,a1
}
    1f14:	00070513          	mv	a0,a4
    1f18:	00078593          	mv	a1,a5
    1f1c:	01c12403          	lw	s0,28(sp)
    1f20:	02010113          	add	sp,sp,32
    1f24:	00008067          	ret

00001f28 <alt_niosv_timer_sc_isr>:
// Let's the OS port handles the machine timer configuration and interrupt if
// the OS port has it (ex: FreeRTOS).
void alt_niosv_timer_sc_isr(alt_u32 cause, alt_u32 epc, alt_u32 tval) {}
void alt_niosv_mtimecmp_interrupt_init() {}
#else
void alt_niosv_timer_sc_isr(alt_u32 cause, alt_u32 epc, alt_u32 tval) {
    1f28:	fc010113          	add	sp,sp,-64
    1f2c:	02112e23          	sw	ra,60(sp)
    1f30:	02812c23          	sw	s0,56(sp)
    1f34:	04010413          	add	s0,sp,64
    1f38:	fca42623          	sw	a0,-52(s0)
    1f3c:	fcb42423          	sw	a1,-56(s0)
    1f40:	fcc42223          	sw	a2,-60(s0)
    // Schedule the next interrupt.  This is done first since who knows how long
    // the following code takes, and the contract is ticks per second, irrespective
    // of how long a given clock tick may take.

    alt_u64 curr_time = alt_niosv_mtime_get();
    1f44:	e59ff0ef          	jal	1d9c <alt_niosv_mtime_get>
    1f48:	fea42423          	sw	a0,-24(s0)
    1f4c:	feb42623          	sw	a1,-20(s0)
    alt_niosv_mtimecmp_set(curr_time + MTIMECMP_DELTA_AMT);
    1f50:	fe842703          	lw	a4,-24(s0)
    1f54:	fec42783          	lw	a5,-20(s0)
    1f58:	0000c537          	lui	a0,0xc
    1f5c:	35050513          	add	a0,a0,848 # c350 <__alt_heap_start+0x3124>
    1f60:	00000593          	li	a1,0
    1f64:	00a70633          	add	a2,a4,a0
    1f68:	00060813          	mv	a6,a2
    1f6c:	00e83833          	sltu	a6,a6,a4
    1f70:	00b786b3          	add	a3,a5,a1
    1f74:	00d807b3          	add	a5,a6,a3
    1f78:	00078693          	mv	a3,a5
    1f7c:	00060713          	mv	a4,a2
    1f80:	00068793          	mv	a5,a3
    1f84:	00070513          	mv	a0,a4
    1f88:	00078593          	mv	a1,a5
    1f8c:	e95ff0ef          	jal	1e20 <alt_niosv_mtimecmp_set>
    NIOSV_READ_AND_CLR_CSR(NIOSV_MSTATUS_CSR, context, NIOSV_MSTATUS_MIE_MASK);
    1f90:	00800793          	li	a5,8
    1f94:	3007b7f3          	csrrc	a5,mstatus,a5
    1f98:	fef42223          	sw	a5,-28(s0)
    return context;
    1f9c:	fe442783          	lw	a5,-28(s0)

    /* 
    * Notify the system of a clock tick. disable interrupts 
    * during this time to safely support ISR preemption
    */
    alt_irq_context cpu_sr = alt_irq_disable_all();
    1fa0:	fcf42e23          	sw	a5,-36(s0)
    alt_tick();
    1fa4:	bc1ff0ef          	jal	1b64 <alt_tick>
    1fa8:	fdc42783          	lw	a5,-36(s0)
    1fac:	fef42023          	sw	a5,-32(s0)
    NIOSV_SET_CSR(NIOSV_MSTATUS_CSR, context & NIOSV_MSTATUS_MIE_MASK);
    1fb0:	fe042783          	lw	a5,-32(s0)
    1fb4:	0087f793          	and	a5,a5,8
    1fb8:	3007a073          	csrs	mstatus,a5
}
    1fbc:	00000013          	nop
    alt_irq_enable_all(cpu_sr);
}
    1fc0:	00000013          	nop
    1fc4:	03c12083          	lw	ra,60(sp)
    1fc8:	03812403          	lw	s0,56(sp)
    1fcc:	04010113          	add	sp,sp,64
    1fd0:	00008067          	ret

00001fd4 <alt_niosv_mtimecmp_interrupt_init>:

void alt_niosv_mtimecmp_interrupt_init() {
    1fd4:	fe010113          	add	sp,sp,-32
    1fd8:	00112e23          	sw	ra,28(sp)
    1fdc:	00812c23          	sw	s0,24(sp)
    1fe0:	02010413          	add	s0,sp,32
    alt_u64 curr_time = alt_niosv_mtime_get();
    1fe4:	db9ff0ef          	jal	1d9c <alt_niosv_mtime_get>
    1fe8:	fea42423          	sw	a0,-24(s0)
    1fec:	feb42623          	sw	a1,-20(s0)
    alt_niosv_mtimecmp_set(curr_time + MTIMECMP_DELTA_AMT);
    1ff0:	fe842703          	lw	a4,-24(s0)
    1ff4:	fec42783          	lw	a5,-20(s0)
    1ff8:	0000c537          	lui	a0,0xc
    1ffc:	35050513          	add	a0,a0,848 # c350 <__alt_heap_start+0x3124>
    2000:	00000593          	li	a1,0
    2004:	00a70633          	add	a2,a4,a0
    2008:	00060813          	mv	a6,a2
    200c:	00e83833          	sltu	a6,a6,a4
    2010:	00b786b3          	add	a3,a5,a1
    2014:	00d807b3          	add	a5,a6,a3
    2018:	00078693          	mv	a3,a5
    201c:	00060713          	mv	a4,a2
    2020:	00068793          	mv	a5,a3
    2024:	00070513          	mv	a0,a4
    2028:	00078593          	mv	a1,a5
    202c:	df5ff0ef          	jal	1e20 <alt_niosv_mtimecmp_set>
    NIOSV_SET_CSR(NIOSV_MIE_CSR, (0x1 << NIOSV_TIMER_IRQ));
    2030:	08000793          	li	a5,128
    2034:	3047a073          	csrs	mie,a5
}
    2038:	00000013          	nop
    alt_niosv_enable_timer_interrupt();
}
    203c:	00000013          	nop
    2040:	01c12083          	lw	ra,28(sp)
    2044:	01812403          	lw	s0,24(sp)
    2048:	02010113          	add	sp,sp,32
    204c:	00008067          	ret

00002050 <exit>:
    2050:	ff010113          	add	sp,sp,-16
    2054:	00000593          	li	a1,0
    2058:	00812423          	sw	s0,8(sp)
    205c:	00112623          	sw	ra,12(sp)
    2060:	00050413          	mv	s0,a0
    2064:	33c010ef          	jal	33a0 <__call_exitprocs>
    2068:	00007797          	auipc	a5,0x7
    206c:	e1c7a783          	lw	a5,-484(a5) # 8e84 <__stdio_exit_handler>
    2070:	00078463          	beqz	a5,2078 <exit+0x28>
    2074:	000780e7          	jalr	a5
    2078:	00040513          	mv	a0,s0
    207c:	15d020ef          	jal	49d8 <_exit>

00002080 <open>:
    2080:	fc010113          	add	sp,sp,-64
    2084:	02c12423          	sw	a2,40(sp)
    2088:	02d12623          	sw	a3,44(sp)
    208c:	02f12a23          	sw	a5,52(sp)
    2090:	00060693          	mv	a3,a2
    2094:	02810793          	add	a5,sp,40
    2098:	00058613          	mv	a2,a1
    209c:	00050593          	mv	a1,a0
    20a0:	8201a503          	lw	a0,-2016(gp) # 76b4 <_impure_ptr>
    20a4:	00112e23          	sw	ra,28(sp)
    20a8:	02e12823          	sw	a4,48(sp)
    20ac:	03012c23          	sw	a6,56(sp)
    20b0:	03112e23          	sw	a7,60(sp)
    20b4:	00f12623          	sw	a5,12(sp)
    20b8:	071000ef          	jal	2928 <_open_r>
    20bc:	01c12083          	lw	ra,28(sp)
    20c0:	04010113          	add	sp,sp,64
    20c4:	00008067          	ret

000020c8 <_reclaim_reent>:
    20c8:	8201a783          	lw	a5,-2016(gp) # 76b4 <_impure_ptr>
    20cc:	0ca78e63          	beq	a5,a0,21a8 <_reclaim_reent+0xe0>
    20d0:	04452583          	lw	a1,68(a0)
    20d4:	fe010113          	add	sp,sp,-32
    20d8:	00912a23          	sw	s1,20(sp)
    20dc:	00112e23          	sw	ra,28(sp)
    20e0:	00812c23          	sw	s0,24(sp)
    20e4:	00050493          	mv	s1,a0
    20e8:	04058863          	beqz	a1,2138 <_reclaim_reent+0x70>
    20ec:	01212823          	sw	s2,16(sp)
    20f0:	01312623          	sw	s3,12(sp)
    20f4:	00000913          	li	s2,0
    20f8:	08000993          	li	s3,128
    20fc:	012587b3          	add	a5,a1,s2
    2100:	0007a403          	lw	s0,0(a5)
    2104:	00040e63          	beqz	s0,2120 <_reclaim_reent+0x58>
    2108:	00040593          	mv	a1,s0
    210c:	00042403          	lw	s0,0(s0)
    2110:	00048513          	mv	a0,s1
    2114:	525010ef          	jal	3e38 <_free_r>
    2118:	fe0418e3          	bnez	s0,2108 <_reclaim_reent+0x40>
    211c:	0444a583          	lw	a1,68(s1)
    2120:	00490913          	add	s2,s2,4
    2124:	fd391ce3          	bne	s2,s3,20fc <_reclaim_reent+0x34>
    2128:	00048513          	mv	a0,s1
    212c:	50d010ef          	jal	3e38 <_free_r>
    2130:	01012903          	lw	s2,16(sp)
    2134:	00c12983          	lw	s3,12(sp)
    2138:	0384a583          	lw	a1,56(s1)
    213c:	00058663          	beqz	a1,2148 <_reclaim_reent+0x80>
    2140:	00048513          	mv	a0,s1
    2144:	4f5010ef          	jal	3e38 <_free_r>
    2148:	0404a403          	lw	s0,64(s1)
    214c:	00040c63          	beqz	s0,2164 <_reclaim_reent+0x9c>
    2150:	00040593          	mv	a1,s0
    2154:	00042403          	lw	s0,0(s0)
    2158:	00048513          	mv	a0,s1
    215c:	4dd010ef          	jal	3e38 <_free_r>
    2160:	fe0418e3          	bnez	s0,2150 <_reclaim_reent+0x88>
    2164:	04c4a583          	lw	a1,76(s1)
    2168:	00058663          	beqz	a1,2174 <_reclaim_reent+0xac>
    216c:	00048513          	mv	a0,s1
    2170:	4c9010ef          	jal	3e38 <_free_r>
    2174:	0344a783          	lw	a5,52(s1)
    2178:	00078e63          	beqz	a5,2194 <_reclaim_reent+0xcc>
    217c:	01812403          	lw	s0,24(sp)
    2180:	01c12083          	lw	ra,28(sp)
    2184:	00048513          	mv	a0,s1
    2188:	01412483          	lw	s1,20(sp)
    218c:	02010113          	add	sp,sp,32
    2190:	00078067          	jr	a5
    2194:	01c12083          	lw	ra,28(sp)
    2198:	01812403          	lw	s0,24(sp)
    219c:	01412483          	lw	s1,20(sp)
    21a0:	02010113          	add	sp,sp,32
    21a4:	00008067          	ret
    21a8:	00008067          	ret

000021ac <stdio_exit_handler>:
    21ac:	00005617          	auipc	a2,0x5
    21b0:	0d460613          	add	a2,a2,212 # 7280 <__sglue>
    21b4:	00001597          	auipc	a1,0x1
    21b8:	74858593          	add	a1,a1,1864 # 38fc <_fclose_r>
    21bc:	00005517          	auipc	a0,0x5
    21c0:	fa450513          	add	a0,a0,-92 # 7160 <_impure_data>
    21c4:	7c80006f          	j	298c <_fwalk_sglue>

000021c8 <cleanup_stdio>:
    21c8:	00452583          	lw	a1,4(a0)
    21cc:	ff010113          	add	sp,sp,-16
    21d0:	00812423          	sw	s0,8(sp)
    21d4:	00112623          	sw	ra,12(sp)
    21d8:	00007797          	auipc	a5,0x7
    21dc:	d6478793          	add	a5,a5,-668 # 8f3c <__sf>
    21e0:	00050413          	mv	s0,a0
    21e4:	00f58463          	beq	a1,a5,21ec <cleanup_stdio+0x24>
    21e8:	714010ef          	jal	38fc <_fclose_r>
    21ec:	00842583          	lw	a1,8(s0)
    21f0:	00007797          	auipc	a5,0x7
    21f4:	db478793          	add	a5,a5,-588 # 8fa4 <__sf+0x68>
    21f8:	00f58663          	beq	a1,a5,2204 <cleanup_stdio+0x3c>
    21fc:	00040513          	mv	a0,s0
    2200:	6fc010ef          	jal	38fc <_fclose_r>
    2204:	00c42583          	lw	a1,12(s0)
    2208:	00007797          	auipc	a5,0x7
    220c:	e0478793          	add	a5,a5,-508 # 900c <__sf+0xd0>
    2210:	00f58c63          	beq	a1,a5,2228 <cleanup_stdio+0x60>
    2214:	00040513          	mv	a0,s0
    2218:	00812403          	lw	s0,8(sp)
    221c:	00c12083          	lw	ra,12(sp)
    2220:	01010113          	add	sp,sp,16
    2224:	6d80106f          	j	38fc <_fclose_r>
    2228:	00c12083          	lw	ra,12(sp)
    222c:	00812403          	lw	s0,8(sp)
    2230:	01010113          	add	sp,sp,16
    2234:	00008067          	ret

00002238 <__fp_lock>:
    2238:	0645a783          	lw	a5,100(a1)
    223c:	0017f793          	and	a5,a5,1
    2240:	00079863          	bnez	a5,2250 <__fp_lock+0x18>
    2244:	00c5d783          	lhu	a5,12(a1)
    2248:	2007f793          	and	a5,a5,512
    224c:	00078663          	beqz	a5,2258 <__fp_lock+0x20>
    2250:	00000513          	li	a0,0
    2254:	00008067          	ret
    2258:	0585a503          	lw	a0,88(a1)
    225c:	ff010113          	add	sp,sp,-16
    2260:	00112623          	sw	ra,12(sp)
    2264:	670010ef          	jal	38d4 <__retarget_lock_acquire_recursive>
    2268:	00c12083          	lw	ra,12(sp)
    226c:	00000513          	li	a0,0
    2270:	01010113          	add	sp,sp,16
    2274:	00008067          	ret

00002278 <__fp_unlock>:
    2278:	0645a783          	lw	a5,100(a1)
    227c:	0017f793          	and	a5,a5,1
    2280:	00079863          	bnez	a5,2290 <__fp_unlock+0x18>
    2284:	00c5d783          	lhu	a5,12(a1)
    2288:	2007f793          	and	a5,a5,512
    228c:	00078663          	beqz	a5,2298 <__fp_unlock+0x20>
    2290:	00000513          	li	a0,0
    2294:	00008067          	ret
    2298:	0585a503          	lw	a0,88(a1)
    229c:	ff010113          	add	sp,sp,-16
    22a0:	00112623          	sw	ra,12(sp)
    22a4:	648010ef          	jal	38ec <__retarget_lock_release_recursive>
    22a8:	00c12083          	lw	ra,12(sp)
    22ac:	00000513          	li	a0,0
    22b0:	01010113          	add	sp,sp,16
    22b4:	00008067          	ret

000022b8 <global_stdio_init.part.0>:
    22b8:	fe010113          	add	sp,sp,-32
    22bc:	00000797          	auipc	a5,0x0
    22c0:	ef078793          	add	a5,a5,-272 # 21ac <stdio_exit_handler>
    22c4:	00112e23          	sw	ra,28(sp)
    22c8:	00812c23          	sw	s0,24(sp)
    22cc:	00912a23          	sw	s1,20(sp)
    22d0:	00007417          	auipc	s0,0x7
    22d4:	c6c40413          	add	s0,s0,-916 # 8f3c <__sf>
    22d8:	01212823          	sw	s2,16(sp)
    22dc:	01312623          	sw	s3,12(sp)
    22e0:	01412423          	sw	s4,8(sp)
    22e4:	00800613          	li	a2,8
    22e8:	00000593          	li	a1,0
    22ec:	00007717          	auipc	a4,0x7
    22f0:	b8f72c23          	sw	a5,-1128(a4) # 8e84 <__stdio_exit_handler>
    22f4:	00007517          	auipc	a0,0x7
    22f8:	ca450513          	add	a0,a0,-860 # 8f98 <__sf+0x5c>
    22fc:	00400793          	li	a5,4
    2300:	00f42623          	sw	a5,12(s0)
    2304:	00042023          	sw	zero,0(s0)
    2308:	00042223          	sw	zero,4(s0)
    230c:	00042423          	sw	zero,8(s0)
    2310:	06042223          	sw	zero,100(s0)
    2314:	00042823          	sw	zero,16(s0)
    2318:	00042a23          	sw	zero,20(s0)
    231c:	00042c23          	sw	zero,24(s0)
    2320:	758010ef          	jal	3a78 <memset>
    2324:	00000a17          	auipc	s4,0x0
    2328:	71ca0a13          	add	s4,s4,1820 # 2a40 <__sread>
    232c:	00000997          	auipc	s3,0x0
    2330:	77898993          	add	s3,s3,1912 # 2aa4 <__swrite>
    2334:	00000917          	auipc	s2,0x0
    2338:	7f890913          	add	s2,s2,2040 # 2b2c <__sseek>
    233c:	00001497          	auipc	s1,0x1
    2340:	86848493          	add	s1,s1,-1944 # 2ba4 <__sclose>
    2344:	00007517          	auipc	a0,0x7
    2348:	c5050513          	add	a0,a0,-944 # 8f94 <__sf+0x58>
    234c:	03442023          	sw	s4,32(s0)
    2350:	03342223          	sw	s3,36(s0)
    2354:	03242423          	sw	s2,40(s0)
    2358:	02942623          	sw	s1,44(s0)
    235c:	00842e23          	sw	s0,28(s0)
    2360:	564010ef          	jal	38c4 <__retarget_lock_init_recursive>
    2364:	000107b7          	lui	a5,0x10
    2368:	00878793          	add	a5,a5,8 # 10008 <__alt_heap_start+0x6ddc>
    236c:	00800613          	li	a2,8
    2370:	00000593          	li	a1,0
    2374:	00007517          	auipc	a0,0x7
    2378:	c8c50513          	add	a0,a0,-884 # 9000 <__sf+0xc4>
    237c:	06f42a23          	sw	a5,116(s0)
    2380:	06042423          	sw	zero,104(s0)
    2384:	06042623          	sw	zero,108(s0)
    2388:	06042823          	sw	zero,112(s0)
    238c:	0c042623          	sw	zero,204(s0)
    2390:	06042c23          	sw	zero,120(s0)
    2394:	06042e23          	sw	zero,124(s0)
    2398:	08042023          	sw	zero,128(s0)
    239c:	6dc010ef          	jal	3a78 <memset>
    23a0:	00007797          	auipc	a5,0x7
    23a4:	c0478793          	add	a5,a5,-1020 # 8fa4 <__sf+0x68>
    23a8:	00007517          	auipc	a0,0x7
    23ac:	c5450513          	add	a0,a0,-940 # 8ffc <__sf+0xc0>
    23b0:	08f42223          	sw	a5,132(s0)
    23b4:	09442423          	sw	s4,136(s0)
    23b8:	09342623          	sw	s3,140(s0)
    23bc:	09242823          	sw	s2,144(s0)
    23c0:	08942a23          	sw	s1,148(s0)
    23c4:	500010ef          	jal	38c4 <__retarget_lock_init_recursive>
    23c8:	000207b7          	lui	a5,0x20
    23cc:	01278793          	add	a5,a5,18 # 20012 <__alt_data_end+0x2012>
    23d0:	00800613          	li	a2,8
    23d4:	00000593          	li	a1,0
    23d8:	00007517          	auipc	a0,0x7
    23dc:	c9050513          	add	a0,a0,-880 # 9068 <__sf+0x12c>
    23e0:	0cf42e23          	sw	a5,220(s0)
    23e4:	0c042823          	sw	zero,208(s0)
    23e8:	0c042a23          	sw	zero,212(s0)
    23ec:	0c042c23          	sw	zero,216(s0)
    23f0:	12042a23          	sw	zero,308(s0)
    23f4:	0e042023          	sw	zero,224(s0)
    23f8:	0e042223          	sw	zero,228(s0)
    23fc:	0e042423          	sw	zero,232(s0)
    2400:	678010ef          	jal	3a78 <memset>
    2404:	00007797          	auipc	a5,0x7
    2408:	c0878793          	add	a5,a5,-1016 # 900c <__sf+0xd0>
    240c:	0f442823          	sw	s4,240(s0)
    2410:	0f342a23          	sw	s3,244(s0)
    2414:	0f242c23          	sw	s2,248(s0)
    2418:	0e942e23          	sw	s1,252(s0)
    241c:	0ef42623          	sw	a5,236(s0)
    2420:	01812403          	lw	s0,24(sp)
    2424:	01c12083          	lw	ra,28(sp)
    2428:	01412483          	lw	s1,20(sp)
    242c:	01012903          	lw	s2,16(sp)
    2430:	00c12983          	lw	s3,12(sp)
    2434:	00812a03          	lw	s4,8(sp)
    2438:	00007517          	auipc	a0,0x7
    243c:	c2c50513          	add	a0,a0,-980 # 9064 <__sf+0x128>
    2440:	02010113          	add	sp,sp,32
    2444:	4800106f          	j	38c4 <__retarget_lock_init_recursive>

00002448 <__sfp>:
    2448:	fe010113          	add	sp,sp,-32
    244c:	01312623          	sw	s3,12(sp)
    2450:	00050993          	mv	s3,a0
    2454:	00007517          	auipc	a0,0x7
    2458:	a6050513          	add	a0,a0,-1440 # 8eb4 <__lock___sfp_recursive_mutex>
    245c:	00112e23          	sw	ra,28(sp)
    2460:	00812c23          	sw	s0,24(sp)
    2464:	00912a23          	sw	s1,20(sp)
    2468:	01212823          	sw	s2,16(sp)
    246c:	468010ef          	jal	38d4 <__retarget_lock_acquire_recursive>
    2470:	00007797          	auipc	a5,0x7
    2474:	a147a783          	lw	a5,-1516(a5) # 8e84 <__stdio_exit_handler>
    2478:	10078263          	beqz	a5,257c <__sfp+0x134>
    247c:	00005917          	auipc	s2,0x5
    2480:	e0490913          	add	s2,s2,-508 # 7280 <__sglue>
    2484:	fff00493          	li	s1,-1
    2488:	00492783          	lw	a5,4(s2)
    248c:	00892403          	lw	s0,8(s2)
    2490:	fff78793          	add	a5,a5,-1
    2494:	0007d863          	bgez	a5,24a4 <__sfp+0x5c>
    2498:	0940006f          	j	252c <__sfp+0xe4>
    249c:	06840413          	add	s0,s0,104
    24a0:	08978663          	beq	a5,s1,252c <__sfp+0xe4>
    24a4:	00c41703          	lh	a4,12(s0)
    24a8:	fff78793          	add	a5,a5,-1
    24ac:	fe0718e3          	bnez	a4,249c <__sfp+0x54>
    24b0:	ffff07b7          	lui	a5,0xffff0
    24b4:	00178793          	add	a5,a5,1 # ffff0001 <__alt_data_end+0xfffd2001>
    24b8:	00f42623          	sw	a5,12(s0)
    24bc:	05840513          	add	a0,s0,88
    24c0:	06042223          	sw	zero,100(s0)
    24c4:	400010ef          	jal	38c4 <__retarget_lock_init_recursive>
    24c8:	00007517          	auipc	a0,0x7
    24cc:	9ec50513          	add	a0,a0,-1556 # 8eb4 <__lock___sfp_recursive_mutex>
    24d0:	41c010ef          	jal	38ec <__retarget_lock_release_recursive>
    24d4:	00800613          	li	a2,8
    24d8:	00042023          	sw	zero,0(s0)
    24dc:	00042423          	sw	zero,8(s0)
    24e0:	00042223          	sw	zero,4(s0)
    24e4:	00042823          	sw	zero,16(s0)
    24e8:	00042a23          	sw	zero,20(s0)
    24ec:	00042c23          	sw	zero,24(s0)
    24f0:	00000593          	li	a1,0
    24f4:	05c40513          	add	a0,s0,92
    24f8:	580010ef          	jal	3a78 <memset>
    24fc:	02042823          	sw	zero,48(s0)
    2500:	02042a23          	sw	zero,52(s0)
    2504:	04042223          	sw	zero,68(s0)
    2508:	04042423          	sw	zero,72(s0)
    250c:	01c12083          	lw	ra,28(sp)
    2510:	00040513          	mv	a0,s0
    2514:	01812403          	lw	s0,24(sp)
    2518:	01412483          	lw	s1,20(sp)
    251c:	01012903          	lw	s2,16(sp)
    2520:	00c12983          	lw	s3,12(sp)
    2524:	02010113          	add	sp,sp,32
    2528:	00008067          	ret
    252c:	00092403          	lw	s0,0(s2)
    2530:	00040663          	beqz	s0,253c <__sfp+0xf4>
    2534:	00040913          	mv	s2,s0
    2538:	f51ff06f          	j	2488 <__sfp+0x40>
    253c:	1ac00593          	li	a1,428
    2540:	00098513          	mv	a0,s3
    2544:	680000ef          	jal	2bc4 <_malloc_r>
    2548:	00050413          	mv	s0,a0
    254c:	02050c63          	beqz	a0,2584 <__sfp+0x13c>
    2550:	00c50513          	add	a0,a0,12
    2554:	00400793          	li	a5,4
    2558:	00042023          	sw	zero,0(s0)
    255c:	00f42223          	sw	a5,4(s0)
    2560:	00a42423          	sw	a0,8(s0)
    2564:	1a000613          	li	a2,416
    2568:	00000593          	li	a1,0
    256c:	50c010ef          	jal	3a78 <memset>
    2570:	00892023          	sw	s0,0(s2)
    2574:	00040913          	mv	s2,s0
    2578:	f11ff06f          	j	2488 <__sfp+0x40>
    257c:	d3dff0ef          	jal	22b8 <global_stdio_init.part.0>
    2580:	efdff06f          	j	247c <__sfp+0x34>
    2584:	00092023          	sw	zero,0(s2)
    2588:	00007517          	auipc	a0,0x7
    258c:	92c50513          	add	a0,a0,-1748 # 8eb4 <__lock___sfp_recursive_mutex>
    2590:	35c010ef          	jal	38ec <__retarget_lock_release_recursive>
    2594:	00c00793          	li	a5,12
    2598:	00f9a023          	sw	a5,0(s3)
    259c:	f71ff06f          	j	250c <__sfp+0xc4>

000025a0 <__sinit>:
    25a0:	ff010113          	add	sp,sp,-16
    25a4:	00812423          	sw	s0,8(sp)
    25a8:	00050413          	mv	s0,a0
    25ac:	00007517          	auipc	a0,0x7
    25b0:	90850513          	add	a0,a0,-1784 # 8eb4 <__lock___sfp_recursive_mutex>
    25b4:	00112623          	sw	ra,12(sp)
    25b8:	31c010ef          	jal	38d4 <__retarget_lock_acquire_recursive>
    25bc:	03442783          	lw	a5,52(s0)
    25c0:	00079e63          	bnez	a5,25dc <__sinit+0x3c>
    25c4:	00000797          	auipc	a5,0x0
    25c8:	c0478793          	add	a5,a5,-1020 # 21c8 <cleanup_stdio>
    25cc:	02f42a23          	sw	a5,52(s0)
    25d0:	00007797          	auipc	a5,0x7
    25d4:	8b47a783          	lw	a5,-1868(a5) # 8e84 <__stdio_exit_handler>
    25d8:	00078e63          	beqz	a5,25f4 <__sinit+0x54>
    25dc:	00812403          	lw	s0,8(sp)
    25e0:	00c12083          	lw	ra,12(sp)
    25e4:	00007517          	auipc	a0,0x7
    25e8:	8d050513          	add	a0,a0,-1840 # 8eb4 <__lock___sfp_recursive_mutex>
    25ec:	01010113          	add	sp,sp,16
    25f0:	2fc0106f          	j	38ec <__retarget_lock_release_recursive>
    25f4:	cc5ff0ef          	jal	22b8 <global_stdio_init.part.0>
    25f8:	00812403          	lw	s0,8(sp)
    25fc:	00c12083          	lw	ra,12(sp)
    2600:	00007517          	auipc	a0,0x7
    2604:	8b450513          	add	a0,a0,-1868 # 8eb4 <__lock___sfp_recursive_mutex>
    2608:	01010113          	add	sp,sp,16
    260c:	2e00106f          	j	38ec <__retarget_lock_release_recursive>

00002610 <__sfp_lock_acquire>:
    2610:	00007517          	auipc	a0,0x7
    2614:	8a450513          	add	a0,a0,-1884 # 8eb4 <__lock___sfp_recursive_mutex>
    2618:	2bc0106f          	j	38d4 <__retarget_lock_acquire_recursive>

0000261c <__sfp_lock_release>:
    261c:	00007517          	auipc	a0,0x7
    2620:	89850513          	add	a0,a0,-1896 # 8eb4 <__lock___sfp_recursive_mutex>
    2624:	2c80106f          	j	38ec <__retarget_lock_release_recursive>

00002628 <__fp_lock_all>:
    2628:	ff010113          	add	sp,sp,-16
    262c:	00007517          	auipc	a0,0x7
    2630:	88850513          	add	a0,a0,-1912 # 8eb4 <__lock___sfp_recursive_mutex>
    2634:	00112623          	sw	ra,12(sp)
    2638:	29c010ef          	jal	38d4 <__retarget_lock_acquire_recursive>
    263c:	00c12083          	lw	ra,12(sp)
    2640:	00005617          	auipc	a2,0x5
    2644:	c4060613          	add	a2,a2,-960 # 7280 <__sglue>
    2648:	00000597          	auipc	a1,0x0
    264c:	bf058593          	add	a1,a1,-1040 # 2238 <__fp_lock>
    2650:	00000513          	li	a0,0
    2654:	01010113          	add	sp,sp,16
    2658:	3340006f          	j	298c <_fwalk_sglue>

0000265c <__fp_unlock_all>:
    265c:	ff010113          	add	sp,sp,-16
    2660:	00005617          	auipc	a2,0x5
    2664:	c2060613          	add	a2,a2,-992 # 7280 <__sglue>
    2668:	00000597          	auipc	a1,0x0
    266c:	c1058593          	add	a1,a1,-1008 # 2278 <__fp_unlock>
    2670:	00000513          	li	a0,0
    2674:	00112623          	sw	ra,12(sp)
    2678:	314000ef          	jal	298c <_fwalk_sglue>
    267c:	00c12083          	lw	ra,12(sp)
    2680:	00007517          	auipc	a0,0x7
    2684:	83450513          	add	a0,a0,-1996 # 8eb4 <__lock___sfp_recursive_mutex>
    2688:	01010113          	add	sp,sp,16
    268c:	2600106f          	j	38ec <__retarget_lock_release_recursive>

00002690 <setvbuf>:
    2690:	fd010113          	add	sp,sp,-48
    2694:	02812423          	sw	s0,40(sp)
    2698:	02912223          	sw	s1,36(sp)
    269c:	03212023          	sw	s2,32(sp)
    26a0:	01312e23          	sw	s3,28(sp)
    26a4:	01412c23          	sw	s4,24(sp)
    26a8:	02112623          	sw	ra,44(sp)
    26ac:	8201aa03          	lw	s4,-2016(gp) # 76b4 <_impure_ptr>
    26b0:	00050413          	mv	s0,a0
    26b4:	00058913          	mv	s2,a1
    26b8:	00060993          	mv	s3,a2
    26bc:	00068493          	mv	s1,a3
    26c0:	000a0663          	beqz	s4,26cc <setvbuf+0x3c>
    26c4:	034a2783          	lw	a5,52(s4)
    26c8:	20078a63          	beqz	a5,28dc <setvbuf+0x24c>
    26cc:	00200793          	li	a5,2
    26d0:	00f98863          	beq	s3,a5,26e0 <setvbuf+0x50>
    26d4:	00100793          	li	a5,1
    26d8:	2137e863          	bltu	a5,s3,28e8 <setvbuf+0x258>
    26dc:	2004c663          	bltz	s1,28e8 <setvbuf+0x258>
    26e0:	06442783          	lw	a5,100(s0)
    26e4:	0017f793          	and	a5,a5,1
    26e8:	10078863          	beqz	a5,27f8 <setvbuf+0x168>
    26ec:	00040593          	mv	a1,s0
    26f0:	000a0513          	mv	a0,s4
    26f4:	499010ef          	jal	438c <_fflush_r>
    26f8:	03042583          	lw	a1,48(s0)
    26fc:	00058c63          	beqz	a1,2714 <setvbuf+0x84>
    2700:	04040793          	add	a5,s0,64
    2704:	00f58663          	beq	a1,a5,2710 <setvbuf+0x80>
    2708:	000a0513          	mv	a0,s4
    270c:	72c010ef          	jal	3e38 <_free_r>
    2710:	02042823          	sw	zero,48(s0)
    2714:	00c41783          	lh	a5,12(s0)
    2718:	00042c23          	sw	zero,24(s0)
    271c:	00042223          	sw	zero,4(s0)
    2720:	0807f713          	and	a4,a5,128
    2724:	14071263          	bnez	a4,2868 <setvbuf+0x1d8>
    2728:	fffff737          	lui	a4,0xfffff
    272c:	35c70713          	add	a4,a4,860 # fffff35c <__alt_data_end+0xfffe135c>
    2730:	00e7f7b3          	and	a5,a5,a4
    2734:	00f41623          	sh	a5,12(s0)
    2738:	00200713          	li	a4,2
    273c:	14e98a63          	beq	s3,a4,2890 <setvbuf+0x200>
    2740:	00c10693          	add	a3,sp,12
    2744:	00810613          	add	a2,sp,8
    2748:	00040593          	mv	a1,s0
    274c:	000a0513          	mv	a0,s4
    2750:	010010ef          	jal	3760 <__swhatbuf_r>
    2754:	00c45783          	lhu	a5,12(s0)
    2758:	00a7e7b3          	or	a5,a5,a0
    275c:	00f41623          	sh	a5,12(s0)
    2760:	0a048863          	beqz	s1,2810 <setvbuf+0x180>
    2764:	0a090863          	beqz	s2,2814 <setvbuf+0x184>
    2768:	034a2783          	lw	a5,52(s4)
    276c:	0c078663          	beqz	a5,2838 <setvbuf+0x1a8>
    2770:	00812703          	lw	a4,8(sp)
    2774:	00c41783          	lh	a5,12(s0)
    2778:	00970a63          	beq	a4,s1,278c <setvbuf+0xfc>
    277c:	00001737          	lui	a4,0x1
    2780:	80070713          	add	a4,a4,-2048 # 800 <altera_avalon_jtag_uart_write_fd+0x24>
    2784:	00e7e7b3          	or	a5,a5,a4
    2788:	00f41623          	sh	a5,12(s0)
    278c:	00100713          	li	a4,1
    2790:	00e99663          	bne	s3,a4,279c <setvbuf+0x10c>
    2794:	0017e793          	or	a5,a5,1
    2798:	00f41623          	sh	a5,12(s0)
    279c:	01242023          	sw	s2,0(s0)
    27a0:	01242823          	sw	s2,16(s0)
    27a4:	00942a23          	sw	s1,20(s0)
    27a8:	0087f713          	and	a4,a5,8
    27ac:	08070c63          	beqz	a4,2844 <setvbuf+0x1b4>
    27b0:	0017f713          	and	a4,a5,1
    27b4:	12070063          	beqz	a4,28d4 <setvbuf+0x244>
    27b8:	06442703          	lw	a4,100(s0)
    27bc:	409004b3          	neg	s1,s1
    27c0:	00042423          	sw	zero,8(s0)
    27c4:	00942c23          	sw	s1,24(s0)
    27c8:	00177713          	and	a4,a4,1
    27cc:	08070463          	beqz	a4,2854 <setvbuf+0x1c4>
    27d0:	00000493          	li	s1,0
    27d4:	02c12083          	lw	ra,44(sp)
    27d8:	02812403          	lw	s0,40(sp)
    27dc:	02012903          	lw	s2,32(sp)
    27e0:	01c12983          	lw	s3,28(sp)
    27e4:	01812a03          	lw	s4,24(sp)
    27e8:	00048513          	mv	a0,s1
    27ec:	02412483          	lw	s1,36(sp)
    27f0:	03010113          	add	sp,sp,48
    27f4:	00008067          	ret
    27f8:	00c45783          	lhu	a5,12(s0)
    27fc:	2007f793          	and	a5,a5,512
    2800:	ee0796e3          	bnez	a5,26ec <setvbuf+0x5c>
    2804:	05842503          	lw	a0,88(s0)
    2808:	0cc010ef          	jal	38d4 <__retarget_lock_acquire_recursive>
    280c:	ee1ff06f          	j	26ec <setvbuf+0x5c>
    2810:	00812483          	lw	s1,8(sp)
    2814:	00048513          	mv	a0,s1
    2818:	394000ef          	jal	2bac <malloc>
    281c:	00050913          	mv	s2,a0
    2820:	0c050863          	beqz	a0,28f0 <setvbuf+0x260>
    2824:	00c45783          	lhu	a5,12(s0)
    2828:	0807e793          	or	a5,a5,128
    282c:	00f41623          	sh	a5,12(s0)
    2830:	034a2783          	lw	a5,52(s4)
    2834:	f2079ee3          	bnez	a5,2770 <setvbuf+0xe0>
    2838:	000a0513          	mv	a0,s4
    283c:	d65ff0ef          	jal	25a0 <__sinit>
    2840:	f31ff06f          	j	2770 <setvbuf+0xe0>
    2844:	00042423          	sw	zero,8(s0)
    2848:	06442703          	lw	a4,100(s0)
    284c:	00177713          	and	a4,a4,1
    2850:	f80710e3          	bnez	a4,27d0 <setvbuf+0x140>
    2854:	2007f793          	and	a5,a5,512
    2858:	f6079ce3          	bnez	a5,27d0 <setvbuf+0x140>
    285c:	05842503          	lw	a0,88(s0)
    2860:	08c010ef          	jal	38ec <__retarget_lock_release_recursive>
    2864:	f6dff06f          	j	27d0 <setvbuf+0x140>
    2868:	01042583          	lw	a1,16(s0)
    286c:	000a0513          	mv	a0,s4
    2870:	5c8010ef          	jal	3e38 <_free_r>
    2874:	00c41783          	lh	a5,12(s0)
    2878:	fffff737          	lui	a4,0xfffff
    287c:	35c70713          	add	a4,a4,860 # fffff35c <__alt_data_end+0xfffe135c>
    2880:	00e7f7b3          	and	a5,a5,a4
    2884:	00f41623          	sh	a5,12(s0)
    2888:	00200713          	li	a4,2
    288c:	eae99ae3          	bne	s3,a4,2740 <setvbuf+0xb0>
    2890:	00000493          	li	s1,0
    2894:	06442703          	lw	a4,100(s0)
    2898:	04340693          	add	a3,s0,67
    289c:	0027e613          	or	a2,a5,2
    28a0:	00d42023          	sw	a3,0(s0)
    28a4:	00d42823          	sw	a3,16(s0)
    28a8:	00100693          	li	a3,1
    28ac:	00c41623          	sh	a2,12(s0)
    28b0:	00042423          	sw	zero,8(s0)
    28b4:	00d42a23          	sw	a3,20(s0)
    28b8:	00177713          	and	a4,a4,1
    28bc:	f0071ce3          	bnez	a4,27d4 <setvbuf+0x144>
    28c0:	2007f793          	and	a5,a5,512
    28c4:	f00798e3          	bnez	a5,27d4 <setvbuf+0x144>
    28c8:	05842503          	lw	a0,88(s0)
    28cc:	020010ef          	jal	38ec <__retarget_lock_release_recursive>
    28d0:	f05ff06f          	j	27d4 <setvbuf+0x144>
    28d4:	00942423          	sw	s1,8(s0)
    28d8:	f71ff06f          	j	2848 <setvbuf+0x1b8>
    28dc:	000a0513          	mv	a0,s4
    28e0:	cc1ff0ef          	jal	25a0 <__sinit>
    28e4:	de9ff06f          	j	26cc <setvbuf+0x3c>
    28e8:	fff00493          	li	s1,-1
    28ec:	ee9ff06f          	j	27d4 <setvbuf+0x144>
    28f0:	01512a23          	sw	s5,20(sp)
    28f4:	00812a83          	lw	s5,8(sp)
    28f8:	029a8063          	beq	s5,s1,2918 <setvbuf+0x288>
    28fc:	000a8513          	mv	a0,s5
    2900:	2ac000ef          	jal	2bac <malloc>
    2904:	00050913          	mv	s2,a0
    2908:	000a8493          	mv	s1,s5
    290c:	00050663          	beqz	a0,2918 <setvbuf+0x288>
    2910:	01412a83          	lw	s5,20(sp)
    2914:	f11ff06f          	j	2824 <setvbuf+0x194>
    2918:	00c41783          	lh	a5,12(s0)
    291c:	01412a83          	lw	s5,20(sp)
    2920:	fff00493          	li	s1,-1
    2924:	f71ff06f          	j	2894 <setvbuf+0x204>

00002928 <_open_r>:
    2928:	ff010113          	add	sp,sp,-16
    292c:	00058713          	mv	a4,a1
    2930:	00812423          	sw	s0,8(sp)
    2934:	00060593          	mv	a1,a2
    2938:	00050413          	mv	s0,a0
    293c:	00068613          	mv	a2,a3
    2940:	00070513          	mv	a0,a4
    2944:	00006797          	auipc	a5,0x6
    2948:	5207ae23          	sw	zero,1340(a5) # 8e80 <errno>
    294c:	00112623          	sw	ra,12(sp)
    2950:	55c020ef          	jal	4eac <_open>
    2954:	fff00793          	li	a5,-1
    2958:	00f50a63          	beq	a0,a5,296c <_open_r+0x44>
    295c:	00c12083          	lw	ra,12(sp)
    2960:	00812403          	lw	s0,8(sp)
    2964:	01010113          	add	sp,sp,16
    2968:	00008067          	ret
    296c:	00006797          	auipc	a5,0x6
    2970:	5147a783          	lw	a5,1300(a5) # 8e80 <errno>
    2974:	fe0784e3          	beqz	a5,295c <_open_r+0x34>
    2978:	00c12083          	lw	ra,12(sp)
    297c:	00f42023          	sw	a5,0(s0)
    2980:	00812403          	lw	s0,8(sp)
    2984:	01010113          	add	sp,sp,16
    2988:	00008067          	ret

0000298c <_fwalk_sglue>:
    298c:	fd010113          	add	sp,sp,-48
    2990:	03212023          	sw	s2,32(sp)
    2994:	01312e23          	sw	s3,28(sp)
    2998:	01412c23          	sw	s4,24(sp)
    299c:	01512a23          	sw	s5,20(sp)
    29a0:	01612823          	sw	s6,16(sp)
    29a4:	01712623          	sw	s7,12(sp)
    29a8:	02112623          	sw	ra,44(sp)
    29ac:	02812423          	sw	s0,40(sp)
    29b0:	02912223          	sw	s1,36(sp)
    29b4:	00050b13          	mv	s6,a0
    29b8:	00058b93          	mv	s7,a1
    29bc:	00060a93          	mv	s5,a2
    29c0:	00000a13          	li	s4,0
    29c4:	00100993          	li	s3,1
    29c8:	fff00913          	li	s2,-1
    29cc:	004aa483          	lw	s1,4(s5)
    29d0:	008aa403          	lw	s0,8(s5)
    29d4:	fff48493          	add	s1,s1,-1
    29d8:	0204c863          	bltz	s1,2a08 <_fwalk_sglue+0x7c>
    29dc:	00c45783          	lhu	a5,12(s0)
    29e0:	00f9fe63          	bgeu	s3,a5,29fc <_fwalk_sglue+0x70>
    29e4:	00e41783          	lh	a5,14(s0)
    29e8:	00040593          	mv	a1,s0
    29ec:	000b0513          	mv	a0,s6
    29f0:	01278663          	beq	a5,s2,29fc <_fwalk_sglue+0x70>
    29f4:	000b80e7          	jalr	s7
    29f8:	00aa6a33          	or	s4,s4,a0
    29fc:	fff48493          	add	s1,s1,-1
    2a00:	06840413          	add	s0,s0,104
    2a04:	fd249ce3          	bne	s1,s2,29dc <_fwalk_sglue+0x50>
    2a08:	000aaa83          	lw	s5,0(s5)
    2a0c:	fc0a90e3          	bnez	s5,29cc <_fwalk_sglue+0x40>
    2a10:	02c12083          	lw	ra,44(sp)
    2a14:	02812403          	lw	s0,40(sp)
    2a18:	02412483          	lw	s1,36(sp)
    2a1c:	02012903          	lw	s2,32(sp)
    2a20:	01c12983          	lw	s3,28(sp)
    2a24:	01412a83          	lw	s5,20(sp)
    2a28:	01012b03          	lw	s6,16(sp)
    2a2c:	00c12b83          	lw	s7,12(sp)
    2a30:	000a0513          	mv	a0,s4
    2a34:	01812a03          	lw	s4,24(sp)
    2a38:	03010113          	add	sp,sp,48
    2a3c:	00008067          	ret

00002a40 <__sread>:
    2a40:	ff010113          	add	sp,sp,-16
    2a44:	00812423          	sw	s0,8(sp)
    2a48:	00058413          	mv	s0,a1
    2a4c:	00e59583          	lh	a1,14(a1)
    2a50:	00112623          	sw	ra,12(sp)
    2a54:	45d010ef          	jal	46b0 <_read_r>
    2a58:	02054063          	bltz	a0,2a78 <__sread+0x38>
    2a5c:	05042783          	lw	a5,80(s0)
    2a60:	00c12083          	lw	ra,12(sp)
    2a64:	00a787b3          	add	a5,a5,a0
    2a68:	04f42823          	sw	a5,80(s0)
    2a6c:	00812403          	lw	s0,8(sp)
    2a70:	01010113          	add	sp,sp,16
    2a74:	00008067          	ret
    2a78:	00c45783          	lhu	a5,12(s0)
    2a7c:	fffff737          	lui	a4,0xfffff
    2a80:	fff70713          	add	a4,a4,-1 # ffffefff <__alt_data_end+0xfffe0fff>
    2a84:	00e7f7b3          	and	a5,a5,a4
    2a88:	00c12083          	lw	ra,12(sp)
    2a8c:	00f41623          	sh	a5,12(s0)
    2a90:	00812403          	lw	s0,8(sp)
    2a94:	01010113          	add	sp,sp,16
    2a98:	00008067          	ret

00002a9c <__seofread>:
    2a9c:	00000513          	li	a0,0
    2aa0:	00008067          	ret

00002aa4 <__swrite>:
    2aa4:	00c59783          	lh	a5,12(a1)
    2aa8:	fe010113          	add	sp,sp,-32
    2aac:	00812c23          	sw	s0,24(sp)
    2ab0:	00912a23          	sw	s1,20(sp)
    2ab4:	01212823          	sw	s2,16(sp)
    2ab8:	01312623          	sw	s3,12(sp)
    2abc:	00112e23          	sw	ra,28(sp)
    2ac0:	1007f713          	and	a4,a5,256
    2ac4:	00058413          	mv	s0,a1
    2ac8:	00050493          	mv	s1,a0
    2acc:	00060913          	mv	s2,a2
    2ad0:	00068993          	mv	s3,a3
    2ad4:	04071063          	bnez	a4,2b14 <__swrite+0x70>
    2ad8:	fffff737          	lui	a4,0xfffff
    2adc:	fff70713          	add	a4,a4,-1 # ffffefff <__alt_data_end+0xfffe0fff>
    2ae0:	00e7f7b3          	and	a5,a5,a4
    2ae4:	00e41583          	lh	a1,14(s0)
    2ae8:	00f41623          	sh	a5,12(s0)
    2aec:	01812403          	lw	s0,24(sp)
    2af0:	01c12083          	lw	ra,28(sp)
    2af4:	00098693          	mv	a3,s3
    2af8:	00090613          	mv	a2,s2
    2afc:	00c12983          	lw	s3,12(sp)
    2b00:	01012903          	lw	s2,16(sp)
    2b04:	00048513          	mv	a0,s1
    2b08:	01412483          	lw	s1,20(sp)
    2b0c:	02010113          	add	sp,sp,32
    2b10:	2550006f          	j	3564 <_write_r>
    2b14:	00e59583          	lh	a1,14(a1)
    2b18:	00200693          	li	a3,2
    2b1c:	00000613          	li	a2,0
    2b20:	32d010ef          	jal	464c <_lseek_r>
    2b24:	00c41783          	lh	a5,12(s0)
    2b28:	fb1ff06f          	j	2ad8 <__swrite+0x34>

00002b2c <__sseek>:
    2b2c:	ff010113          	add	sp,sp,-16
    2b30:	00812423          	sw	s0,8(sp)
    2b34:	00058413          	mv	s0,a1
    2b38:	00e59583          	lh	a1,14(a1)
    2b3c:	00112623          	sw	ra,12(sp)
    2b40:	30d010ef          	jal	464c <_lseek_r>
    2b44:	fff00793          	li	a5,-1
    2b48:	02f50863          	beq	a0,a5,2b78 <__sseek+0x4c>
    2b4c:	00c45783          	lhu	a5,12(s0)
    2b50:	00001737          	lui	a4,0x1
    2b54:	00c12083          	lw	ra,12(sp)
    2b58:	00e7e7b3          	or	a5,a5,a4
    2b5c:	01079793          	sll	a5,a5,0x10
    2b60:	4107d793          	sra	a5,a5,0x10
    2b64:	04a42823          	sw	a0,80(s0)
    2b68:	00f41623          	sh	a5,12(s0)
    2b6c:	00812403          	lw	s0,8(sp)
    2b70:	01010113          	add	sp,sp,16
    2b74:	00008067          	ret
    2b78:	00c45783          	lhu	a5,12(s0)
    2b7c:	fffff737          	lui	a4,0xfffff
    2b80:	fff70713          	add	a4,a4,-1 # ffffefff <__alt_data_end+0xfffe0fff>
    2b84:	00e7f7b3          	and	a5,a5,a4
    2b88:	01079793          	sll	a5,a5,0x10
    2b8c:	4107d793          	sra	a5,a5,0x10
    2b90:	00c12083          	lw	ra,12(sp)
    2b94:	00f41623          	sh	a5,12(s0)
    2b98:	00812403          	lw	s0,8(sp)
    2b9c:	01010113          	add	sp,sp,16
    2ba0:	00008067          	ret

00002ba4 <__sclose>:
    2ba4:	00e59583          	lh	a1,14(a1)
    2ba8:	1950106f          	j	453c <_close_r>

00002bac <malloc>:
    2bac:	00050593          	mv	a1,a0
    2bb0:	8201a503          	lw	a0,-2016(gp) # 76b4 <_impure_ptr>
    2bb4:	0100006f          	j	2bc4 <_malloc_r>

00002bb8 <free>:
    2bb8:	00050593          	mv	a1,a0
    2bbc:	8201a503          	lw	a0,-2016(gp) # 76b4 <_impure_ptr>
    2bc0:	2780106f          	j	3e38 <_free_r>

00002bc4 <_malloc_r>:
    2bc4:	fd010113          	add	sp,sp,-48
    2bc8:	03212023          	sw	s2,32(sp)
    2bcc:	02112623          	sw	ra,44(sp)
    2bd0:	02812423          	sw	s0,40(sp)
    2bd4:	02912223          	sw	s1,36(sp)
    2bd8:	01312e23          	sw	s3,28(sp)
    2bdc:	00b58793          	add	a5,a1,11
    2be0:	01600713          	li	a4,22
    2be4:	00050913          	mv	s2,a0
    2be8:	08f76263          	bltu	a4,a5,2c6c <_malloc_r+0xa8>
    2bec:	01000793          	li	a5,16
    2bf0:	20b7e663          	bltu	a5,a1,2dfc <_malloc_r+0x238>
    2bf4:	445000ef          	jal	3838 <__malloc_lock>
    2bf8:	01800793          	li	a5,24
    2bfc:	00200593          	li	a1,2
    2c00:	01000493          	li	s1,16
    2c04:	00004997          	auipc	s3,0x4
    2c08:	68898993          	add	s3,s3,1672 # 728c <__malloc_av_>
    2c0c:	00f987b3          	add	a5,s3,a5
    2c10:	0047a403          	lw	s0,4(a5)
    2c14:	ff878713          	add	a4,a5,-8
    2c18:	36e40263          	beq	s0,a4,2f7c <_malloc_r+0x3b8>
    2c1c:	00442783          	lw	a5,4(s0)
    2c20:	00c42683          	lw	a3,12(s0)
    2c24:	00842603          	lw	a2,8(s0)
    2c28:	ffc7f793          	and	a5,a5,-4
    2c2c:	00f407b3          	add	a5,s0,a5
    2c30:	0047a703          	lw	a4,4(a5)
    2c34:	00d62623          	sw	a3,12(a2)
    2c38:	00c6a423          	sw	a2,8(a3)
    2c3c:	00176713          	or	a4,a4,1
    2c40:	00090513          	mv	a0,s2
    2c44:	00e7a223          	sw	a4,4(a5)
    2c48:	3fd000ef          	jal	3844 <__malloc_unlock>
    2c4c:	00840513          	add	a0,s0,8
    2c50:	02c12083          	lw	ra,44(sp)
    2c54:	02812403          	lw	s0,40(sp)
    2c58:	02412483          	lw	s1,36(sp)
    2c5c:	02012903          	lw	s2,32(sp)
    2c60:	01c12983          	lw	s3,28(sp)
    2c64:	03010113          	add	sp,sp,48
    2c68:	00008067          	ret
    2c6c:	ff87f493          	and	s1,a5,-8
    2c70:	1807c663          	bltz	a5,2dfc <_malloc_r+0x238>
    2c74:	18b4e463          	bltu	s1,a1,2dfc <_malloc_r+0x238>
    2c78:	3c1000ef          	jal	3838 <__malloc_lock>
    2c7c:	1f700793          	li	a5,503
    2c80:	4097f863          	bgeu	a5,s1,3090 <_malloc_r+0x4cc>
    2c84:	0094d793          	srl	a5,s1,0x9
    2c88:	18078263          	beqz	a5,2e0c <_malloc_r+0x248>
    2c8c:	00400713          	li	a4,4
    2c90:	34f76e63          	bltu	a4,a5,2fec <_malloc_r+0x428>
    2c94:	0064d793          	srl	a5,s1,0x6
    2c98:	03978593          	add	a1,a5,57
    2c9c:	03878813          	add	a6,a5,56
    2ca0:	00359613          	sll	a2,a1,0x3
    2ca4:	00004997          	auipc	s3,0x4
    2ca8:	5e898993          	add	s3,s3,1512 # 728c <__malloc_av_>
    2cac:	00c98633          	add	a2,s3,a2
    2cb0:	00462403          	lw	s0,4(a2)
    2cb4:	ff860613          	add	a2,a2,-8
    2cb8:	02860863          	beq	a2,s0,2ce8 <_malloc_r+0x124>
    2cbc:	00f00513          	li	a0,15
    2cc0:	0140006f          	j	2cd4 <_malloc_r+0x110>
    2cc4:	00c42683          	lw	a3,12(s0)
    2cc8:	2a075663          	bgez	a4,2f74 <_malloc_r+0x3b0>
    2ccc:	00d60e63          	beq	a2,a3,2ce8 <_malloc_r+0x124>
    2cd0:	00068413          	mv	s0,a3
    2cd4:	00442783          	lw	a5,4(s0)
    2cd8:	ffc7f793          	and	a5,a5,-4
    2cdc:	40978733          	sub	a4,a5,s1
    2ce0:	fee552e3          	bge	a0,a4,2cc4 <_malloc_r+0x100>
    2ce4:	00080593          	mv	a1,a6
    2ce8:	0109a403          	lw	s0,16(s3)
    2cec:	00004897          	auipc	a7,0x4
    2cf0:	5a888893          	add	a7,a7,1448 # 7294 <__malloc_av_+0x8>
    2cf4:	27140c63          	beq	s0,a7,2f6c <_malloc_r+0x3a8>
    2cf8:	00442783          	lw	a5,4(s0)
    2cfc:	00f00693          	li	a3,15
    2d00:	ffc7f793          	and	a5,a5,-4
    2d04:	40978733          	sub	a4,a5,s1
    2d08:	38e6ca63          	blt	a3,a4,309c <_malloc_r+0x4d8>
    2d0c:	0119aa23          	sw	a7,20(s3)
    2d10:	0119a823          	sw	a7,16(s3)
    2d14:	34075e63          	bgez	a4,3070 <_malloc_r+0x4ac>
    2d18:	1ff00713          	li	a4,511
    2d1c:	0049a503          	lw	a0,4(s3)
    2d20:	26f76663          	bltu	a4,a5,2f8c <_malloc_r+0x3c8>
    2d24:	ff87f713          	and	a4,a5,-8
    2d28:	00870713          	add	a4,a4,8
    2d2c:	00e98733          	add	a4,s3,a4
    2d30:	00072683          	lw	a3,0(a4)
    2d34:	0057d613          	srl	a2,a5,0x5
    2d38:	00100793          	li	a5,1
    2d3c:	00c797b3          	sll	a5,a5,a2
    2d40:	00f56533          	or	a0,a0,a5
    2d44:	ff870793          	add	a5,a4,-8
    2d48:	00f42623          	sw	a5,12(s0)
    2d4c:	00d42423          	sw	a3,8(s0)
    2d50:	00a9a223          	sw	a0,4(s3)
    2d54:	00872023          	sw	s0,0(a4)
    2d58:	0086a623          	sw	s0,12(a3)
    2d5c:	4025d793          	sra	a5,a1,0x2
    2d60:	00100613          	li	a2,1
    2d64:	00f61633          	sll	a2,a2,a5
    2d68:	0ac56a63          	bltu	a0,a2,2e1c <_malloc_r+0x258>
    2d6c:	00a677b3          	and	a5,a2,a0
    2d70:	02079463          	bnez	a5,2d98 <_malloc_r+0x1d4>
    2d74:	00161613          	sll	a2,a2,0x1
    2d78:	ffc5f593          	and	a1,a1,-4
    2d7c:	00a677b3          	and	a5,a2,a0
    2d80:	00458593          	add	a1,a1,4
    2d84:	00079a63          	bnez	a5,2d98 <_malloc_r+0x1d4>
    2d88:	00161613          	sll	a2,a2,0x1
    2d8c:	00a677b3          	and	a5,a2,a0
    2d90:	00458593          	add	a1,a1,4
    2d94:	fe078ae3          	beqz	a5,2d88 <_malloc_r+0x1c4>
    2d98:	00f00813          	li	a6,15
    2d9c:	00359313          	sll	t1,a1,0x3
    2da0:	00698333          	add	t1,s3,t1
    2da4:	00030513          	mv	a0,t1
    2da8:	00c52783          	lw	a5,12(a0)
    2dac:	00058e13          	mv	t3,a1
    2db0:	26f50063          	beq	a0,a5,3010 <_malloc_r+0x44c>
    2db4:	0047a703          	lw	a4,4(a5)
    2db8:	00078413          	mv	s0,a5
    2dbc:	00c7a783          	lw	a5,12(a5)
    2dc0:	ffc77713          	and	a4,a4,-4
    2dc4:	409706b3          	sub	a3,a4,s1
    2dc8:	26d84063          	blt	a6,a3,3028 <_malloc_r+0x464>
    2dcc:	fe06c2e3          	bltz	a3,2db0 <_malloc_r+0x1ec>
    2dd0:	00e40733          	add	a4,s0,a4
    2dd4:	00472683          	lw	a3,4(a4)
    2dd8:	00842603          	lw	a2,8(s0)
    2ddc:	00090513          	mv	a0,s2
    2de0:	0016e693          	or	a3,a3,1
    2de4:	00d72223          	sw	a3,4(a4)
    2de8:	00f62623          	sw	a5,12(a2)
    2dec:	00c7a423          	sw	a2,8(a5)
    2df0:	255000ef          	jal	3844 <__malloc_unlock>
    2df4:	00840513          	add	a0,s0,8
    2df8:	e59ff06f          	j	2c50 <_malloc_r+0x8c>
    2dfc:	00c00793          	li	a5,12
    2e00:	00f92023          	sw	a5,0(s2)
    2e04:	00000513          	li	a0,0
    2e08:	e49ff06f          	j	2c50 <_malloc_r+0x8c>
    2e0c:	20000613          	li	a2,512
    2e10:	04000593          	li	a1,64
    2e14:	03f00813          	li	a6,63
    2e18:	e8dff06f          	j	2ca4 <_malloc_r+0xe0>
    2e1c:	0089a403          	lw	s0,8(s3)
    2e20:	01612823          	sw	s6,16(sp)
    2e24:	00442783          	lw	a5,4(s0)
    2e28:	ffc7fb13          	and	s6,a5,-4
    2e2c:	009b6863          	bltu	s6,s1,2e3c <_malloc_r+0x278>
    2e30:	409b0733          	sub	a4,s6,s1
    2e34:	00f00793          	li	a5,15
    2e38:	0ee7c863          	blt	a5,a4,2f28 <_malloc_r+0x364>
    2e3c:	01912223          	sw	s9,4(sp)
    2e40:	82418c93          	add	s9,gp,-2012 # 76b8 <__malloc_sbrk_base>
    2e44:	000ca703          	lw	a4,0(s9)
    2e48:	01412c23          	sw	s4,24(sp)
    2e4c:	01512a23          	sw	s5,20(sp)
    2e50:	01712623          	sw	s7,12(sp)
    2e54:	00006a97          	auipc	s5,0x6
    2e58:	03caaa83          	lw	s5,60(s5) # 8e90 <__malloc_top_pad>
    2e5c:	fff00793          	li	a5,-1
    2e60:	01640a33          	add	s4,s0,s6
    2e64:	01548ab3          	add	s5,s1,s5
    2e68:	3ef70263          	beq	a4,a5,324c <_malloc_r+0x688>
    2e6c:	000017b7          	lui	a5,0x1
    2e70:	00f78793          	add	a5,a5,15 # 100f <altera_avalon_jtag_uart_read+0x203>
    2e74:	00fa8ab3          	add	s5,s5,a5
    2e78:	fffff7b7          	lui	a5,0xfffff
    2e7c:	00fafab3          	and	s5,s5,a5
    2e80:	000a8593          	mv	a1,s5
    2e84:	00090513          	mv	a0,s2
    2e88:	684000ef          	jal	350c <_sbrk_r>
    2e8c:	fff00793          	li	a5,-1
    2e90:	00050b93          	mv	s7,a0
    2e94:	46f50663          	beq	a0,a5,3300 <_malloc_r+0x73c>
    2e98:	01812423          	sw	s8,8(sp)
    2e9c:	25456863          	bltu	a0,s4,30ec <_malloc_r+0x528>
    2ea0:	00006c17          	auipc	s8,0x6
    2ea4:	1d4c0c13          	add	s8,s8,468 # 9074 <__malloc_current_mallinfo>
    2ea8:	000c2583          	lw	a1,0(s8)
    2eac:	00ba85b3          	add	a1,s5,a1
    2eb0:	00bc2023          	sw	a1,0(s8)
    2eb4:	00058713          	mv	a4,a1
    2eb8:	2caa1063          	bne	s4,a0,3178 <_malloc_r+0x5b4>
    2ebc:	01451793          	sll	a5,a0,0x14
    2ec0:	2a079c63          	bnez	a5,3178 <_malloc_r+0x5b4>
    2ec4:	0089ab83          	lw	s7,8(s3)
    2ec8:	015b07b3          	add	a5,s6,s5
    2ecc:	0017e793          	or	a5,a5,1
    2ed0:	00fba223          	sw	a5,4(s7)
    2ed4:	00006717          	auipc	a4,0x6
    2ed8:	fb870713          	add	a4,a4,-72 # 8e8c <__malloc_max_sbrked_mem>
    2edc:	00072683          	lw	a3,0(a4)
    2ee0:	00b6f463          	bgeu	a3,a1,2ee8 <_malloc_r+0x324>
    2ee4:	00b72023          	sw	a1,0(a4)
    2ee8:	00006717          	auipc	a4,0x6
    2eec:	fa070713          	add	a4,a4,-96 # 8e88 <__malloc_max_total_mem>
    2ef0:	00072683          	lw	a3,0(a4)
    2ef4:	00b6f463          	bgeu	a3,a1,2efc <_malloc_r+0x338>
    2ef8:	00b72023          	sw	a1,0(a4)
    2efc:	00812c03          	lw	s8,8(sp)
    2f00:	000b8413          	mv	s0,s7
    2f04:	ffc7f793          	and	a5,a5,-4
    2f08:	40978733          	sub	a4,a5,s1
    2f0c:	3897ec63          	bltu	a5,s1,32a4 <_malloc_r+0x6e0>
    2f10:	00f00793          	li	a5,15
    2f14:	38e7d863          	bge	a5,a4,32a4 <_malloc_r+0x6e0>
    2f18:	01812a03          	lw	s4,24(sp)
    2f1c:	01412a83          	lw	s5,20(sp)
    2f20:	00c12b83          	lw	s7,12(sp)
    2f24:	00412c83          	lw	s9,4(sp)
    2f28:	0014e793          	or	a5,s1,1
    2f2c:	00f42223          	sw	a5,4(s0)
    2f30:	009404b3          	add	s1,s0,s1
    2f34:	0099a423          	sw	s1,8(s3)
    2f38:	00176713          	or	a4,a4,1
    2f3c:	00090513          	mv	a0,s2
    2f40:	00e4a223          	sw	a4,4(s1)
    2f44:	101000ef          	jal	3844 <__malloc_unlock>
    2f48:	02c12083          	lw	ra,44(sp)
    2f4c:	00840513          	add	a0,s0,8
    2f50:	02812403          	lw	s0,40(sp)
    2f54:	01012b03          	lw	s6,16(sp)
    2f58:	02412483          	lw	s1,36(sp)
    2f5c:	02012903          	lw	s2,32(sp)
    2f60:	01c12983          	lw	s3,28(sp)
    2f64:	03010113          	add	sp,sp,48
    2f68:	00008067          	ret
    2f6c:	0049a503          	lw	a0,4(s3)
    2f70:	dedff06f          	j	2d5c <_malloc_r+0x198>
    2f74:	00842603          	lw	a2,8(s0)
    2f78:	cb5ff06f          	j	2c2c <_malloc_r+0x68>
    2f7c:	00c7a403          	lw	s0,12(a5) # fffff00c <__alt_data_end+0xfffe100c>
    2f80:	00258593          	add	a1,a1,2
    2f84:	d68782e3          	beq	a5,s0,2ce8 <_malloc_r+0x124>
    2f88:	c95ff06f          	j	2c1c <_malloc_r+0x58>
    2f8c:	0097d713          	srl	a4,a5,0x9
    2f90:	00400693          	li	a3,4
    2f94:	14e6f263          	bgeu	a3,a4,30d8 <_malloc_r+0x514>
    2f98:	01400693          	li	a3,20
    2f9c:	32e6e663          	bltu	a3,a4,32c8 <_malloc_r+0x704>
    2fa0:	05c70613          	add	a2,a4,92
    2fa4:	05b70693          	add	a3,a4,91
    2fa8:	00361613          	sll	a2,a2,0x3
    2fac:	00c98633          	add	a2,s3,a2
    2fb0:	00062703          	lw	a4,0(a2)
    2fb4:	ff860613          	add	a2,a2,-8
    2fb8:	00e61863          	bne	a2,a4,2fc8 <_malloc_r+0x404>
    2fbc:	2980006f          	j	3254 <_malloc_r+0x690>
    2fc0:	00872703          	lw	a4,8(a4)
    2fc4:	00e60863          	beq	a2,a4,2fd4 <_malloc_r+0x410>
    2fc8:	00472683          	lw	a3,4(a4)
    2fcc:	ffc6f693          	and	a3,a3,-4
    2fd0:	fed7e8e3          	bltu	a5,a3,2fc0 <_malloc_r+0x3fc>
    2fd4:	00c72603          	lw	a2,12(a4)
    2fd8:	00c42623          	sw	a2,12(s0)
    2fdc:	00e42423          	sw	a4,8(s0)
    2fe0:	00862423          	sw	s0,8(a2)
    2fe4:	00872623          	sw	s0,12(a4)
    2fe8:	d75ff06f          	j	2d5c <_malloc_r+0x198>
    2fec:	01400713          	li	a4,20
    2ff0:	10f77863          	bgeu	a4,a5,3100 <_malloc_r+0x53c>
    2ff4:	05400713          	li	a4,84
    2ff8:	2ef76663          	bltu	a4,a5,32e4 <_malloc_r+0x720>
    2ffc:	00c4d793          	srl	a5,s1,0xc
    3000:	06f78593          	add	a1,a5,111
    3004:	06e78813          	add	a6,a5,110
    3008:	00359613          	sll	a2,a1,0x3
    300c:	c99ff06f          	j	2ca4 <_malloc_r+0xe0>
    3010:	001e0e13          	add	t3,t3,1
    3014:	003e7793          	and	a5,t3,3
    3018:	00850513          	add	a0,a0,8
    301c:	10078063          	beqz	a5,311c <_malloc_r+0x558>
    3020:	00c52783          	lw	a5,12(a0)
    3024:	d8dff06f          	j	2db0 <_malloc_r+0x1ec>
    3028:	00842603          	lw	a2,8(s0)
    302c:	0014e593          	or	a1,s1,1
    3030:	00b42223          	sw	a1,4(s0)
    3034:	00f62623          	sw	a5,12(a2)
    3038:	00c7a423          	sw	a2,8(a5)
    303c:	009404b3          	add	s1,s0,s1
    3040:	0099aa23          	sw	s1,20(s3)
    3044:	0099a823          	sw	s1,16(s3)
    3048:	0016e793          	or	a5,a3,1
    304c:	0114a623          	sw	a7,12(s1)
    3050:	0114a423          	sw	a7,8(s1)
    3054:	00f4a223          	sw	a5,4(s1)
    3058:	00e40733          	add	a4,s0,a4
    305c:	00090513          	mv	a0,s2
    3060:	00d72023          	sw	a3,0(a4)
    3064:	7e0000ef          	jal	3844 <__malloc_unlock>
    3068:	00840513          	add	a0,s0,8
    306c:	be5ff06f          	j	2c50 <_malloc_r+0x8c>
    3070:	00f407b3          	add	a5,s0,a5
    3074:	0047a703          	lw	a4,4(a5)
    3078:	00090513          	mv	a0,s2
    307c:	00176713          	or	a4,a4,1
    3080:	00e7a223          	sw	a4,4(a5)
    3084:	7c0000ef          	jal	3844 <__malloc_unlock>
    3088:	00840513          	add	a0,s0,8
    308c:	bc5ff06f          	j	2c50 <_malloc_r+0x8c>
    3090:	0034d593          	srl	a1,s1,0x3
    3094:	00848793          	add	a5,s1,8
    3098:	b6dff06f          	j	2c04 <_malloc_r+0x40>
    309c:	0014e693          	or	a3,s1,1
    30a0:	00d42223          	sw	a3,4(s0)
    30a4:	009404b3          	add	s1,s0,s1
    30a8:	0099aa23          	sw	s1,20(s3)
    30ac:	0099a823          	sw	s1,16(s3)
    30b0:	00176693          	or	a3,a4,1
    30b4:	0114a623          	sw	a7,12(s1)
    30b8:	0114a423          	sw	a7,8(s1)
    30bc:	00d4a223          	sw	a3,4(s1)
    30c0:	00f407b3          	add	a5,s0,a5
    30c4:	00090513          	mv	a0,s2
    30c8:	00e7a023          	sw	a4,0(a5)
    30cc:	778000ef          	jal	3844 <__malloc_unlock>
    30d0:	00840513          	add	a0,s0,8
    30d4:	b7dff06f          	j	2c50 <_malloc_r+0x8c>
    30d8:	0067d713          	srl	a4,a5,0x6
    30dc:	03970613          	add	a2,a4,57
    30e0:	03870693          	add	a3,a4,56
    30e4:	00361613          	sll	a2,a2,0x3
    30e8:	ec5ff06f          	j	2fac <_malloc_r+0x3e8>
    30ec:	07340c63          	beq	s0,s3,3164 <_malloc_r+0x5a0>
    30f0:	0089a403          	lw	s0,8(s3)
    30f4:	00812c03          	lw	s8,8(sp)
    30f8:	00442783          	lw	a5,4(s0)
    30fc:	e09ff06f          	j	2f04 <_malloc_r+0x340>
    3100:	05c78593          	add	a1,a5,92
    3104:	05b78813          	add	a6,a5,91
    3108:	00359613          	sll	a2,a1,0x3
    310c:	b99ff06f          	j	2ca4 <_malloc_r+0xe0>
    3110:	00832783          	lw	a5,8(t1)
    3114:	fff58593          	add	a1,a1,-1
    3118:	28679063          	bne	a5,t1,3398 <_malloc_r+0x7d4>
    311c:	0035f793          	and	a5,a1,3
    3120:	ff830313          	add	t1,t1,-8
    3124:	fe0796e3          	bnez	a5,3110 <_malloc_r+0x54c>
    3128:	0049a703          	lw	a4,4(s3)
    312c:	fff64793          	not	a5,a2
    3130:	00e7f7b3          	and	a5,a5,a4
    3134:	00f9a223          	sw	a5,4(s3)
    3138:	00161613          	sll	a2,a2,0x1
    313c:	cec7e0e3          	bltu	a5,a2,2e1c <_malloc_r+0x258>
    3140:	cc060ee3          	beqz	a2,2e1c <_malloc_r+0x258>
    3144:	00f67733          	and	a4,a2,a5
    3148:	00071a63          	bnez	a4,315c <_malloc_r+0x598>
    314c:	00161613          	sll	a2,a2,0x1
    3150:	00f67733          	and	a4,a2,a5
    3154:	004e0e13          	add	t3,t3,4
    3158:	fe070ae3          	beqz	a4,314c <_malloc_r+0x588>
    315c:	000e0593          	mv	a1,t3
    3160:	c3dff06f          	j	2d9c <_malloc_r+0x1d8>
    3164:	00006c17          	auipc	s8,0x6
    3168:	f10c0c13          	add	s8,s8,-240 # 9074 <__malloc_current_mallinfo>
    316c:	000c2703          	lw	a4,0(s8)
    3170:	00ea8733          	add	a4,s5,a4
    3174:	00ec2023          	sw	a4,0(s8)
    3178:	000ca683          	lw	a3,0(s9)
    317c:	fff00793          	li	a5,-1
    3180:	18f68663          	beq	a3,a5,330c <_malloc_r+0x748>
    3184:	414b87b3          	sub	a5,s7,s4
    3188:	00e787b3          	add	a5,a5,a4
    318c:	00fc2023          	sw	a5,0(s8)
    3190:	007bfc93          	and	s9,s7,7
    3194:	0c0c8c63          	beqz	s9,326c <_malloc_r+0x6a8>
    3198:	419b8bb3          	sub	s7,s7,s9
    319c:	000017b7          	lui	a5,0x1
    31a0:	00878793          	add	a5,a5,8 # 1008 <altera_avalon_jtag_uart_read+0x1fc>
    31a4:	008b8b93          	add	s7,s7,8
    31a8:	419785b3          	sub	a1,a5,s9
    31ac:	015b8ab3          	add	s5,s7,s5
    31b0:	415585b3          	sub	a1,a1,s5
    31b4:	01459593          	sll	a1,a1,0x14
    31b8:	0145da13          	srl	s4,a1,0x14
    31bc:	000a0593          	mv	a1,s4
    31c0:	00090513          	mv	a0,s2
    31c4:	348000ef          	jal	350c <_sbrk_r>
    31c8:	fff00793          	li	a5,-1
    31cc:	18f50063          	beq	a0,a5,334c <_malloc_r+0x788>
    31d0:	41750533          	sub	a0,a0,s7
    31d4:	01450ab3          	add	s5,a0,s4
    31d8:	000c2703          	lw	a4,0(s8)
    31dc:	0179a423          	sw	s7,8(s3)
    31e0:	001ae793          	or	a5,s5,1
    31e4:	00ea05b3          	add	a1,s4,a4
    31e8:	00bc2023          	sw	a1,0(s8)
    31ec:	00fba223          	sw	a5,4(s7)
    31f0:	cf3402e3          	beq	s0,s3,2ed4 <_malloc_r+0x310>
    31f4:	00f00693          	li	a3,15
    31f8:	0b66f063          	bgeu	a3,s6,3298 <_malloc_r+0x6d4>
    31fc:	00442703          	lw	a4,4(s0)
    3200:	ff4b0793          	add	a5,s6,-12
    3204:	ff87f793          	and	a5,a5,-8
    3208:	00177713          	and	a4,a4,1
    320c:	00f76733          	or	a4,a4,a5
    3210:	00e42223          	sw	a4,4(s0)
    3214:	00500613          	li	a2,5
    3218:	00f40733          	add	a4,s0,a5
    321c:	00c72223          	sw	a2,4(a4)
    3220:	00c72423          	sw	a2,8(a4)
    3224:	00f6e663          	bltu	a3,a5,3230 <_malloc_r+0x66c>
    3228:	004ba783          	lw	a5,4(s7)
    322c:	ca9ff06f          	j	2ed4 <_malloc_r+0x310>
    3230:	00840593          	add	a1,s0,8
    3234:	00090513          	mv	a0,s2
    3238:	401000ef          	jal	3e38 <_free_r>
    323c:	0089ab83          	lw	s7,8(s3)
    3240:	000c2583          	lw	a1,0(s8)
    3244:	004ba783          	lw	a5,4(s7)
    3248:	c8dff06f          	j	2ed4 <_malloc_r+0x310>
    324c:	010a8a93          	add	s5,s5,16
    3250:	c31ff06f          	j	2e80 <_malloc_r+0x2bc>
    3254:	4026d693          	sra	a3,a3,0x2
    3258:	00100793          	li	a5,1
    325c:	00d797b3          	sll	a5,a5,a3
    3260:	00f56533          	or	a0,a0,a5
    3264:	00a9a223          	sw	a0,4(s3)
    3268:	d71ff06f          	j	2fd8 <_malloc_r+0x414>
    326c:	015b85b3          	add	a1,s7,s5
    3270:	40b005b3          	neg	a1,a1
    3274:	01459593          	sll	a1,a1,0x14
    3278:	0145da13          	srl	s4,a1,0x14
    327c:	000a0593          	mv	a1,s4
    3280:	00090513          	mv	a0,s2
    3284:	288000ef          	jal	350c <_sbrk_r>
    3288:	fff00793          	li	a5,-1
    328c:	f4f512e3          	bne	a0,a5,31d0 <_malloc_r+0x60c>
    3290:	00000a13          	li	s4,0
    3294:	f45ff06f          	j	31d8 <_malloc_r+0x614>
    3298:	00812c03          	lw	s8,8(sp)
    329c:	00100793          	li	a5,1
    32a0:	00fba223          	sw	a5,4(s7)
    32a4:	00090513          	mv	a0,s2
    32a8:	59c000ef          	jal	3844 <__malloc_unlock>
    32ac:	00000513          	li	a0,0
    32b0:	01812a03          	lw	s4,24(sp)
    32b4:	01412a83          	lw	s5,20(sp)
    32b8:	01012b03          	lw	s6,16(sp)
    32bc:	00c12b83          	lw	s7,12(sp)
    32c0:	00412c83          	lw	s9,4(sp)
    32c4:	98dff06f          	j	2c50 <_malloc_r+0x8c>
    32c8:	05400693          	li	a3,84
    32cc:	04e6e463          	bltu	a3,a4,3314 <_malloc_r+0x750>
    32d0:	00c7d713          	srl	a4,a5,0xc
    32d4:	06f70613          	add	a2,a4,111
    32d8:	06e70693          	add	a3,a4,110
    32dc:	00361613          	sll	a2,a2,0x3
    32e0:	ccdff06f          	j	2fac <_malloc_r+0x3e8>
    32e4:	15400713          	li	a4,340
    32e8:	04f76463          	bltu	a4,a5,3330 <_malloc_r+0x76c>
    32ec:	00f4d793          	srl	a5,s1,0xf
    32f0:	07878593          	add	a1,a5,120
    32f4:	07778813          	add	a6,a5,119
    32f8:	00359613          	sll	a2,a1,0x3
    32fc:	9a9ff06f          	j	2ca4 <_malloc_r+0xe0>
    3300:	0089a403          	lw	s0,8(s3)
    3304:	00442783          	lw	a5,4(s0)
    3308:	bfdff06f          	j	2f04 <_malloc_r+0x340>
    330c:	017ca023          	sw	s7,0(s9)
    3310:	e81ff06f          	j	3190 <_malloc_r+0x5cc>
    3314:	15400693          	li	a3,340
    3318:	04e6e463          	bltu	a3,a4,3360 <_malloc_r+0x79c>
    331c:	00f7d713          	srl	a4,a5,0xf
    3320:	07870613          	add	a2,a4,120
    3324:	07770693          	add	a3,a4,119
    3328:	00361613          	sll	a2,a2,0x3
    332c:	c81ff06f          	j	2fac <_malloc_r+0x3e8>
    3330:	55400713          	li	a4,1364
    3334:	04f76463          	bltu	a4,a5,337c <_malloc_r+0x7b8>
    3338:	0124d793          	srl	a5,s1,0x12
    333c:	07d78593          	add	a1,a5,125
    3340:	07c78813          	add	a6,a5,124
    3344:	00359613          	sll	a2,a1,0x3
    3348:	95dff06f          	j	2ca4 <_malloc_r+0xe0>
    334c:	ff8c8c93          	add	s9,s9,-8
    3350:	019a8ab3          	add	s5,s5,s9
    3354:	417a8ab3          	sub	s5,s5,s7
    3358:	00000a13          	li	s4,0
    335c:	e7dff06f          	j	31d8 <_malloc_r+0x614>
    3360:	55400693          	li	a3,1364
    3364:	02e6e463          	bltu	a3,a4,338c <_malloc_r+0x7c8>
    3368:	0127d713          	srl	a4,a5,0x12
    336c:	07d70613          	add	a2,a4,125
    3370:	07c70693          	add	a3,a4,124
    3374:	00361613          	sll	a2,a2,0x3
    3378:	c35ff06f          	j	2fac <_malloc_r+0x3e8>
    337c:	3f800613          	li	a2,1016
    3380:	07f00593          	li	a1,127
    3384:	07e00813          	li	a6,126
    3388:	91dff06f          	j	2ca4 <_malloc_r+0xe0>
    338c:	3f800613          	li	a2,1016
    3390:	07e00693          	li	a3,126
    3394:	c19ff06f          	j	2fac <_malloc_r+0x3e8>
    3398:	0049a783          	lw	a5,4(s3)
    339c:	d9dff06f          	j	3138 <_malloc_r+0x574>

000033a0 <__call_exitprocs>:
    33a0:	fd010113          	add	sp,sp,-48
    33a4:	01712623          	sw	s7,12(sp)
    33a8:	82c18b93          	add	s7,gp,-2004 # 76c0 <__atexit_recursive_mutex>
    33ac:	01612823          	sw	s6,16(sp)
    33b0:	00050b13          	mv	s6,a0
    33b4:	000ba503          	lw	a0,0(s7)
    33b8:	01412c23          	sw	s4,24(sp)
    33bc:	00006a17          	auipc	s4,0x6
    33c0:	ad8a0a13          	add	s4,s4,-1320 # 8e94 <__atexit>
    33c4:	03212023          	sw	s2,32(sp)
    33c8:	01812423          	sw	s8,8(sp)
    33cc:	02112623          	sw	ra,44(sp)
    33d0:	00058c13          	mv	s8,a1
    33d4:	500000ef          	jal	38d4 <__retarget_lock_acquire_recursive>
    33d8:	000a2903          	lw	s2,0(s4)
    33dc:	08090c63          	beqz	s2,3474 <__call_exitprocs+0xd4>
    33e0:	01312e23          	sw	s3,28(sp)
    33e4:	01512a23          	sw	s5,20(sp)
    33e8:	02812423          	sw	s0,40(sp)
    33ec:	02912223          	sw	s1,36(sp)
    33f0:	01912223          	sw	s9,4(sp)
    33f4:	fff00993          	li	s3,-1
    33f8:	00100a93          	li	s5,1
    33fc:	00492483          	lw	s1,4(s2)
    3400:	fff48413          	add	s0,s1,-1
    3404:	04044e63          	bltz	s0,3460 <__call_exitprocs+0xc0>
    3408:	00249493          	sll	s1,s1,0x2
    340c:	009904b3          	add	s1,s2,s1
    3410:	080c1463          	bnez	s8,3498 <__call_exitprocs+0xf8>
    3414:	00492783          	lw	a5,4(s2)
    3418:	0044a683          	lw	a3,4(s1)
    341c:	fff78793          	add	a5,a5,-1
    3420:	0c878063          	beq	a5,s0,34e0 <__call_exitprocs+0x140>
    3424:	0004a223          	sw	zero,4(s1)
    3428:	02068663          	beqz	a3,3454 <__call_exitprocs+0xb4>
    342c:	18892783          	lw	a5,392(s2)
    3430:	008a9733          	sll	a4,s5,s0
    3434:	00492c83          	lw	s9,4(s2)
    3438:	00f777b3          	and	a5,a4,a5
    343c:	06079a63          	bnez	a5,34b0 <__call_exitprocs+0x110>
    3440:	000680e7          	jalr	a3
    3444:	00492703          	lw	a4,4(s2)
    3448:	000a2783          	lw	a5,0(s4)
    344c:	09971463          	bne	a4,s9,34d4 <__call_exitprocs+0x134>
    3450:	09279263          	bne	a5,s2,34d4 <__call_exitprocs+0x134>
    3454:	fff40413          	add	s0,s0,-1
    3458:	ffc48493          	add	s1,s1,-4
    345c:	fb341ae3          	bne	s0,s3,3410 <__call_exitprocs+0x70>
    3460:	02812403          	lw	s0,40(sp)
    3464:	02412483          	lw	s1,36(sp)
    3468:	01c12983          	lw	s3,28(sp)
    346c:	01412a83          	lw	s5,20(sp)
    3470:	00412c83          	lw	s9,4(sp)
    3474:	000ba503          	lw	a0,0(s7)
    3478:	02c12083          	lw	ra,44(sp)
    347c:	02012903          	lw	s2,32(sp)
    3480:	01812a03          	lw	s4,24(sp)
    3484:	01012b03          	lw	s6,16(sp)
    3488:	00c12b83          	lw	s7,12(sp)
    348c:	00812c03          	lw	s8,8(sp)
    3490:	03010113          	add	sp,sp,48
    3494:	4580006f          	j	38ec <__retarget_lock_release_recursive>
    3498:	1044a783          	lw	a5,260(s1)
    349c:	f7878ce3          	beq	a5,s8,3414 <__call_exitprocs+0x74>
    34a0:	fff40413          	add	s0,s0,-1
    34a4:	ffc48493          	add	s1,s1,-4
    34a8:	ff3418e3          	bne	s0,s3,3498 <__call_exitprocs+0xf8>
    34ac:	fb5ff06f          	j	3460 <__call_exitprocs+0xc0>
    34b0:	18c92783          	lw	a5,396(s2)
    34b4:	0844a583          	lw	a1,132(s1)
    34b8:	00f77733          	and	a4,a4,a5
    34bc:	02071663          	bnez	a4,34e8 <__call_exitprocs+0x148>
    34c0:	000b0513          	mv	a0,s6
    34c4:	000680e7          	jalr	a3
    34c8:	00492703          	lw	a4,4(s2)
    34cc:	000a2783          	lw	a5,0(s4)
    34d0:	f99700e3          	beq	a4,s9,3450 <__call_exitprocs+0xb0>
    34d4:	f80786e3          	beqz	a5,3460 <__call_exitprocs+0xc0>
    34d8:	00078913          	mv	s2,a5
    34dc:	f21ff06f          	j	33fc <__call_exitprocs+0x5c>
    34e0:	00892223          	sw	s0,4(s2)
    34e4:	f45ff06f          	j	3428 <__call_exitprocs+0x88>
    34e8:	00058513          	mv	a0,a1
    34ec:	000680e7          	jalr	a3
    34f0:	f55ff06f          	j	3444 <__call_exitprocs+0xa4>

000034f4 <register_fini>:
    34f4:	00000793          	li	a5,0
    34f8:	00078863          	beqz	a5,3508 <register_fini+0x14>
    34fc:	00000517          	auipc	a0,0x0
    3500:	36850513          	add	a0,a0,872 # 3864 <__libc_fini_array>
    3504:	34c0006f          	j	3850 <atexit>
    3508:	00008067          	ret

0000350c <_sbrk_r>:
    350c:	ff010113          	add	sp,sp,-16
    3510:	00812423          	sw	s0,8(sp)
    3514:	00050413          	mv	s0,a0
    3518:	00058513          	mv	a0,a1
    351c:	00006797          	auipc	a5,0x6
    3520:	9607a223          	sw	zero,-1692(a5) # 8e80 <errno>
    3524:	00112623          	sw	ra,12(sp)
    3528:	439010ef          	jal	5160 <_sbrk>
    352c:	fff00793          	li	a5,-1
    3530:	00f50a63          	beq	a0,a5,3544 <_sbrk_r+0x38>
    3534:	00c12083          	lw	ra,12(sp)
    3538:	00812403          	lw	s0,8(sp)
    353c:	01010113          	add	sp,sp,16
    3540:	00008067          	ret
    3544:	00006797          	auipc	a5,0x6
    3548:	93c7a783          	lw	a5,-1732(a5) # 8e80 <errno>
    354c:	fe0784e3          	beqz	a5,3534 <_sbrk_r+0x28>
    3550:	00c12083          	lw	ra,12(sp)
    3554:	00f42023          	sw	a5,0(s0)
    3558:	00812403          	lw	s0,8(sp)
    355c:	01010113          	add	sp,sp,16
    3560:	00008067          	ret

00003564 <_write_r>:
    3564:	ff010113          	add	sp,sp,-16
    3568:	00058713          	mv	a4,a1
    356c:	00812423          	sw	s0,8(sp)
    3570:	00060593          	mv	a1,a2
    3574:	00050413          	mv	s0,a0
    3578:	00068613          	mv	a2,a3
    357c:	00070513          	mv	a0,a4
    3580:	00006797          	auipc	a5,0x6
    3584:	9007a023          	sw	zero,-1792(a5) # 8e80 <errno>
    3588:	00112623          	sw	ra,12(sp)
    358c:	4cd010ef          	jal	5258 <_write>
    3590:	fff00793          	li	a5,-1
    3594:	00f50a63          	beq	a0,a5,35a8 <_write_r+0x44>
    3598:	00c12083          	lw	ra,12(sp)
    359c:	00812403          	lw	s0,8(sp)
    35a0:	01010113          	add	sp,sp,16
    35a4:	00008067          	ret
    35a8:	00006797          	auipc	a5,0x6
    35ac:	8d87a783          	lw	a5,-1832(a5) # 8e80 <errno>
    35b0:	fe0784e3          	beqz	a5,3598 <_write_r+0x34>
    35b4:	00c12083          	lw	ra,12(sp)
    35b8:	00f42023          	sw	a5,0(s0)
    35bc:	00812403          	lw	s0,8(sp)
    35c0:	01010113          	add	sp,sp,16
    35c4:	00008067          	ret

000035c8 <__smakebuf_r>:
    35c8:	00c59783          	lh	a5,12(a1)
    35cc:	f8010113          	add	sp,sp,-128
    35d0:	06812c23          	sw	s0,120(sp)
    35d4:	06112e23          	sw	ra,124(sp)
    35d8:	0027f713          	and	a4,a5,2
    35dc:	00058413          	mv	s0,a1
    35e0:	02070463          	beqz	a4,3608 <__smakebuf_r+0x40>
    35e4:	04358793          	add	a5,a1,67
    35e8:	00f5a023          	sw	a5,0(a1)
    35ec:	00f5a823          	sw	a5,16(a1)
    35f0:	00100793          	li	a5,1
    35f4:	00f5aa23          	sw	a5,20(a1)
    35f8:	07c12083          	lw	ra,124(sp)
    35fc:	07812403          	lw	s0,120(sp)
    3600:	08010113          	add	sp,sp,128
    3604:	00008067          	ret
    3608:	00e59583          	lh	a1,14(a1)
    360c:	06912a23          	sw	s1,116(sp)
    3610:	07212823          	sw	s2,112(sp)
    3614:	07312623          	sw	s3,108(sp)
    3618:	07412423          	sw	s4,104(sp)
    361c:	00050493          	mv	s1,a0
    3620:	0805c663          	bltz	a1,36ac <__smakebuf_r+0xe4>
    3624:	00810613          	add	a2,sp,8
    3628:	76d000ef          	jal	4594 <_fstat_r>
    362c:	06054e63          	bltz	a0,36a8 <__smakebuf_r+0xe0>
    3630:	00c12783          	lw	a5,12(sp)
    3634:	0000f937          	lui	s2,0xf
    3638:	000019b7          	lui	s3,0x1
    363c:	00f97933          	and	s2,s2,a5
    3640:	ffffe7b7          	lui	a5,0xffffe
    3644:	00f90933          	add	s2,s2,a5
    3648:	00193913          	seqz	s2,s2
    364c:	40000a13          	li	s4,1024
    3650:	80098993          	add	s3,s3,-2048 # 800 <altera_avalon_jtag_uart_write_fd+0x24>
    3654:	000a0593          	mv	a1,s4
    3658:	00048513          	mv	a0,s1
    365c:	d68ff0ef          	jal	2bc4 <_malloc_r>
    3660:	00c41783          	lh	a5,12(s0)
    3664:	06050863          	beqz	a0,36d4 <__smakebuf_r+0x10c>
    3668:	0807e793          	or	a5,a5,128
    366c:	00a42023          	sw	a0,0(s0)
    3670:	00a42823          	sw	a0,16(s0)
    3674:	00f41623          	sh	a5,12(s0)
    3678:	01442a23          	sw	s4,20(s0)
    367c:	0a091063          	bnez	s2,371c <__smakebuf_r+0x154>
    3680:	0137e7b3          	or	a5,a5,s3
    3684:	07c12083          	lw	ra,124(sp)
    3688:	00f41623          	sh	a5,12(s0)
    368c:	07812403          	lw	s0,120(sp)
    3690:	07412483          	lw	s1,116(sp)
    3694:	07012903          	lw	s2,112(sp)
    3698:	06c12983          	lw	s3,108(sp)
    369c:	06812a03          	lw	s4,104(sp)
    36a0:	08010113          	add	sp,sp,128
    36a4:	00008067          	ret
    36a8:	00c41783          	lh	a5,12(s0)
    36ac:	0807f793          	and	a5,a5,128
    36b0:	00000913          	li	s2,0
    36b4:	04078e63          	beqz	a5,3710 <__smakebuf_r+0x148>
    36b8:	04000a13          	li	s4,64
    36bc:	000a0593          	mv	a1,s4
    36c0:	00048513          	mv	a0,s1
    36c4:	d00ff0ef          	jal	2bc4 <_malloc_r>
    36c8:	00c41783          	lh	a5,12(s0)
    36cc:	00000993          	li	s3,0
    36d0:	f8051ce3          	bnez	a0,3668 <__smakebuf_r+0xa0>
    36d4:	2007f713          	and	a4,a5,512
    36d8:	04071e63          	bnez	a4,3734 <__smakebuf_r+0x16c>
    36dc:	ffc7f793          	and	a5,a5,-4
    36e0:	0027e793          	or	a5,a5,2
    36e4:	04340713          	add	a4,s0,67
    36e8:	00f41623          	sh	a5,12(s0)
    36ec:	00100793          	li	a5,1
    36f0:	07412483          	lw	s1,116(sp)
    36f4:	07012903          	lw	s2,112(sp)
    36f8:	06c12983          	lw	s3,108(sp)
    36fc:	06812a03          	lw	s4,104(sp)
    3700:	00e42023          	sw	a4,0(s0)
    3704:	00e42823          	sw	a4,16(s0)
    3708:	00f42a23          	sw	a5,20(s0)
    370c:	eedff06f          	j	35f8 <__smakebuf_r+0x30>
    3710:	40000a13          	li	s4,1024
    3714:	00000993          	li	s3,0
    3718:	f3dff06f          	j	3654 <__smakebuf_r+0x8c>
    371c:	00e41583          	lh	a1,14(s0)
    3720:	00048513          	mv	a0,s1
    3724:	6d1000ef          	jal	45f4 <_isatty_r>
    3728:	02051063          	bnez	a0,3748 <__smakebuf_r+0x180>
    372c:	00c41783          	lh	a5,12(s0)
    3730:	f51ff06f          	j	3680 <__smakebuf_r+0xb8>
    3734:	07412483          	lw	s1,116(sp)
    3738:	07012903          	lw	s2,112(sp)
    373c:	06c12983          	lw	s3,108(sp)
    3740:	06812a03          	lw	s4,104(sp)
    3744:	eb5ff06f          	j	35f8 <__smakebuf_r+0x30>
    3748:	00c45783          	lhu	a5,12(s0)
    374c:	ffc7f793          	and	a5,a5,-4
    3750:	0017e793          	or	a5,a5,1
    3754:	01079793          	sll	a5,a5,0x10
    3758:	4107d793          	sra	a5,a5,0x10
    375c:	f25ff06f          	j	3680 <__smakebuf_r+0xb8>

00003760 <__swhatbuf_r>:
    3760:	f9010113          	add	sp,sp,-112
    3764:	06812423          	sw	s0,104(sp)
    3768:	00058413          	mv	s0,a1
    376c:	00e59583          	lh	a1,14(a1)
    3770:	06912223          	sw	s1,100(sp)
    3774:	07212023          	sw	s2,96(sp)
    3778:	06112623          	sw	ra,108(sp)
    377c:	00060493          	mv	s1,a2
    3780:	00068913          	mv	s2,a3
    3784:	0405ca63          	bltz	a1,37d8 <__swhatbuf_r+0x78>
    3788:	00810613          	add	a2,sp,8
    378c:	609000ef          	jal	4594 <_fstat_r>
    3790:	04054463          	bltz	a0,37d8 <__swhatbuf_r+0x78>
    3794:	00c12703          	lw	a4,12(sp)
    3798:	0000f7b7          	lui	a5,0xf
    379c:	06c12083          	lw	ra,108(sp)
    37a0:	00e7f7b3          	and	a5,a5,a4
    37a4:	ffffe737          	lui	a4,0xffffe
    37a8:	00e787b3          	add	a5,a5,a4
    37ac:	06812403          	lw	s0,104(sp)
    37b0:	0017b793          	seqz	a5,a5
    37b4:	00f92023          	sw	a5,0(s2) # f000 <__alt_heap_start+0x5dd4>
    37b8:	40000713          	li	a4,1024
    37bc:	00e4a023          	sw	a4,0(s1)
    37c0:	00001537          	lui	a0,0x1
    37c4:	06412483          	lw	s1,100(sp)
    37c8:	06012903          	lw	s2,96(sp)
    37cc:	80050513          	add	a0,a0,-2048 # 800 <altera_avalon_jtag_uart_write_fd+0x24>
    37d0:	07010113          	add	sp,sp,112
    37d4:	00008067          	ret
    37d8:	00c45783          	lhu	a5,12(s0)
    37dc:	0807f793          	and	a5,a5,128
    37e0:	02078863          	beqz	a5,3810 <__swhatbuf_r+0xb0>
    37e4:	06c12083          	lw	ra,108(sp)
    37e8:	06812403          	lw	s0,104(sp)
    37ec:	00000793          	li	a5,0
    37f0:	00f92023          	sw	a5,0(s2)
    37f4:	04000713          	li	a4,64
    37f8:	00e4a023          	sw	a4,0(s1)
    37fc:	06012903          	lw	s2,96(sp)
    3800:	06412483          	lw	s1,100(sp)
    3804:	00000513          	li	a0,0
    3808:	07010113          	add	sp,sp,112
    380c:	00008067          	ret
    3810:	06c12083          	lw	ra,108(sp)
    3814:	06812403          	lw	s0,104(sp)
    3818:	00f92023          	sw	a5,0(s2)
    381c:	40000713          	li	a4,1024
    3820:	00e4a023          	sw	a4,0(s1)
    3824:	06012903          	lw	s2,96(sp)
    3828:	06412483          	lw	s1,100(sp)
    382c:	00000513          	li	a0,0
    3830:	07010113          	add	sp,sp,112
    3834:	00008067          	ret

00003838 <__malloc_lock>:
    3838:	00005517          	auipc	a0,0x5
    383c:	67050513          	add	a0,a0,1648 # 8ea8 <__lock___malloc_recursive_mutex>
    3840:	0940006f          	j	38d4 <__retarget_lock_acquire_recursive>

00003844 <__malloc_unlock>:
    3844:	00005517          	auipc	a0,0x5
    3848:	66450513          	add	a0,a0,1636 # 8ea8 <__lock___malloc_recursive_mutex>
    384c:	0a00006f          	j	38ec <__retarget_lock_release_recursive>

00003850 <atexit>:
    3850:	00050593          	mv	a1,a0
    3854:	00000693          	li	a3,0
    3858:	00000613          	li	a2,0
    385c:	00000513          	li	a0,0
    3860:	6b50006f          	j	4714 <__register_exitproc>

00003864 <__libc_fini_array>:
    3864:	ff010113          	add	sp,sp,-16
    3868:	00812423          	sw	s0,8(sp)
    386c:	00002797          	auipc	a5,0x2
    3870:	68078793          	add	a5,a5,1664 # 5eec <__fini_array_end>
    3874:	00002417          	auipc	s0,0x2
    3878:	67840413          	add	s0,s0,1656 # 5eec <__fini_array_end>
    387c:	40f40433          	sub	s0,s0,a5
    3880:	00912223          	sw	s1,4(sp)
    3884:	00112623          	sw	ra,12(sp)
    3888:	40245493          	sra	s1,s0,0x2
    388c:	02048063          	beqz	s1,38ac <__libc_fini_array+0x48>
    3890:	ffc40413          	add	s0,s0,-4
    3894:	00f40433          	add	s0,s0,a5
    3898:	00042783          	lw	a5,0(s0)
    389c:	fff48493          	add	s1,s1,-1
    38a0:	ffc40413          	add	s0,s0,-4
    38a4:	000780e7          	jalr	a5
    38a8:	fe0498e3          	bnez	s1,3898 <__libc_fini_array+0x34>
    38ac:	00c12083          	lw	ra,12(sp)
    38b0:	00812403          	lw	s0,8(sp)
    38b4:	00412483          	lw	s1,4(sp)
    38b8:	01010113          	add	sp,sp,16
    38bc:	00008067          	ret

000038c0 <__retarget_lock_init>:
    38c0:	00008067          	ret

000038c4 <__retarget_lock_init_recursive>:
    38c4:	00008067          	ret

000038c8 <__retarget_lock_close>:
    38c8:	00008067          	ret

000038cc <__retarget_lock_close_recursive>:
    38cc:	00008067          	ret

000038d0 <__retarget_lock_acquire>:
    38d0:	00008067          	ret

000038d4 <__retarget_lock_acquire_recursive>:
    38d4:	00008067          	ret

000038d8 <__retarget_lock_try_acquire>:
    38d8:	00100513          	li	a0,1
    38dc:	00008067          	ret

000038e0 <__retarget_lock_try_acquire_recursive>:
    38e0:	00100513          	li	a0,1
    38e4:	00008067          	ret

000038e8 <__retarget_lock_release>:
    38e8:	00008067          	ret

000038ec <__retarget_lock_release_recursive>:
    38ec:	00008067          	ret

000038f0 <close>:
    38f0:	00050593          	mv	a1,a0
    38f4:	8201a503          	lw	a0,-2016(gp) # 76b4 <_impure_ptr>
    38f8:	4450006f          	j	453c <_close_r>

000038fc <_fclose_r>:
    38fc:	ff010113          	add	sp,sp,-16
    3900:	00112623          	sw	ra,12(sp)
    3904:	01212023          	sw	s2,0(sp)
    3908:	0e058263          	beqz	a1,39ec <_fclose_r+0xf0>
    390c:	00812423          	sw	s0,8(sp)
    3910:	00912223          	sw	s1,4(sp)
    3914:	00058413          	mv	s0,a1
    3918:	00050493          	mv	s1,a0
    391c:	00050663          	beqz	a0,3928 <_fclose_r+0x2c>
    3920:	03452783          	lw	a5,52(a0)
    3924:	10078063          	beqz	a5,3a24 <_fclose_r+0x128>
    3928:	06442783          	lw	a5,100(s0)
    392c:	00c41703          	lh	a4,12(s0)
    3930:	0017f793          	and	a5,a5,1
    3934:	0a079663          	bnez	a5,39e0 <_fclose_r+0xe4>
    3938:	20077713          	and	a4,a4,512
    393c:	0e070863          	beqz	a4,3a2c <_fclose_r+0x130>
    3940:	00040593          	mv	a1,s0
    3944:	00048513          	mv	a0,s1
    3948:	7f8000ef          	jal	4140 <__sflush_r>
    394c:	02c42783          	lw	a5,44(s0)
    3950:	00050913          	mv	s2,a0
    3954:	00078a63          	beqz	a5,3968 <_fclose_r+0x6c>
    3958:	01c42583          	lw	a1,28(s0)
    395c:	00048513          	mv	a0,s1
    3960:	000780e7          	jalr	a5
    3964:	0a054063          	bltz	a0,3a04 <_fclose_r+0x108>
    3968:	00c45783          	lhu	a5,12(s0)
    396c:	0807f793          	and	a5,a5,128
    3970:	0a079263          	bnez	a5,3a14 <_fclose_r+0x118>
    3974:	03042583          	lw	a1,48(s0)
    3978:	00058c63          	beqz	a1,3990 <_fclose_r+0x94>
    397c:	04040793          	add	a5,s0,64
    3980:	00f58663          	beq	a1,a5,398c <_fclose_r+0x90>
    3984:	00048513          	mv	a0,s1
    3988:	4b0000ef          	jal	3e38 <_free_r>
    398c:	02042823          	sw	zero,48(s0)
    3990:	04442583          	lw	a1,68(s0)
    3994:	00058863          	beqz	a1,39a4 <_fclose_r+0xa8>
    3998:	00048513          	mv	a0,s1
    399c:	49c000ef          	jal	3e38 <_free_r>
    39a0:	04042223          	sw	zero,68(s0)
    39a4:	c6dfe0ef          	jal	2610 <__sfp_lock_acquire>
    39a8:	06442783          	lw	a5,100(s0)
    39ac:	00041623          	sh	zero,12(s0)
    39b0:	0017f793          	and	a5,a5,1
    39b4:	0a078663          	beqz	a5,3a60 <_fclose_r+0x164>
    39b8:	05842503          	lw	a0,88(s0)
    39bc:	f11ff0ef          	jal	38cc <__retarget_lock_close_recursive>
    39c0:	c5dfe0ef          	jal	261c <__sfp_lock_release>
    39c4:	00c12083          	lw	ra,12(sp)
    39c8:	00812403          	lw	s0,8(sp)
    39cc:	00412483          	lw	s1,4(sp)
    39d0:	00090513          	mv	a0,s2
    39d4:	00012903          	lw	s2,0(sp)
    39d8:	01010113          	add	sp,sp,16
    39dc:	00008067          	ret
    39e0:	f60710e3          	bnez	a4,3940 <_fclose_r+0x44>
    39e4:	00812403          	lw	s0,8(sp)
    39e8:	00412483          	lw	s1,4(sp)
    39ec:	00000913          	li	s2,0
    39f0:	00c12083          	lw	ra,12(sp)
    39f4:	00090513          	mv	a0,s2
    39f8:	00012903          	lw	s2,0(sp)
    39fc:	01010113          	add	sp,sp,16
    3a00:	00008067          	ret
    3a04:	00c45783          	lhu	a5,12(s0)
    3a08:	fff00913          	li	s2,-1
    3a0c:	0807f793          	and	a5,a5,128
    3a10:	f60782e3          	beqz	a5,3974 <_fclose_r+0x78>
    3a14:	01042583          	lw	a1,16(s0)
    3a18:	00048513          	mv	a0,s1
    3a1c:	41c000ef          	jal	3e38 <_free_r>
    3a20:	f55ff06f          	j	3974 <_fclose_r+0x78>
    3a24:	b7dfe0ef          	jal	25a0 <__sinit>
    3a28:	f01ff06f          	j	3928 <_fclose_r+0x2c>
    3a2c:	05842503          	lw	a0,88(s0)
    3a30:	ea5ff0ef          	jal	38d4 <__retarget_lock_acquire_recursive>
    3a34:	00c41783          	lh	a5,12(s0)
    3a38:	f00794e3          	bnez	a5,3940 <_fclose_r+0x44>
    3a3c:	06442783          	lw	a5,100(s0)
    3a40:	0017f793          	and	a5,a5,1
    3a44:	fa0790e3          	bnez	a5,39e4 <_fclose_r+0xe8>
    3a48:	05842503          	lw	a0,88(s0)
    3a4c:	00000913          	li	s2,0
    3a50:	e9dff0ef          	jal	38ec <__retarget_lock_release_recursive>
    3a54:	00812403          	lw	s0,8(sp)
    3a58:	00412483          	lw	s1,4(sp)
    3a5c:	f95ff06f          	j	39f0 <_fclose_r+0xf4>
    3a60:	05842503          	lw	a0,88(s0)
    3a64:	e89ff0ef          	jal	38ec <__retarget_lock_release_recursive>
    3a68:	f51ff06f          	j	39b8 <_fclose_r+0xbc>

00003a6c <fclose>:
    3a6c:	00050593          	mv	a1,a0
    3a70:	8201a503          	lw	a0,-2016(gp) # 76b4 <_impure_ptr>
    3a74:	e89ff06f          	j	38fc <_fclose_r>

00003a78 <memset>:
    3a78:	00f00313          	li	t1,15
    3a7c:	00050713          	mv	a4,a0
    3a80:	02c37e63          	bgeu	t1,a2,3abc <memset+0x44>
    3a84:	00f77793          	and	a5,a4,15
    3a88:	0a079063          	bnez	a5,3b28 <memset+0xb0>
    3a8c:	08059263          	bnez	a1,3b10 <memset+0x98>
    3a90:	ff067693          	and	a3,a2,-16
    3a94:	00f67613          	and	a2,a2,15
    3a98:	00e686b3          	add	a3,a3,a4
    3a9c:	00b72023          	sw	a1,0(a4) # ffffe000 <__alt_data_end+0xfffe0000>
    3aa0:	00b72223          	sw	a1,4(a4)
    3aa4:	00b72423          	sw	a1,8(a4)
    3aa8:	00b72623          	sw	a1,12(a4)
    3aac:	01070713          	add	a4,a4,16
    3ab0:	fed766e3          	bltu	a4,a3,3a9c <memset+0x24>
    3ab4:	00061463          	bnez	a2,3abc <memset+0x44>
    3ab8:	00008067          	ret
    3abc:	40c306b3          	sub	a3,t1,a2
    3ac0:	00269693          	sll	a3,a3,0x2
    3ac4:	00000297          	auipc	t0,0x0
    3ac8:	005686b3          	add	a3,a3,t0
    3acc:	00c68067          	jr	12(a3)
    3ad0:	00b70723          	sb	a1,14(a4)
    3ad4:	00b706a3          	sb	a1,13(a4)
    3ad8:	00b70623          	sb	a1,12(a4)
    3adc:	00b705a3          	sb	a1,11(a4)
    3ae0:	00b70523          	sb	a1,10(a4)
    3ae4:	00b704a3          	sb	a1,9(a4)
    3ae8:	00b70423          	sb	a1,8(a4)
    3aec:	00b703a3          	sb	a1,7(a4)
    3af0:	00b70323          	sb	a1,6(a4)
    3af4:	00b702a3          	sb	a1,5(a4)
    3af8:	00b70223          	sb	a1,4(a4)
    3afc:	00b701a3          	sb	a1,3(a4)
    3b00:	00b70123          	sb	a1,2(a4)
    3b04:	00b700a3          	sb	a1,1(a4)
    3b08:	00b70023          	sb	a1,0(a4)
    3b0c:	00008067          	ret
    3b10:	0ff5f593          	zext.b	a1,a1
    3b14:	00859693          	sll	a3,a1,0x8
    3b18:	00d5e5b3          	or	a1,a1,a3
    3b1c:	01059693          	sll	a3,a1,0x10
    3b20:	00d5e5b3          	or	a1,a1,a3
    3b24:	f6dff06f          	j	3a90 <memset+0x18>
    3b28:	00279693          	sll	a3,a5,0x2
    3b2c:	00000297          	auipc	t0,0x0
    3b30:	005686b3          	add	a3,a3,t0
    3b34:	00008293          	mv	t0,ra
    3b38:	fa0680e7          	jalr	-96(a3)
    3b3c:	00028093          	mv	ra,t0
    3b40:	ff078793          	add	a5,a5,-16
    3b44:	40f70733          	sub	a4,a4,a5
    3b48:	00f60633          	add	a2,a2,a5
    3b4c:	f6c378e3          	bgeu	t1,a2,3abc <memset+0x44>
    3b50:	f3dff06f          	j	3a8c <memset+0x14>

00003b54 <memcpy>:
    3b54:	00a5c7b3          	xor	a5,a1,a0
    3b58:	0037f793          	and	a5,a5,3
    3b5c:	00c508b3          	add	a7,a0,a2
    3b60:	06079463          	bnez	a5,3bc8 <memcpy+0x74>
    3b64:	00300793          	li	a5,3
    3b68:	06c7f063          	bgeu	a5,a2,3bc8 <memcpy+0x74>
    3b6c:	00357793          	and	a5,a0,3
    3b70:	00050713          	mv	a4,a0
    3b74:	06079a63          	bnez	a5,3be8 <memcpy+0x94>
    3b78:	ffc8f613          	and	a2,a7,-4
    3b7c:	40e606b3          	sub	a3,a2,a4
    3b80:	02000793          	li	a5,32
    3b84:	08d7ce63          	blt	a5,a3,3c20 <memcpy+0xcc>
    3b88:	00058693          	mv	a3,a1
    3b8c:	00070793          	mv	a5,a4
    3b90:	02c77863          	bgeu	a4,a2,3bc0 <memcpy+0x6c>
    3b94:	0006a803          	lw	a6,0(a3)
    3b98:	00478793          	add	a5,a5,4
    3b9c:	00468693          	add	a3,a3,4
    3ba0:	ff07ae23          	sw	a6,-4(a5)
    3ba4:	fec7e8e3          	bltu	a5,a2,3b94 <memcpy+0x40>
    3ba8:	fff60793          	add	a5,a2,-1
    3bac:	40e787b3          	sub	a5,a5,a4
    3bb0:	ffc7f793          	and	a5,a5,-4
    3bb4:	00478793          	add	a5,a5,4
    3bb8:	00f70733          	add	a4,a4,a5
    3bbc:	00f585b3          	add	a1,a1,a5
    3bc0:	01176863          	bltu	a4,a7,3bd0 <memcpy+0x7c>
    3bc4:	00008067          	ret
    3bc8:	00050713          	mv	a4,a0
    3bcc:	05157863          	bgeu	a0,a7,3c1c <memcpy+0xc8>
    3bd0:	0005c783          	lbu	a5,0(a1)
    3bd4:	00170713          	add	a4,a4,1
    3bd8:	00158593          	add	a1,a1,1
    3bdc:	fef70fa3          	sb	a5,-1(a4)
    3be0:	fee898e3          	bne	a7,a4,3bd0 <memcpy+0x7c>
    3be4:	00008067          	ret
    3be8:	0005c683          	lbu	a3,0(a1)
    3bec:	00170713          	add	a4,a4,1
    3bf0:	00377793          	and	a5,a4,3
    3bf4:	fed70fa3          	sb	a3,-1(a4)
    3bf8:	00158593          	add	a1,a1,1
    3bfc:	f6078ee3          	beqz	a5,3b78 <memcpy+0x24>
    3c00:	0005c683          	lbu	a3,0(a1)
    3c04:	00170713          	add	a4,a4,1
    3c08:	00377793          	and	a5,a4,3
    3c0c:	fed70fa3          	sb	a3,-1(a4)
    3c10:	00158593          	add	a1,a1,1
    3c14:	fc079ae3          	bnez	a5,3be8 <memcpy+0x94>
    3c18:	f61ff06f          	j	3b78 <memcpy+0x24>
    3c1c:	00008067          	ret
    3c20:	ff010113          	add	sp,sp,-16
    3c24:	00812623          	sw	s0,12(sp)
    3c28:	02000413          	li	s0,32
    3c2c:	0005a383          	lw	t2,0(a1)
    3c30:	0045a283          	lw	t0,4(a1)
    3c34:	0085af83          	lw	t6,8(a1)
    3c38:	00c5af03          	lw	t5,12(a1)
    3c3c:	0105ae83          	lw	t4,16(a1)
    3c40:	0145ae03          	lw	t3,20(a1)
    3c44:	0185a303          	lw	t1,24(a1)
    3c48:	01c5a803          	lw	a6,28(a1)
    3c4c:	0205a683          	lw	a3,32(a1)
    3c50:	02470713          	add	a4,a4,36
    3c54:	40e607b3          	sub	a5,a2,a4
    3c58:	fc772e23          	sw	t2,-36(a4)
    3c5c:	fe572023          	sw	t0,-32(a4)
    3c60:	fff72223          	sw	t6,-28(a4)
    3c64:	ffe72423          	sw	t5,-24(a4)
    3c68:	ffd72623          	sw	t4,-20(a4)
    3c6c:	ffc72823          	sw	t3,-16(a4)
    3c70:	fe672a23          	sw	t1,-12(a4)
    3c74:	ff072c23          	sw	a6,-8(a4)
    3c78:	fed72e23          	sw	a3,-4(a4)
    3c7c:	02458593          	add	a1,a1,36
    3c80:	faf446e3          	blt	s0,a5,3c2c <memcpy+0xd8>
    3c84:	00058693          	mv	a3,a1
    3c88:	00070793          	mv	a5,a4
    3c8c:	02c77863          	bgeu	a4,a2,3cbc <memcpy+0x168>
    3c90:	0006a803          	lw	a6,0(a3)
    3c94:	00478793          	add	a5,a5,4
    3c98:	00468693          	add	a3,a3,4
    3c9c:	ff07ae23          	sw	a6,-4(a5)
    3ca0:	fec7e8e3          	bltu	a5,a2,3c90 <memcpy+0x13c>
    3ca4:	fff60793          	add	a5,a2,-1
    3ca8:	40e787b3          	sub	a5,a5,a4
    3cac:	ffc7f793          	and	a5,a5,-4
    3cb0:	00478793          	add	a5,a5,4
    3cb4:	00f70733          	add	a4,a4,a5
    3cb8:	00f585b3          	add	a1,a1,a5
    3cbc:	01176863          	bltu	a4,a7,3ccc <memcpy+0x178>
    3cc0:	00c12403          	lw	s0,12(sp)
    3cc4:	01010113          	add	sp,sp,16
    3cc8:	00008067          	ret
    3ccc:	0005c783          	lbu	a5,0(a1)
    3cd0:	00170713          	add	a4,a4,1
    3cd4:	00158593          	add	a1,a1,1
    3cd8:	fef70fa3          	sb	a5,-1(a4)
    3cdc:	fee882e3          	beq	a7,a4,3cc0 <memcpy+0x16c>
    3ce0:	0005c783          	lbu	a5,0(a1)
    3ce4:	00170713          	add	a4,a4,1
    3ce8:	00158593          	add	a1,a1,1
    3cec:	fef70fa3          	sb	a5,-1(a4)
    3cf0:	fce89ee3          	bne	a7,a4,3ccc <memcpy+0x178>
    3cf4:	fcdff06f          	j	3cc0 <memcpy+0x16c>

00003cf8 <_malloc_trim_r>:
    3cf8:	fe010113          	add	sp,sp,-32
    3cfc:	00812c23          	sw	s0,24(sp)
    3d00:	00912a23          	sw	s1,20(sp)
    3d04:	01212823          	sw	s2,16(sp)
    3d08:	01312623          	sw	s3,12(sp)
    3d0c:	01412423          	sw	s4,8(sp)
    3d10:	00058993          	mv	s3,a1
    3d14:	00112e23          	sw	ra,28(sp)
    3d18:	00050913          	mv	s2,a0
    3d1c:	00003a17          	auipc	s4,0x3
    3d20:	570a0a13          	add	s4,s4,1392 # 728c <__malloc_av_>
    3d24:	b15ff0ef          	jal	3838 <__malloc_lock>
    3d28:	008a2703          	lw	a4,8(s4)
    3d2c:	000017b7          	lui	a5,0x1
    3d30:	fef78793          	add	a5,a5,-17 # fef <altera_avalon_jtag_uart_read+0x1e3>
    3d34:	00472483          	lw	s1,4(a4)
    3d38:	00001737          	lui	a4,0x1
    3d3c:	ffc4f493          	and	s1,s1,-4
    3d40:	00f48433          	add	s0,s1,a5
    3d44:	41340433          	sub	s0,s0,s3
    3d48:	00c45413          	srl	s0,s0,0xc
    3d4c:	fff40413          	add	s0,s0,-1
    3d50:	00c41413          	sll	s0,s0,0xc
    3d54:	00e44e63          	blt	s0,a4,3d70 <_malloc_trim_r+0x78>
    3d58:	00000593          	li	a1,0
    3d5c:	00090513          	mv	a0,s2
    3d60:	facff0ef          	jal	350c <_sbrk_r>
    3d64:	008a2783          	lw	a5,8(s4)
    3d68:	009787b3          	add	a5,a5,s1
    3d6c:	02f50863          	beq	a0,a5,3d9c <_malloc_trim_r+0xa4>
    3d70:	00090513          	mv	a0,s2
    3d74:	ad1ff0ef          	jal	3844 <__malloc_unlock>
    3d78:	01c12083          	lw	ra,28(sp)
    3d7c:	01812403          	lw	s0,24(sp)
    3d80:	01412483          	lw	s1,20(sp)
    3d84:	01012903          	lw	s2,16(sp)
    3d88:	00c12983          	lw	s3,12(sp)
    3d8c:	00812a03          	lw	s4,8(sp)
    3d90:	00000513          	li	a0,0
    3d94:	02010113          	add	sp,sp,32
    3d98:	00008067          	ret
    3d9c:	408005b3          	neg	a1,s0
    3da0:	00090513          	mv	a0,s2
    3da4:	f68ff0ef          	jal	350c <_sbrk_r>
    3da8:	fff00793          	li	a5,-1
    3dac:	04f50a63          	beq	a0,a5,3e00 <_malloc_trim_r+0x108>
    3db0:	00005717          	auipc	a4,0x5
    3db4:	2c470713          	add	a4,a4,708 # 9074 <__malloc_current_mallinfo>
    3db8:	00072783          	lw	a5,0(a4)
    3dbc:	008a2683          	lw	a3,8(s4)
    3dc0:	408484b3          	sub	s1,s1,s0
    3dc4:	0014e493          	or	s1,s1,1
    3dc8:	408787b3          	sub	a5,a5,s0
    3dcc:	00090513          	mv	a0,s2
    3dd0:	0096a223          	sw	s1,4(a3)
    3dd4:	00f72023          	sw	a5,0(a4)
    3dd8:	a6dff0ef          	jal	3844 <__malloc_unlock>
    3ddc:	01c12083          	lw	ra,28(sp)
    3de0:	01812403          	lw	s0,24(sp)
    3de4:	01412483          	lw	s1,20(sp)
    3de8:	01012903          	lw	s2,16(sp)
    3dec:	00c12983          	lw	s3,12(sp)
    3df0:	00812a03          	lw	s4,8(sp)
    3df4:	00100513          	li	a0,1
    3df8:	02010113          	add	sp,sp,32
    3dfc:	00008067          	ret
    3e00:	00000593          	li	a1,0
    3e04:	00090513          	mv	a0,s2
    3e08:	f04ff0ef          	jal	350c <_sbrk_r>
    3e0c:	008a2703          	lw	a4,8(s4)
    3e10:	00f00693          	li	a3,15
    3e14:	40e507b3          	sub	a5,a0,a4
    3e18:	f4f6dce3          	bge	a3,a5,3d70 <_malloc_trim_r+0x78>
    3e1c:	8241a683          	lw	a3,-2012(gp) # 76b8 <__malloc_sbrk_base>
    3e20:	40d50533          	sub	a0,a0,a3
    3e24:	0017e793          	or	a5,a5,1
    3e28:	00005697          	auipc	a3,0x5
    3e2c:	24a6a623          	sw	a0,588(a3) # 9074 <__malloc_current_mallinfo>
    3e30:	00f72223          	sw	a5,4(a4)
    3e34:	f3dff06f          	j	3d70 <_malloc_trim_r+0x78>

00003e38 <_free_r>:
    3e38:	18058263          	beqz	a1,3fbc <_free_r+0x184>
    3e3c:	ff010113          	add	sp,sp,-16
    3e40:	00812423          	sw	s0,8(sp)
    3e44:	00912223          	sw	s1,4(sp)
    3e48:	00058413          	mv	s0,a1
    3e4c:	00050493          	mv	s1,a0
    3e50:	00112623          	sw	ra,12(sp)
    3e54:	9e5ff0ef          	jal	3838 <__malloc_lock>
    3e58:	ffc42583          	lw	a1,-4(s0)
    3e5c:	ff840713          	add	a4,s0,-8
    3e60:	00003517          	auipc	a0,0x3
    3e64:	42c50513          	add	a0,a0,1068 # 728c <__malloc_av_>
    3e68:	ffe5f793          	and	a5,a1,-2
    3e6c:	00f70633          	add	a2,a4,a5
    3e70:	00462683          	lw	a3,4(a2)
    3e74:	00852803          	lw	a6,8(a0)
    3e78:	ffc6f693          	and	a3,a3,-4
    3e7c:	1ac80263          	beq	a6,a2,4020 <_free_r+0x1e8>
    3e80:	00d62223          	sw	a3,4(a2)
    3e84:	0015f593          	and	a1,a1,1
    3e88:	00d60833          	add	a6,a2,a3
    3e8c:	0a059063          	bnez	a1,3f2c <_free_r+0xf4>
    3e90:	ff842303          	lw	t1,-8(s0)
    3e94:	00482583          	lw	a1,4(a6)
    3e98:	00003897          	auipc	a7,0x3
    3e9c:	3fc88893          	add	a7,a7,1020 # 7294 <__malloc_av_+0x8>
    3ea0:	40670733          	sub	a4,a4,t1
    3ea4:	00872803          	lw	a6,8(a4)
    3ea8:	006787b3          	add	a5,a5,t1
    3eac:	0015f593          	and	a1,a1,1
    3eb0:	15180263          	beq	a6,a7,3ff4 <_free_r+0x1bc>
    3eb4:	00c72303          	lw	t1,12(a4)
    3eb8:	00682623          	sw	t1,12(a6)
    3ebc:	01032423          	sw	a6,8(t1)
    3ec0:	1a058863          	beqz	a1,4070 <_free_r+0x238>
    3ec4:	0017e693          	or	a3,a5,1
    3ec8:	00d72223          	sw	a3,4(a4)
    3ecc:	00f62023          	sw	a5,0(a2)
    3ed0:	1ff00693          	li	a3,511
    3ed4:	06f6ec63          	bltu	a3,a5,3f4c <_free_r+0x114>
    3ed8:	ff87f693          	and	a3,a5,-8
    3edc:	00868693          	add	a3,a3,8
    3ee0:	00452583          	lw	a1,4(a0)
    3ee4:	00d506b3          	add	a3,a0,a3
    3ee8:	0006a603          	lw	a2,0(a3)
    3eec:	0057d813          	srl	a6,a5,0x5
    3ef0:	00100793          	li	a5,1
    3ef4:	010797b3          	sll	a5,a5,a6
    3ef8:	00b7e7b3          	or	a5,a5,a1
    3efc:	ff868593          	add	a1,a3,-8
    3f00:	00b72623          	sw	a1,12(a4)
    3f04:	00c72423          	sw	a2,8(a4)
    3f08:	00f52223          	sw	a5,4(a0)
    3f0c:	00e6a023          	sw	a4,0(a3)
    3f10:	00e62623          	sw	a4,12(a2)
    3f14:	00812403          	lw	s0,8(sp)
    3f18:	00c12083          	lw	ra,12(sp)
    3f1c:	00048513          	mv	a0,s1
    3f20:	00412483          	lw	s1,4(sp)
    3f24:	01010113          	add	sp,sp,16
    3f28:	91dff06f          	j	3844 <__malloc_unlock>
    3f2c:	00482583          	lw	a1,4(a6)
    3f30:	0015f593          	and	a1,a1,1
    3f34:	08058663          	beqz	a1,3fc0 <_free_r+0x188>
    3f38:	0017e693          	or	a3,a5,1
    3f3c:	fed42e23          	sw	a3,-4(s0)
    3f40:	00f62023          	sw	a5,0(a2)
    3f44:	1ff00693          	li	a3,511
    3f48:	f8f6f8e3          	bgeu	a3,a5,3ed8 <_free_r+0xa0>
    3f4c:	0097d693          	srl	a3,a5,0x9
    3f50:	00400613          	li	a2,4
    3f54:	12d66263          	bltu	a2,a3,4078 <_free_r+0x240>
    3f58:	0067d693          	srl	a3,a5,0x6
    3f5c:	03968593          	add	a1,a3,57
    3f60:	03868613          	add	a2,a3,56
    3f64:	00359593          	sll	a1,a1,0x3
    3f68:	00b505b3          	add	a1,a0,a1
    3f6c:	0005a683          	lw	a3,0(a1)
    3f70:	ff858593          	add	a1,a1,-8
    3f74:	00d59863          	bne	a1,a3,3f84 <_free_r+0x14c>
    3f78:	1580006f          	j	40d0 <_free_r+0x298>
    3f7c:	0086a683          	lw	a3,8(a3)
    3f80:	00d58863          	beq	a1,a3,3f90 <_free_r+0x158>
    3f84:	0046a603          	lw	a2,4(a3)
    3f88:	ffc67613          	and	a2,a2,-4
    3f8c:	fec7e8e3          	bltu	a5,a2,3f7c <_free_r+0x144>
    3f90:	00c6a583          	lw	a1,12(a3)
    3f94:	00b72623          	sw	a1,12(a4)
    3f98:	00d72423          	sw	a3,8(a4)
    3f9c:	00812403          	lw	s0,8(sp)
    3fa0:	00c12083          	lw	ra,12(sp)
    3fa4:	00e5a423          	sw	a4,8(a1)
    3fa8:	00048513          	mv	a0,s1
    3fac:	00412483          	lw	s1,4(sp)
    3fb0:	00e6a623          	sw	a4,12(a3)
    3fb4:	01010113          	add	sp,sp,16
    3fb8:	88dff06f          	j	3844 <__malloc_unlock>
    3fbc:	00008067          	ret
    3fc0:	00d787b3          	add	a5,a5,a3
    3fc4:	00003897          	auipc	a7,0x3
    3fc8:	2d088893          	add	a7,a7,720 # 7294 <__malloc_av_+0x8>
    3fcc:	00862683          	lw	a3,8(a2)
    3fd0:	0d168e63          	beq	a3,a7,40ac <_free_r+0x274>
    3fd4:	00c62803          	lw	a6,12(a2)
    3fd8:	0017e593          	or	a1,a5,1
    3fdc:	00f70633          	add	a2,a4,a5
    3fe0:	0106a623          	sw	a6,12(a3)
    3fe4:	00d82423          	sw	a3,8(a6)
    3fe8:	00b72223          	sw	a1,4(a4)
    3fec:	00f62023          	sw	a5,0(a2)
    3ff0:	ee1ff06f          	j	3ed0 <_free_r+0x98>
    3ff4:	12059e63          	bnez	a1,4130 <_free_r+0x2f8>
    3ff8:	00862583          	lw	a1,8(a2)
    3ffc:	00c62603          	lw	a2,12(a2)
    4000:	00f686b3          	add	a3,a3,a5
    4004:	0016e793          	or	a5,a3,1
    4008:	00c5a623          	sw	a2,12(a1)
    400c:	00b62423          	sw	a1,8(a2)
    4010:	00f72223          	sw	a5,4(a4)
    4014:	00d70733          	add	a4,a4,a3
    4018:	00d72023          	sw	a3,0(a4)
    401c:	ef9ff06f          	j	3f14 <_free_r+0xdc>
    4020:	0015f593          	and	a1,a1,1
    4024:	00d786b3          	add	a3,a5,a3
    4028:	02059063          	bnez	a1,4048 <_free_r+0x210>
    402c:	ff842583          	lw	a1,-8(s0)
    4030:	40b70733          	sub	a4,a4,a1
    4034:	00c72783          	lw	a5,12(a4)
    4038:	00872603          	lw	a2,8(a4)
    403c:	00b686b3          	add	a3,a3,a1
    4040:	00f62623          	sw	a5,12(a2)
    4044:	00c7a423          	sw	a2,8(a5)
    4048:	0016e793          	or	a5,a3,1
    404c:	00f72223          	sw	a5,4(a4)
    4050:	00e52423          	sw	a4,8(a0)
    4054:	8281a783          	lw	a5,-2008(gp) # 76bc <__malloc_trim_threshold>
    4058:	eaf6eee3          	bltu	a3,a5,3f14 <_free_r+0xdc>
    405c:	00005597          	auipc	a1,0x5
    4060:	e345a583          	lw	a1,-460(a1) # 8e90 <__malloc_top_pad>
    4064:	00048513          	mv	a0,s1
    4068:	c91ff0ef          	jal	3cf8 <_malloc_trim_r>
    406c:	ea9ff06f          	j	3f14 <_free_r+0xdc>
    4070:	00d787b3          	add	a5,a5,a3
    4074:	f59ff06f          	j	3fcc <_free_r+0x194>
    4078:	01400613          	li	a2,20
    407c:	02d67063          	bgeu	a2,a3,409c <_free_r+0x264>
    4080:	05400613          	li	a2,84
    4084:	06d66463          	bltu	a2,a3,40ec <_free_r+0x2b4>
    4088:	00c7d693          	srl	a3,a5,0xc
    408c:	06f68593          	add	a1,a3,111
    4090:	06e68613          	add	a2,a3,110
    4094:	00359593          	sll	a1,a1,0x3
    4098:	ed1ff06f          	j	3f68 <_free_r+0x130>
    409c:	05c68593          	add	a1,a3,92
    40a0:	05b68613          	add	a2,a3,91
    40a4:	00359593          	sll	a1,a1,0x3
    40a8:	ec1ff06f          	j	3f68 <_free_r+0x130>
    40ac:	00e52a23          	sw	a4,20(a0)
    40b0:	00e52823          	sw	a4,16(a0)
    40b4:	0017e693          	or	a3,a5,1
    40b8:	01172623          	sw	a7,12(a4)
    40bc:	01172423          	sw	a7,8(a4)
    40c0:	00d72223          	sw	a3,4(a4)
    40c4:	00f70733          	add	a4,a4,a5
    40c8:	00f72023          	sw	a5,0(a4)
    40cc:	e49ff06f          	j	3f14 <_free_r+0xdc>
    40d0:	00452803          	lw	a6,4(a0)
    40d4:	40265613          	sra	a2,a2,0x2
    40d8:	00100793          	li	a5,1
    40dc:	00c797b3          	sll	a5,a5,a2
    40e0:	0107e7b3          	or	a5,a5,a6
    40e4:	00f52223          	sw	a5,4(a0)
    40e8:	eadff06f          	j	3f94 <_free_r+0x15c>
    40ec:	15400613          	li	a2,340
    40f0:	00d66c63          	bltu	a2,a3,4108 <_free_r+0x2d0>
    40f4:	00f7d693          	srl	a3,a5,0xf
    40f8:	07868593          	add	a1,a3,120
    40fc:	07768613          	add	a2,a3,119
    4100:	00359593          	sll	a1,a1,0x3
    4104:	e65ff06f          	j	3f68 <_free_r+0x130>
    4108:	55400613          	li	a2,1364
    410c:	00d66c63          	bltu	a2,a3,4124 <_free_r+0x2ec>
    4110:	0127d693          	srl	a3,a5,0x12
    4114:	07d68593          	add	a1,a3,125
    4118:	07c68613          	add	a2,a3,124
    411c:	00359593          	sll	a1,a1,0x3
    4120:	e49ff06f          	j	3f68 <_free_r+0x130>
    4124:	3f800593          	li	a1,1016
    4128:	07e00613          	li	a2,126
    412c:	e3dff06f          	j	3f68 <_free_r+0x130>
    4130:	0017e693          	or	a3,a5,1
    4134:	00d72223          	sw	a3,4(a4)
    4138:	00f62023          	sw	a5,0(a2)
    413c:	dd9ff06f          	j	3f14 <_free_r+0xdc>

00004140 <__sflush_r>:
    4140:	00c59703          	lh	a4,12(a1)
    4144:	fe010113          	add	sp,sp,-32
    4148:	00812c23          	sw	s0,24(sp)
    414c:	01312623          	sw	s3,12(sp)
    4150:	00112e23          	sw	ra,28(sp)
    4154:	00877793          	and	a5,a4,8
    4158:	00058413          	mv	s0,a1
    415c:	00050993          	mv	s3,a0
    4160:	12079063          	bnez	a5,4280 <__sflush_r+0x140>
    4164:	000017b7          	lui	a5,0x1
    4168:	80078793          	add	a5,a5,-2048 # 800 <altera_avalon_jtag_uart_write_fd+0x24>
    416c:	0045a683          	lw	a3,4(a1)
    4170:	00f767b3          	or	a5,a4,a5
    4174:	00f59623          	sh	a5,12(a1)
    4178:	18d05263          	blez	a3,42fc <__sflush_r+0x1bc>
    417c:	02842803          	lw	a6,40(s0)
    4180:	0e080463          	beqz	a6,4268 <__sflush_r+0x128>
    4184:	00912a23          	sw	s1,20(sp)
    4188:	01371693          	sll	a3,a4,0x13
    418c:	0009a483          	lw	s1,0(s3)
    4190:	0009a023          	sw	zero,0(s3)
    4194:	01c42583          	lw	a1,28(s0)
    4198:	1606ce63          	bltz	a3,4314 <__sflush_r+0x1d4>
    419c:	00000613          	li	a2,0
    41a0:	00100693          	li	a3,1
    41a4:	00098513          	mv	a0,s3
    41a8:	000800e7          	jalr	a6
    41ac:	fff00793          	li	a5,-1
    41b0:	00050613          	mv	a2,a0
    41b4:	1af50463          	beq	a0,a5,435c <__sflush_r+0x21c>
    41b8:	00c41783          	lh	a5,12(s0)
    41bc:	02842803          	lw	a6,40(s0)
    41c0:	01c42583          	lw	a1,28(s0)
    41c4:	0047f793          	and	a5,a5,4
    41c8:	00078e63          	beqz	a5,41e4 <__sflush_r+0xa4>
    41cc:	00442703          	lw	a4,4(s0)
    41d0:	03042783          	lw	a5,48(s0)
    41d4:	40e60633          	sub	a2,a2,a4
    41d8:	00078663          	beqz	a5,41e4 <__sflush_r+0xa4>
    41dc:	03c42783          	lw	a5,60(s0)
    41e0:	40f60633          	sub	a2,a2,a5
    41e4:	00000693          	li	a3,0
    41e8:	00098513          	mv	a0,s3
    41ec:	000800e7          	jalr	a6
    41f0:	fff00793          	li	a5,-1
    41f4:	12f51463          	bne	a0,a5,431c <__sflush_r+0x1dc>
    41f8:	0009a683          	lw	a3,0(s3)
    41fc:	01d00793          	li	a5,29
    4200:	00c41703          	lh	a4,12(s0)
    4204:	16d7ea63          	bltu	a5,a3,4378 <__sflush_r+0x238>
    4208:	204007b7          	lui	a5,0x20400
    420c:	00178793          	add	a5,a5,1 # 20400001 <__alt_data_end+0x203e2001>
    4210:	00d7d7b3          	srl	a5,a5,a3
    4214:	0017f793          	and	a5,a5,1
    4218:	16078063          	beqz	a5,4378 <__sflush_r+0x238>
    421c:	01042603          	lw	a2,16(s0)
    4220:	fffff7b7          	lui	a5,0xfffff
    4224:	7ff78793          	add	a5,a5,2047 # fffff7ff <__alt_data_end+0xfffe17ff>
    4228:	00f777b3          	and	a5,a4,a5
    422c:	00f41623          	sh	a5,12(s0)
    4230:	00042223          	sw	zero,4(s0)
    4234:	00c42023          	sw	a2,0(s0)
    4238:	01371793          	sll	a5,a4,0x13
    423c:	0007d463          	bgez	a5,4244 <__sflush_r+0x104>
    4240:	10068263          	beqz	a3,4344 <__sflush_r+0x204>
    4244:	03042583          	lw	a1,48(s0)
    4248:	0099a023          	sw	s1,0(s3)
    424c:	10058463          	beqz	a1,4354 <__sflush_r+0x214>
    4250:	04040793          	add	a5,s0,64
    4254:	00f58663          	beq	a1,a5,4260 <__sflush_r+0x120>
