
main.elf:     file format elf32-littleriscv
main.elf
architecture: riscv:rv32, flags 0x00000112:
EXEC_P, HAS_SYMS, D_PAGED
start address 0x00002b68

Program Header:
0x70000003 off    0x0001f326 vaddr 0x00000000 paddr 0x00000000 align 2**0
         filesz 0x00000020 memsz 0x00000000 flags r--
    LOAD off    0x00001000 vaddr 0x00000000 paddr 0x00000000 align 2**12
         filesz 0x00000020 memsz 0x00000020 flags r-x
    LOAD off    0x00001020 vaddr 0x00000020 paddr 0x00000020 align 2**12
         filesz 0x0001ca18 memsz 0x0001ca18 flags r-x
    LOAD off    0x0001da38 vaddr 0x0001ca38 paddr 0x0001e314 align 2**12
         filesz 0x000018dc memsz 0x000018dc flags rw-
    LOAD off    0x00000bf0 vaddr 0x0001fbf0 paddr 0x0001fbf0 align 2**12
         filesz 0x00000000 memsz 0x000003e0 flags rw-

Sections:
Idx Name          Size      VMA       LMA       File off  Algn
  0 .entry        00000020  00000000  00000000  00001000  2**5
                  CONTENTS, ALLOC, LOAD, READONLY, CODE
  1 .exceptions   000002f4  00000020  00000020  00001020  2**2
                  CONTENTS, ALLOC, LOAD, READONLY, CODE
  2 .text         0001b86c  00000314  00000314  00001314  2**2
                  CONTENTS, ALLOC, LOAD, READONLY, CODE
  3 .rodata       00000eb8  0001bb80  0001bb80  0001cb80  2**4
                  CONTENTS, ALLOC, LOAD, READONLY, DATA
  4 .rwdata       000018dc  0001ca38  0001e314  0001da38  2**3
                  CONTENTS, ALLOC, LOAD, DATA
  5 .bss          000003e0  0001fbf0  0001fbf0  0001fbf0  2**3
                  ALLOC
  6 .RAM          00000000  0001ffd0  0001ffd0  0001f314  2**0
                  CONTENTS
  7 .comment      00000012  00000000  00000000  0001f314  2**0
                  CONTENTS, READONLY
  8 .riscv.attributes 00000020  00000000  00000000  0001f326  2**0
                  CONTENTS, READONLY
  9 .debug_aranges 00000968  00000000  00000000  0001f348  2**3
                  CONTENTS, READONLY, DEBUGGING, OCTETS
 10 .debug_info   000108ec  00000000  00000000  0001fcb0  2**0
                  CONTENTS, READONLY, DEBUGGING, OCTETS
 11 .debug_abbrev 00005a96  00000000  00000000  0003059c  2**0
                  CONTENTS, READONLY, DEBUGGING, OCTETS
 12 .debug_line   000183c6  00000000  00000000  00036032  2**0
                  CONTENTS, READONLY, DEBUGGING, OCTETS
 13 .debug_frame  00001560  00000000  00000000  0004e3f8  2**2
                  CONTENTS, READONLY, DEBUGGING, OCTETS
 14 .debug_str    00001d2f  00000000  00000000  0004f958  2**0
                  CONTENTS, READONLY, DEBUGGING, OCTETS
 15 .debug_line_str 00001f31  00000000  00000000  00051687  2**0
                  CONTENTS, READONLY, DEBUGGING, OCTETS
 16 .debug_rnglists 00001b00  00000000  00000000  000535b8  2**0
                  CONTENTS, READONLY, DEBUGGING, OCTETS
 17 .debug_ranges 00000020  00000000  00000000  000550b8  2**3
                  CONTENTS, READONLY, DEBUGGING, OCTETS
 18 .debug_loclists 0000b32a  00000000  00000000  000550d8  2**0
                  CONTENTS, READONLY, DEBUGGING, OCTETS
SYMBOL TABLE:
00000000 l    d  .entry	00000000 .entry
00000020 l    d  .exceptions	00000000 .exceptions
00000314 l    d  .text	00000000 .text
0001bb80 l    d  .rodata	00000000 .rodata
0001ca38 l    d  .rwdata	00000000 .rwdata
0001fbf0 l    d  .bss	00000000 .bss
0001ffd0 l    d  .RAM	00000000 .RAM
00000000 l    d  .comment	00000000 .comment
00000000 l    d  .riscv.attributes	00000000 .riscv.attributes
00000000 l    d  .debug_aranges	00000000 .debug_aranges
00000000 l    d  .debug_info	00000000 .debug_info
00000000 l    d  .debug_abbrev	00000000 .debug_abbrev
00000000 l    d  .debug_line	00000000 .debug_line
00000000 l    d  .debug_frame	00000000 .debug_frame
00000000 l    d  .debug_str	00000000 .debug_str
00000000 l    d  .debug_line_str	00000000 .debug_line_str
00000000 l    d  .debug_rnglists	00000000 .debug_rnglists
00000000 l    d  .debug_ranges	00000000 .debug_ranges
00000000 l    d  .debug_loclists	00000000 .debug_loclists
00000000 l    df *ABS*	00000000 crt0.S.obj
00002c10 l       .text	00000000 alt_after_alt_main
00000000 l    df *ABS*	00000000 machine_trap.S.obj
00000020 l       .exceptions	00000000 save_registers
00000000 l    df *ABS*	00000000 alt_irq_handler.c
00000000 l    df *ABS*	00000000 main.c
00000000 l    df *ABS*	00000000 kiss_fft.c
00000578 l     F .text	000001f0 kf_bfly2
00000768 l     F .text	000006d8 kf_bfly4
00000e40 l     F .text	00000548 kf_bfly3
00001388 l     F .text	00000ba0 kf_bfly5
00001f28 l     F .text	000003a8 kf_bfly_generic
000022d0 l     F .text	0000023c kf_work
0000250c l     F .text	0000014c kf_factor
00000000 l    df *ABS*	00000000 alt_load.c
00002c14 l     F .text	00000064 alt_load_section
00000000 l    df *ABS*	00000000 alt_main.c
00000000 l    df *ABS*	00000000 alt_sys_init.c
0001ca38 l     O .rwdata	00001060 JTAG_UART
00000000 l    df *ABS*	00000000 altera_avalon_jtag_uart_fd.c
00000000 l    df *ABS*	00000000 altera_avalon_jtag_uart_init.c
00003038 l     F .text	00000238 altera_avalon_jtag_uart_irq
00003270 l     F .text	000000bc altera_avalon_jtag_uart_timeout
00000000 l    df *ABS*	00000000 altera_avalon_jtag_uart_ioctl.c
00000000 l    df *ABS*	00000000 altera_avalon_jtag_uart_read.c
00000000 l    df *ABS*	00000000 altera_avalon_jtag_uart_write.c
00000000 l    df *ABS*	00000000 altera_avalon_timer_sc.c
00003900 l     F .text	00000078 alt_avalon_timer_sc_irq
00000000 l    df *ABS*	00000000 altera_avalon_timer_ts.c
00000000 l    df *ABS*	00000000 altera_avalon_timer_vars.c
00000000 l    df *ABS*	00000000 alt_alarm_start.c
00000000 l    df *ABS*	00000000 alt_dcache_flush_all.c
00000000 l    df *ABS*	00000000 alt_dev.c
00003d6c l     F .text	0000002c alt_dev_null_write
00000000 l    df *ABS*	00000000 alt_dev_llist_insert.c
00003dd4 l     F .text	00000044 alt_get_errno
00000000 l    df *ABS*	00000000 alt_do_ctors.c
00000000 l    df *ABS*	00000000 alt_do_dtors.c
00000000 l    df *ABS*	00000000 alt_errno.c
00000000 l    df *ABS*	00000000 alt_icache_flush_all.c
00000000 l    df *ABS*	00000000 alt_iic.c
00000000 l    df *ABS*	00000000 alt_iic_isr_register.c
00000000 l    df *ABS*	00000000 alt_io_redirect.c
0000416c l     F .text	000000dc alt_open_fd
00000000 l    df *ABS*	00000000 alt_release_fd.c
00000000 l    df *ABS*	00000000 alt_tick.c
00000000 l    df *ABS*	00000000 intel_niosv_irq.c
00000000 l    df *ABS*	00000000 libc_a-exit.o
00000000 l    df *ABS*	00000000 libc_a-sysopen.o
00000000 l    df *ABS*	00000000 libc_a-reent.o
00000000 l    df *ABS*	00000000 libc_a-findfp.o
00004728 l     F .text	0000001c stdio_exit_handler
00004744 l     F .text	00000070 cleanup_stdio
000047b4 l     F .text	00000040 __fp_lock
000047f4 l     F .text	00000040 __fp_unlock
00004834 l     F .text	00000190 global_stdio_init.part.0
00000000 l    df *ABS*	00000000 libc_a-setvbuf.o
00000000 l    df *ABS*	00000000 libc_a-fputc.o
00000000 l    df *ABS*	00000000 libc_a-openr.o
00000000 l    df *ABS*	00000000 libc_a-fwalk.o
00000000 l    df *ABS*	00000000 libc_a-stdio.o
00000000 l    df *ABS*	00000000 libc_a-stack_protector.o
00000000 l    df *ABS*	00000000 libc_a-malloc.o
00000000 l    df *ABS*	00000000 libc_a-mallocr.o
00000000 l    df *ABS*	00000000 libc_a-__call_atexit.o
00005cb8 l     F .text	00000018 register_fini
00000000 l    df *ABS*	00000000 libc_a-sbrkr.o
00000000 l    df *ABS*	00000000 libc_a-writer.o
00000000 l    df *ABS*	00000000 libc_a-fwrite.o
00000000 l    df *ABS*	00000000 libc_a-makebuf.o
00000000 l    df *ABS*	00000000 libc_a-mlock.o
00000000 l    df *ABS*	00000000 libc_a-atexit.o
00000000 l    df *ABS*	00000000 libc_a-fini.o
00000000 l    df *ABS*	00000000 libc_a-lock.o
00000000 l    df *ABS*	00000000 libc_a-sysclose.o
00000000 l    df *ABS*	00000000 libc_a-fclose.o
00000000 l    df *ABS*	00000000 libc_a-memset.o
00000000 l    df *ABS*	00000000 libc_a-memcpy.o
00000000 l    df *ABS*	00000000 libc_a-printf.o
00000000 l    df *ABS*	00000000 libc_a-strlen.o
00000000 l    df *ABS*	00000000 libc_a-putc.o
00000000 l    df *ABS*	00000000 libc_a-puts.o
00000000 l    df *ABS*	00000000 libc_a-freer.o
00000000 l    df *ABS*	00000000 libc_a-fflush.o
00000000 l    df *ABS*	00000000 libc_a-closer.o
00000000 l    df *ABS*	00000000 libc_a-fstatr.o
00000000 l    df *ABS*	00000000 libc_a-signal.o
00000000 l    df *ABS*	00000000 libc_a-isattyr.o
00000000 l    df *ABS*	00000000 libc_a-lseekr.o
00000000 l    df *ABS*	00000000 libc_a-readr.o
00000000 l    df *ABS*	00000000 libc_a-fvwrite.o
00000000 l    df *ABS*	00000000 libc_a-vfprintf.o
0000a8c4 l     F .text	000000f8 __sbprintf
0001c160 l     O .rodata	00000010 blanks.1
0001c170 l     O .rodata	00000010 zeroes.0
00000000 l    df *ABS*	00000000 libc_a-syswrite.o
00000000 l    df *ABS*	00000000 libc_a-__atexit.o
00000000 l    df *ABS*	00000000 libc_a-signalr.o
00000000 l    df *ABS*	00000000 libc_a-wbuf.o
00000000 l    df *ABS*	00000000 libc_a-wsetup.o
00000000 l    df *ABS*	00000000 libc_a-memchr.o
00000000 l    df *ABS*	00000000 libc_a-localeconv.o
00000000 l    df *ABS*	00000000 libc_a-sprint_r.o
00000000 l    df *ABS*	00000000 libc_a-memmove-stub.o
00000000 l    df *ABS*	00000000 libm_a-frexpl.o
00000000 l    df *ABS*	00000000 libc_a-reallocr.o
00000000 l    df *ABS*	00000000 libc_a-gdtoa-ldtoa.o
00000000 l    df *ABS*	00000000 libc_a-gdtoa-gdtoa.o
00000000 l    df *ABS*	00000000 libc_a-gdtoa-dmisc.o
0000d77c l     F .text	00000024 __rv_alloc_D2A.part.0
00000000 l    df *ABS*	00000000 libc_a-strncpy.o
00000000 l    df *ABS*	00000000 libc_a-gdtoa-gmisc.o
00000000 l    df *ABS*	00000000 libc_a-assert.o
00000000 l    df *ABS*	00000000 libc_a-mprec.o
0001c1f8 l     O .rodata	0000000c p05.0
00000000 l    df *ABS*	00000000 libc_a-callocr.o
00000000 l    df *ABS*	00000000 libc_a-locale.o
00000000 l    df *ABS*	00000000 libc_a-strcmp.o
00000000 l    df *ABS*	00000000 libc_a-fiprintf.o
00000000 l    df *ABS*	00000000 libc_a-wctomb_r.o
00000000 l    df *ABS*	00000000 libc_a-vfiprintf.o
000107ec l     F .text	000000f8 __sbprintf
0001c48c l     O .rodata	00000010 blanks.1
0001c49c l     O .rodata	00000010 zeroes.0
00000000 l    df *ABS*	00000000 libc_a-abort.o
00000000 l    df *ABS*	00000000 libc_a-mbtowc_r.o
00000000 l    df *ABS*	00000000 libc_a-errno.o
00000000 l    df *ABS*	00000000 libgcc2.c
00000000 l    df *ABS*	00000000 libgcc2.c
00000000 l    df *ABS*	00000000 adddf3.c
00000000 l    df *ABS*	00000000 divdf3.c
00000000 l    df *ABS*	00000000 eqdf2.c
00000000 l    df *ABS*	00000000 gedf2.c
00000000 l    df *ABS*	00000000 ledf2.c
00000000 l    df *ABS*	00000000 muldf3.c
00000000 l    df *ABS*	00000000 subdf3.c
00000000 l    df *ABS*	00000000 fixdfsi.c
00000000 l    df *ABS*	00000000 floatsidf.c
00000000 l    df *ABS*	00000000 floatunsidf.c
00000000 l    df *ABS*	00000000 eqtf2.c
00000000 l    df *ABS*	00000000 getf2.c
00000000 l    df *ABS*	00000000 letf2.c
00000000 l    df *ABS*	00000000 multf3.c
00000000 l    df *ABS*	00000000 subtf3.c
00000000 l    df *ABS*	00000000 unordtf2.c
00000000 l    df *ABS*	00000000 fixtfsi.c
00000000 l    df *ABS*	00000000 floatsitf.c
00000000 l    df *ABS*	00000000 addsf3.c
00000000 l    df *ABS*	00000000 mulsf3.c
00000000 l    df *ABS*	00000000 subsf3.c
00000000 l    df *ABS*	00000000 floatsisf.c
00000000 l    df *ABS*	00000000 extenddftf2.c
00000000 l    df *ABS*	00000000 truncdfsf2.c
00000000 l    df *ABS*	00000000 muldi3.o
00000000 l    df *ABS*	00000000 div.o
00000000 l    df *ABS*	00000000 libgcc2.c
00000000 l    df *ABS*	00000000 libgcc2.c
00000000 l    df *ABS*	00000000 libm_a-w_sqrt.o
00000000 l    df *ABS*	00000000 libm_a-s_cos.o
00000000 l    df *ABS*	00000000 libm_a-s_floor.o
00000000 l    df *ABS*	00000000 libm_a-e_rem_pio2.o
0001c6f0 l     O .rodata	00000080 npio2_hw
0001c770 l     O .rodata	00000108 two_over_pi
00000000 l    df *ABS*	00000000 libm_a-s_sin.o
00000000 l    df *ABS*	00000000 libm_a-e_sqrt.o
0001ca30 l     O .rodata	00000008 one
0001ca28 l     O .rodata	00000008 tiny
00000000 l    df *ABS*	00000000 libm_a-s_fabs.o
00000000 l    df *ABS*	00000000 libm_a-k_rem_pio2.o
0001c878 l     O .rodata	00000010 init_jk
0001c888 l     O .rodata	00000040 PIo2
00000000 l    df *ABS*	00000000 libm_a-k_cos.o
00000000 l    df *ABS*	00000000 libm_a-k_sin.o
00000000 l    df *ABS*	00000000 libm_a-s_scalbn.o
00000000 l    df *ABS*	00000000 alt_close.c
0001aa3c l     F .text	00000044 alt_get_errno
00000000 l    df *ABS*	00000000 alt_exit.c
00000000 l    df *ABS*	00000000 alt_fstat.c
0001aba0 l     F .text	00000044 alt_get_errno
00000000 l    df *ABS*	00000000 alt_getpid.c
00000000 l    df *ABS*	00000000 alt_isatty.c
0001acc4 l     F .text	00000044 alt_get_errno
00000000 l    df *ABS*	00000000 alt_kill.c
0001ae04 l     F .text	00000044 alt_get_errno
00000000 l    df *ABS*	00000000 alt_lseek.c
0001af3c l     F .text	00000044 alt_get_errno
00000000 l    df *ABS*	00000000 alt_open.c
0001b060 l     F .text	00000044 alt_get_errno
0001b0a4 l     F .text	000000e8 alt_file_locked
00000000 l    df *ABS*	00000000 alt_read.c
0001b2f4 l     F .text	00000044 alt_get_errno
00000000 l    df *ABS*	00000000 alt_sbrk.c
0001e310 l     O .rwdata	00000004 heap_end
00000000 l    df *ABS*	00000000 alt_write.c
0001b4f4 l     F .text	00000044 alt_get_errno
00000000 l    df *ABS*	00000000 alt_find_dev.c
00000000 l    df *ABS*	00000000 alt_find_file.c
00000000 l    df *ABS*	00000000 alt_get_fd.c
00000000 l    df *ABS*	00000000 libc_a-sysfstat.o
00000000 l    df *ABS*	00000000 unorddf2.c
0000d7a0 g     F .text	0000006c __rv_alloc_D2A
00005348 g     F .text	0000000c .hidden __stack_chk_fail_local
0000ef2c g     F .text	000000a4 _mprec_log10
0000f038 g     F .text	00000064 __any_on
000078ec g     F .text	00000058 _isatty_r
0001c2d0 g     O .rodata	00000028 __mprec_tinytens
00002cec g     F .text	00000088 alt_main
0001aca4 g     F .text	00000020 _getpid
00006970 g     F .text	00000134 _puts_r
0001fc60 g     O .bss	00000080 alt_irq
000193f4 g     F .text	0000000c fabs
00007944 g     F .text	00000064 _lseek_r
000184b8 g     F .text	000000ac sqrt
0001e314 g       *ABS*	00000000 __flash_rwdata_start
00013d88 g     F .text	00000160 .hidden __getf2
0001278c g     F .text	0000008c .hidden __eqdf2
0001ffd0 g       *ABS*	00000000 __alt_heap_start
0000aabc g     F .text	00000060 _kill_r
00013cb8 g     F .text	000000d0 .hidden __eqtf2
00006698 g     F .text	0000004c printf
0001eae0 g       *ABS*	00000000 __global_pointer$
0001fc54 g     O .bss	00000001 __lock___atexit_recursive_mutex
00007408 g     F .text	0000009c _signal_r
00005230 g     F .text	00000078 __sseek
00004b1c g     F .text	00000070 __sinit
0000ab20 g     F .text	00000160 __swbuf_r
0000f258 g     F .text	0000007c _setlocale_r
0001ca38 g       *ABS*	00000000 __tls_base
000061a4 g     F .text	0000000c __malloc_unlock
00016e9c g     F .text	00000198 .hidden __floatsitf
0001fc3c g     O .bss	00000001 __lock___arc4random_mutex
0001fc08 g     O .bss	00000004 altera_avalon_timer_ts_freq
0000af00 g     F .text	0000010c memmove
000000c0 g     F .exceptions	00000028 is_ecc_handler_present
0000dda8 g     F .text	000000b4 _Balloc
0001fc28 g     O .bss	00000004 __stack_chk_guard
00012818 g     F .text	00000100 .hidden __gtdf2
0001e30c g     O .rwdata	00000004 __atexit_recursive_mutex
00010970 g     F .text	00000008 __errno
00006228 g     F .text	00000004 __retarget_lock_close
00000000 g     F .entry	00000004 __reset
0000ae94 g     F .text	00000008 __localeconv_l
0001fc24 g     O .bss	00000004 __stdio_exit_handler
00000020 g       *ABS*	00000000 __flash_exceptions_start
0000734c g     F .text	00000060 _fstat_r
0001fc20 g     O .bss	00000004 errno
0001866c g     F .text	00000228 floor
000051a0 g     F .text	00000008 __seofread
0001fbfc g     O .bss	00000004 alt_argv
00017918 g     F .text	00000520 .hidden __subsf3
0001dac0 g     O .rwdata	00000180 alt_fd_list
00018894 g     F .text	000006e4 __ieee754_rem_pio2
0001b63c g     F .text	00000120 alt_find_dev
000064b4 g     F .text	000001a4 memcpy
00004c0c g     F .text	00000298 setvbuf
00013b3c g     F .text	000000b8 .hidden __floatsidf
00004248 g     F .text	000000fc alt_io_redirect
00012918 g     F .text	00000108 .hidden __ltdf2
00006aa4 g     F .text	0000000c puts
0001b9c4 g       *ABS*	00000000 __fini_array_end
00018384 g     F .text	00000048 .hidden __hidden___udivsi3
0000ee84 g     F .text	000000a8 __ratio
00003498 g     F .text	0000022c altera_avalon_jtag_uart_read
00005370 g     F .text	0000000c malloc
00006658 g     F .text	00000040 _printf_r
00013ee8 g     F .text	00000160 .hidden __letf2
00018384 g     F .text	00000048 .hidden __udivsi3
000074a4 g     F .text	000000c4 _raise_r
0001abe4 g     F .text	000000c0 _fstat
0000dd40 g     F .text	00000054 __assert_func
0001c208 g     O .rodata	000000c8 __mprec_tens
0001a1b8 g     F .text	00000434 __kernel_cos
000001fc g     F .exceptions	00000118 handle_trap
0001fc34 g     O .bss	00000004 __malloc_top_pad
0000ab1c g     F .text	00000004 _getpid_r
0001fc0c g     O .bss	00000004 __dso_handle
0000ae9c g     F .text	0000000c _localeconv_r
0000e298 g     F .text	000000b0 __i2b
00007a0c g     F .text	00000514 __sfvwrite_r
00007568 g     F .text	000000e0 __sigtramp_r
00005cd0 g     F .text	00000058 _sbrk_r
000079a8 g     F .text	00000064 _read_r
0001e2f0 g     O .rwdata	00000004 alt_max_fd
0000625c g     F .text	00000170 _fclose_r
00007224 g     F .text	000000d0 fflush
0001fc30 g     O .bss	00000004 __malloc_max_sbrked_mem
0001a5ec g     F .text	0000027c __kernel_sin
0001161c g     F .text	000008c8 .hidden __adddf3
00005354 g     F .text	0000001c __stack_chk_init
0000ec10 g     F .text	0000011c __b2d
0001fc48 g     O .bss	00000001 __lock___env_recursive_mutex
00011004 g     F .text	00000618 .hidden __umoddi3
0001ad08 g     F .text	000000fc _isatty
0000b1a4 g     F .text	00000570 _realloc_r
0001ffd0 g       *ABS*	00000000 __bss_end
00003ff0 g     F .text	0000017c alt_iic_isr_register
00004450 g     F .text	00000158 alt_tick
00010978 g     F .text	0000068c .hidden __udivdi3
0001c2f8 g     O .rodata	00000028 __mprec_bigtens
0000e004 g     F .text	0000013c __s2b
000108e4 g     F .text	00000018 abort
0001b18c g     F .text	00000168 _open
00013bf4 g     F .text	000000c4 .hidden __floatunsidf
0001b440 g     F .text	000000b4 _sbrk
0000e8f0 g     F .text	00000058 __mcmp
000052b0 g     F .text	00000098 __stack_chk_fail
0001ca38 g       *ABS*	00000000 __tbss_start
00016d08 g     F .text	00000094 .hidden __unordtf2
00004ba4 g     F .text	00000034 __fp_lock_all
000043b8 g     F .text	00000098 alt_alarm_stop
0000d80c g     F .text	000000b8 __nrv_alloc_D2A
00000108 g     F .exceptions	000000f4 alt_irq_handler
0001da98 g     O .rwdata	00000028 alt_dev_null
00019400 g     F .text	00000db8 __kernel_rem_pio2
000061c4 g     F .text	0000005c __libc_fini_array
00004644 g     F .text	000000e4 _reclaim_reent
00003d50 g     F .text	0000001c alt_dcache_flush_all
0000e140 g     F .text	00000078 __hi0bits
000000e8 g     F .exceptions	00000020 break_operation
00013ab8 g     F .text	00000084 .hidden __fixdfsi
0001fc4c g     O .bss	00000001 __lock___malloc_recursive_mutex
0001e314 g       *ABS*	00000000 __ram_rwdata_end
0001fce0 g     O .bss	00000138 __sf
0001e2e8 g     O .rwdata	00000008 alt_dev_list
00004ea4 g     F .text	000000c0 _fputc_r
0000a9bc g     F .text	00000014 write
00006770 g     F .text	000000fc _putc_r
00003bc4 g     F .text	00000024 alt_timestamp_freq
0001ca38 g       *ABS*	00000000 __ram_rodata_end
0001b958 g     F .text	00000010 fstat
00012918 g     F .text	00000108 .hidden __ledf2
00016d9c g     F .text	00000100 .hidden __fixtfsi
0000e610 g     F .text	00000150 __pow5mult
000183cc g     F .text	00000010 .hidden __umodsi3
0000bb00 g     F .text	00001c7c __gdtoa
0001ffd0 g       *ABS*	00000000 end
00003d98 g     F .text	0000003c alt_dev_reg
0000624c g     F .text	00000004 __retarget_lock_release_recursive
00006240 g     F .text	00000008 __retarget_lock_try_acquire_recursive
00002f78 g     F .text	000000c0 altera_avalon_jtag_uart_init
0003c000 g       *ABS*	00000000 __alt_stack_pointer
00003978 g     F .text	00000090 alt_avalon_timer_sc_init
00018430 g     F .text	00000088 .hidden __clzsi2
000036c4 g     F .text	0000023c altera_avalon_jtag_uart_write
00018564 g     F .text	00000108 cos
000028a8 g     F .text	00000180 kiss_fft_stride
00004b8c g     F .text	0000000c __sfp_lock_acquire
0000add0 g     F .text	000000c4 memchr
00002a28 g     F .text	00000044 kiss_fft
00006bf0 g     F .text	00000308 _free_r
0000f2d4 g     F .text	0000000c __locale_mb_cur_max
00005b64 g     F .text	00000154 __call_exitprocs
0001fe40 g     O .bss	00000190 __atexit0
0001e304 g     O .rwdata	00000004 __malloc_sbrk_base
00002b68 g     F .text	000000ac _start
0001fc10 g     O .bss	00000004 _alt_tick_rate
0000d8dc g     F .text	00000270 __quorem_D2A
00006238 g     F .text	00000008 __retarget_lock_try_acquire
00018f78 g     F .text	0000010c sin
0001af80 g     F .text	000000e0 _lseek
0000e760 g     F .text	00000190 __lshift
00013ee8 g     F .text	00000160 .hidden __lttf2
0001fc18 g     O .bss	00000008 _alt_nticks
00007708 g     F .text	000000a4 signal
00013cb8 g     F .text	000000d0 .hidden __netf2
00002dac g     F .text	00000058 alt_sys_init
00017e38 g     F .text	00000118 .hidden __floatsisf
0000502c g     F .text	00000064 _open_r
0001ca38 g       *ABS*	00000000 __tdata_source
0000a9d0 g     F .text	000000ec __register_exitproc
0000b9e0 g     F .text	00000120 _ldcheck
0000e348 g     F .text	000002c8 __multiply
0000332c g     F .text	0000006c altera_avalon_jtag_uart_close
00018358 g     F .text	00000024 .hidden __mulsi3
0001ca38 g       *ABS*	00000000 __ram_rwdata_start
0000db4c g     F .text	000000ac strncpy
0001bb80 g       *ABS*	00000000 __ram_rodata_start
0001fe18 g     O .bss	00000028 __malloc_current_mallinfo
0000ed2c g     F .text	00000158 __d2b
0001fbf4 g     O .bss	00000004 alt_niosv_timer_interrupt_handler
00002e04 g     F .text	00000064 altera_avalon_jtag_uart_read_fd
0001b898 g     F .text	000000c0 alt_get_fd
00017f50 g     F .text	00000248 .hidden __extenddftf2
000072f4 g     F .text	00000058 _close_r
00002ecc g     F .text	00000054 altera_avalon_jtag_uart_close_fd
0001ffd0 g       *ABS*	00000000 __alt_stack_base
00002f20 g     F .text	00000058 altera_avalon_jtag_uart_ioctl_fd
0000622c g     F .text	00000004 __retarget_lock_close_recursive
00005d8c g     F .text	00000184 _fwrite_r
0000ac90 g     F .text	00000140 __swsetup_r
00011ee4 g     F .text	000008a8 .hidden __divdf3
000049c4 g     F .text	00000158 __sfp
0000efd0 g     F .text	00000068 __copybits
0001dd6c g     O .rwdata	00000408 __malloc_av_
0001fc38 g     O .bss	00000004 __atexit
00012a20 g     F .text	00000790 .hidden __muldf3
00005144 g     F .text	0000005c __sread
0001b75c g     F .text	0000013c alt_find_file
00003e18 g     F .text	000000a8 alt_dev_llist_insert
00006198 g     F .text	0000000c __malloc_lock
0001b9c4 g       *ABS*	00000000 __fini_array_start
00007144 g     F .text	000000e0 _fflush_r
0000f09c g     F .text	000001bc _calloc_r
00006234 g     F .text	00000004 __retarget_lock_acquire_recursive
0001fbf0 g       *ABS*	00000000 __bss_start
0001ca38 g       *ABS*	00000000 __tdata_start
0001ca38 g       *ABS*	00000000 __tdata_end
000063d8 g     F .text	000000dc memset
00000314 g     F .text	00000264 main
00000000 g       *ABS*	00000000 __alt_mem_RAM
0001fc00 g     O .bss	00000004 alt_envp
0001fc2c g     O .bss	00000004 __malloc_max_total_mem
00002e68 g     F .text	00000064 altera_avalon_jtag_uart_write_fd
00006224 g     F .text	00000004 __retarget_lock_init_recursive
0000ac80 g     F .text	00000010 __swbuf
000052a8 g     F .text	00000008 __sclose
0003c000 g       *ABS*	00000000 __alt_heap_limit
000063cc g     F .text	0000000c fclose
00018198 g     F .text	000001c0 .hidden __truncdfsf2
00003a08 g     F .text	000000a8 alt_timestamp_start
0001b9c4 g       *ABS*	00000000 __init_array_end
00005388 g     F .text	000007dc _malloc_r
0000f564 g     F .text	00000030 __ascii_wctomb
0001e2f4 g     O .rwdata	00000004 alt_errno
0000f4d8 g     F .text	00000038 _fiprintf_r
000077ac g     F .text	0000005c _init_signal
000108fc g     F .text	0000000c _mbtowc_r
0000686c g     F .text	00000104 putc
0001837c g     F .text	00000084 .hidden __divsi3
00006ab0 g     F .text	00000140 _malloc_trim_r
0001750c g     F .text	0000040c .hidden __mulsf3
0000d8c4 g     F .text	00000018 __freedtoa
0000f35c g     F .text	0000017c strcmp
0001bb80 g       *ABS*	00000000 __flash_rodata_start
000107d8 g     F .text	00000014 vfiprintf
00006220 g     F .text	00000004 __retarget_lock_init
00014048 g     F .text	0000151c .hidden __multf3
0001278c g     F .text	0000008c .hidden __nedf2
00002d74 g     F .text	00000038 alt_irq_init
00004344 g     F .text	00000074 alt_release_fd
0001c5f0 g     O .rodata	00000100 .hidden __clz_tab
0001fc5c g     O .bss	00000004 _PathLocale
000061b0 g     F .text	00000014 atexit
00005d28 g     F .text	00000064 _write_r
0000f2e0 g     F .text	0000007c setlocale
0001e300 g     O .rwdata	00000004 _impure_ptr
0001fbf8 g     O .bss	00000004 alt_argc
0001a868 g     F .text	000001d4 scalbn
00006ef8 g     F .text	0000024c __sflush_r
0001fc04 g     O .bss	00000004 altera_avalon_timer_ts_base
00003f20 g     F .text	00000060 _do_dtors
00005090 g     F .text	000000b4 _fwalk_sglue
00013d88 g     F .text	00000160 .hidden __gttf2
00010908 g     F .text	00000068 __ascii_mbtowc
00015564 g     F .text	000017a4 .hidden __subtf3
0000eba8 g     F .text	00000068 __ulp
00004bd8 g     F .text	00000034 __fp_unlock_all
00004f64 g     F .text	000000c8 fputc
0001e2e0 g     O .rwdata	00000008 alt_fs_list
00000020 g       *ABS*	00000000 __ram_exceptions_start
0000aea8 g     F .text	0000000c localeconv
00003ab0 g     F .text	00000114 alt_timestamp
00019084 g     F .text	00000370 __ieee754_sqrt
000060c0 g     F .text	000000d8 __swhatbuf_r
00003f9c g     F .text	00000054 alt_ic_isr_register
00005f10 g     F .text	00000018 fwrite
0001dd60 g     O .rwdata	0000000c __sglue
00000020 g     F .exceptions	00000000 trap_vector
0001b538 g     F .text	00000104 _write
0001e314 g       *ABS*	00000000 _edata
0001ffd0 g       *ABS*	00000000 _end
00000314 g       *ABS*	00000000 __ram_exceptions_end
0001fc50 g     O .bss	00000001 __lock___at_quick_exit_mutex
00003398 g     F .text	00000100 altera_avalon_jtag_uart_ioctl
000045a8 g     F .text	00000024 intel_niosv_irq_init
000051a8 g     F .text	00000088 __swrite
0001e308 g     O .rwdata	00000004 __malloc_trim_threshold
000045cc g     F .text	00000030 exit
0000f510 g     F .text	00000048 fiprintf
0000f594 g     F .text	00001244 _vfiprintf_r
0000dbf8 g     F .text	000000e4 __rshift_D2A
0000e948 g     F .text	00000260 __mdiff
00002a6c g     F .text	0000001c kiss_fft_cleanup
00018400 g     F .text	00000030 .hidden __modsi3
0001ae48 g     F .text	000000f4 _kill
0001dc40 g     O .rwdata	00000120 _impure_data
0000b00c g     F .text	00000198 frexpl
0003c000 g       *ABS*	00000000 __alt_data_end
0001ca38 g       *ABS*	00000000 __tbss_end
00004b98 g     F .text	0000000c __sfp_lock_release
0000b714 g     F .text	000002cc _ldtoa_r
0001c4ac g     O .rodata	00000101 _ctype_
0001b338 g     F .text	00000108 _read
0001b9bc g       *ABS*	00000000 __init_array_start
00006230 g     F .text	00000004 __retarget_lock_acquire
0001b968 g     F .text	00000054 .hidden __unorddf2
00006248 g     F .text	00000004 __retarget_lock_release
0001ab60 g     F .text	00000040 _exit
00003be8 g     F .text	00000168 alt_alarm_start
0001fc40 g     O .bss	00000001 __lock___dd_hash_mutex
00005f28 g     F .text	00000198 __smakebuf_r
0001fc44 g     O .bss	00000001 __lock___tz_mutex
000066e4 g     F .text	0000008c strlen
000073ac g     F .text	0000005c _init_signal_r
000045fc g     F .text	00000048 open
00012818 g     F .text	00000100 .hidden __gedf2
0000dd94 g     F .text	00000014 __assert
0000aeb4 g     F .text	0000004c __sprint_r
00003f80 g     F .text	0000001c alt_icache_flush_all
00002a88 g     F .text	000000e0 kiss_fft_next_fast_size
0000f558 g     F .text	0000000c _wctomb_r
00002658 g     F .text	00000250 kiss_fft_alloc
000131b0 g     F .text	00000908 .hidden __subdf3
00007f20 g     F .text	00002990 _vfprintf_r
0000e1b8 g     F .text	000000e0 __lo0bits
0001e2f8 g     O .rwdata	00000008 alt_alarm_list
00003ec0 g     F .text	00000060 _do_ctors
00007808 g     F .text	000000e4 __sigtramp
00006250 g     F .text	0000000c close
00017034 g     F .text	000004d8 .hidden __addsf3
0001e174 g     O .rwdata	0000016c __global_locale
00002c78 g     F .text	00000074 alt_load
0000a8b0 g     F .text	00000014 vfprintf
0001fbf0 g     O .bss	00000004 alt_niosv_software_interrupt_handler
0001fc58 g     O .bss	00000001 __lock___sfp_recursive_mutex
0000dcdc g     F .text	00000064 __trailz_D2A
0001aa80 g     F .text	000000e0 _close
00007648 g     F .text	000000c0 raise
0000537c g     F .text	0000000c free
0000de80 g     F .text	00000184 __multadd
0000de5c g     F .text	00000024 _Bfree



Disassembly of section .entry:

00000000 <__reset>:
 * Jump to the _start entry point in the .text section if reset code
 * is allowed or if optimizing for RTL simulation.
 */

    /* Jump to the _start entry point in the .text section. */
    tail _start
   0:	3690206f          	j	2b68 <_start>
	...

Disassembly of section .exceptions:

00000020 <trap_vector>:
    /* Save caller-saved registers on the stack */

#if __riscv_flen == 32 // rv32if
    addi sp, sp, -36 * 4
#elif ALT_CPU_NUM_GPR == 32 // rv32i
	addi sp, sp, -16 * 4
  20:	fc010113          	add	sp,sp,-64
#else // rv32e (16-bit)
	addi sp, sp, -10 * 4
#endif

    /* rv32e (16-bit), rv32i and rv32if */
    sw ra,  0 * 4(sp)
  24:	00112023          	sw	ra,0(sp)
    sw t0,  1 * 4(sp)
  28:	00512223          	sw	t0,4(sp)
    sw t1,  2 * 4(sp)
  2c:	00612423          	sw	t1,8(sp)
    sw t2,  3 * 4(sp)
  30:	00712623          	sw	t2,12(sp)
    sw a0,  4 * 4(sp)
  34:	00a12823          	sw	a0,16(sp)
    sw a1,  5 * 4(sp)
  38:	00b12a23          	sw	a1,20(sp)
    sw a2,  6 * 4(sp)
  3c:	00c12c23          	sw	a2,24(sp)
    sw a3,  7 * 4(sp)
  40:	00d12e23          	sw	a3,28(sp)
    sw a4,  8 * 4(sp)
  44:	02e12023          	sw	a4,32(sp)
    sw a5,  9 * 4(sp)
  48:	02f12223          	sw	a5,36(sp)

    /* rv32i and rv32if */
#if ALT_CPU_NUM_GPR == 32 
    sw a6, 10 * 4(sp)
  4c:	03012423          	sw	a6,40(sp)
    sw a7, 11 * 4(sp)
  50:	03112623          	sw	a7,44(sp)
    sw t3, 12 * 4(sp)
  54:	03c12823          	sw	t3,48(sp)
    sw t4, 13 * 4(sp)
  58:	03d12a23          	sw	t4,52(sp)
    sw t5, 14 * 4(sp)
  5c:	03e12c23          	sw	t5,56(sp)
    sw t6, 15 * 4(sp)
  60:	03f12e23          	sw	t6,60(sp)
    fsw fa6, 34 * 4(sp)
    fsw fa7, 35 * 4(sp)
#endif
   
    /* Call handle_trap to dispatch the correct handler, if available */
    csrr a0, mcause
  64:	34202573          	csrr	a0,mcause
    csrr a1, mepc
  68:	341025f3          	csrr	a1,mepc
    csrr a2, mtval
  6c:	34302673          	csrr	a2,mtval
    jal handle_trap
  70:	18c000ef          	jal	1fc <handle_trap>
    csrw mepc, a0
  74:	34151073          	csrw	mepc,a0

    /* Restore caller-saved registers */

    /* rv32e (16-bit), rv32i and rv32if */
    lw ra,  0 * 4(sp)
  78:	00012083          	lw	ra,0(sp)
    lw t0,  1 * 4(sp)
  7c:	00412283          	lw	t0,4(sp)
    lw t1,  2 * 4(sp)
  80:	00812303          	lw	t1,8(sp)
    lw t2,  3 * 4(sp)
  84:	00c12383          	lw	t2,12(sp)
    lw a0,  4 * 4(sp)
  88:	01012503          	lw	a0,16(sp)
    lw a1,  5 * 4(sp)
  8c:	01412583          	lw	a1,20(sp)
    lw a2,  6 * 4(sp)
  90:	01812603          	lw	a2,24(sp)
    lw a3,  7 * 4(sp)
  94:	01c12683          	lw	a3,28(sp)
    lw a4,  8 * 4(sp)
  98:	02012703          	lw	a4,32(sp)
    lw a5,  9 * 4(sp)
  9c:	02412783          	lw	a5,36(sp)

    /* rv32i and rv32if */
#if ALT_CPU_NUM_GPR == 32	
    lw a6, 10 * 4(sp)
  a0:	02812803          	lw	a6,40(sp)
    lw a7, 11 * 4(sp)
  a4:	02c12883          	lw	a7,44(sp)
    lw t3, 12 * 4(sp)
  a8:	03012e03          	lw	t3,48(sp)
    lw t4, 13 * 4(sp)
  ac:	03412e83          	lw	t4,52(sp)
    lw t5, 14 * 4(sp)
  b0:	03812f03          	lw	t5,56(sp)
    lw t6, 15 * 4(sp)
  b4:	03c12f83          	lw	t6,60(sp)
#endif

#if __riscv_flen == 32 // rv32if
    addi sp, sp, 36 * 4
#elif ALT_CPU_NUM_GPR == 32 // rv32i
	addi sp, sp, 16 * 4
  b8:	04010113          	add	sp,sp,64
    lw s0, 0(sp)
    lw s1, 4(sp)
    addi sp, sp, 8
#endif

    mret
  bc:	30200073          	mret

000000c0 <is_ecc_handler_present>:
    }

    return epc;
}

alt_u32 is_ecc_handler_present (alt_u32 e_code) {
  c0:	fd010113          	add	sp,sp,-48
  c4:	02812623          	sw	s0,44(sp)
  c8:	03010413          	add	s0,sp,48
  cc:	fca42e23          	sw	a0,-36(s0)
#ifdef ALT_CPU_ECC_PRESENT
    alt_u32 present = (e_code == NIOSV_ECC_EXCEPTION && alt_ecc_exception_handler);
#else
    alt_u32 present = 0;
  d0:	fe042623          	sw	zero,-20(s0)
#endif
    return present;
  d4:	fec42783          	lw	a5,-20(s0)
} 
  d8:	00078513          	mv	a0,a5
  dc:	02c12403          	lw	s0,44(sp)
  e0:	03010113          	add	sp,sp,48
  e4:	00008067          	ret

000000e8 <break_operation>:

void break_operation (void)
{
  e8:	ff010113          	add	sp,sp,-16
  ec:	00812623          	sw	s0,12(sp)
  f0:	01010413          	add	s0,sp,16
#ifdef ALT_CPU_HAS_DEBUG_STUB
            NIOSV_EBREAK();
  f4:	00100073          	ebreak
#else  // ALT_CPU_HAS_DEBUG_STUB
            while(1)
                ;
#endif // ALT_CPU_HAS_DEBUG_STUB  
}
  f8:	00000013          	nop
  fc:	00c12403          	lw	s0,12(sp)
 100:	01010113          	add	sp,sp,16
 104:	00008067          	ret

00000108 <alt_irq_handler>:
 * This means that if there is never a call to alt_irq_register() then
 * this function will not get linked in to the executable. This is acceptable
 * since if no handler is ever registered, then an interrupt can never occur.
 */
void alt_irq_handler (void)
{
 108:	fd010113          	add	sp,sp,-48
 10c:	02112623          	sw	ra,44(sp)
 110:	02812423          	sw	s0,40(sp)
 114:	03010413          	add	s0,sp,48
    alt_u32 i;

    /*
     * Notify the operating system that we are at interrupt level.
     */  
    ALT_OS_INT_ENTER();
 118:	00000013          	nop
{
#if ALT_HAS_IRQ_SUPPORT
    alt_u32 active;
    alt_u32 enabled;

    NIOSV_READ_CSR(NIOSV_MIP_CSR, active);
 11c:	344027f3          	csrr	a5,mip
 120:	fef42023          	sw	a5,-32(s0)
    NIOSV_READ_CSR(NIOSV_MIE_CSR, enabled);
 124:	304027f3          	csrr	a5,mie
 128:	fef42223          	sw	a5,-28(s0)

    // Since this is used by alt_irq_handler, we want to only process the upper 16-bits
    // --> the interrupt lines connected via Platform Designer...
    return (active & enabled) >> 16;
 12c:	fe042703          	lw	a4,-32(s0)
 130:	fe442783          	lw	a5,-28(s0)
 134:	00f777b3          	and	a5,a4,a5
 138:	0107d793          	srl	a5,a5,0x10
     * reduced by finding out which interrupts are pending as late as possible.
     * Consider the case where the high priority interupt is asserted during
     * the interrupt entry sequence for a lower priority interrupt to see why
     * this is the case.
     */
    active = alt_irq_pending();
 13c:	fcf42a23          	sw	a5,-44(s0)

    do
    {
        i = 0;
 140:	fc042e23          	sw	zero,-36(s0)
        mask = 1;
 144:	00100793          	li	a5,1
 148:	fcf42c23          	sw	a5,-40(s0)
         * called to clear the interrupt condition.
         */

        do
        {
            if (active & mask)
 14c:	fd442703          	lw	a4,-44(s0)
 150:	fd842783          	lw	a5,-40(s0)
 154:	00f777b3          	and	a5,a4,a5
 158:	06078263          	beqz	a5,1bc <alt_irq_handler+0xb4>
            {
                alt_irq[i].handler(alt_irq[i].context); 
 15c:	000207b7          	lui	a5,0x20
 160:	c6078713          	add	a4,a5,-928 # 1fc60 <alt_irq>
 164:	fdc42783          	lw	a5,-36(s0)
 168:	00379793          	sll	a5,a5,0x3
 16c:	00f707b3          	add	a5,a4,a5
 170:	0007a703          	lw	a4,0(a5)
 174:	000207b7          	lui	a5,0x20
 178:	c6078693          	add	a3,a5,-928 # 1fc60 <alt_irq>
 17c:	fdc42783          	lw	a5,-36(s0)
 180:	00379793          	sll	a5,a5,0x3
 184:	00f687b3          	add	a5,a3,a5
 188:	0047a783          	lw	a5,4(a5)
 18c:	00078513          	mv	a0,a5
 190:	000700e7          	jalr	a4
                break;
 194:	00000013          	nop
    NIOSV_READ_CSR(NIOSV_MIP_CSR, active);
 198:	344027f3          	csrr	a5,mip
 19c:	fef42423          	sw	a5,-24(s0)
    NIOSV_READ_CSR(NIOSV_MIE_CSR, enabled);
 1a0:	304027f3          	csrr	a5,mie
 1a4:	fef42623          	sw	a5,-20(s0)
    return (active & enabled) >> 16;
 1a8:	fe842703          	lw	a4,-24(s0)
 1ac:	fec42783          	lw	a5,-20(s0)
 1b0:	00f777b3          	and	a5,a4,a5
 1b4:	0107d793          	srl	a5,a5,0x10
 1b8:	0200006f          	j	1d8 <alt_irq_handler+0xd0>
            }
            
            mask <<= 1;
 1bc:	fd842783          	lw	a5,-40(s0)
 1c0:	00179793          	sll	a5,a5,0x1
 1c4:	fcf42c23          	sw	a5,-40(s0)
            i++;
 1c8:	fdc42783          	lw	a5,-36(s0)
 1cc:	00178793          	add	a5,a5,1
 1d0:	fcf42e23          	sw	a5,-36(s0)
            if (active & mask)
 1d4:	f79ff06f          	j	14c <alt_irq_handler+0x44>
            
        } while (1);

        active = alt_irq_pending();
 1d8:	fcf42a23          	sw	a5,-44(s0)
    
    } while (active);
 1dc:	fd442783          	lw	a5,-44(s0)
 1e0:	f60790e3          	bnez	a5,140 <alt_irq_handler+0x38>

    /*
     * Notify the operating system that interrupt processing is complete.
     */ 

    ALT_OS_INT_EXIT();
 1e4:	00000013          	nop
}
 1e8:	00000013          	nop
 1ec:	02c12083          	lw	ra,44(sp)
 1f0:	02812403          	lw	s0,40(sp)
 1f4:	03010113          	add	sp,sp,48
 1f8:	00008067          	ret

000001fc <handle_trap>:
{
 1fc:	fd010113          	add	sp,sp,-48
 200:	02112623          	sw	ra,44(sp)
 204:	02812423          	sw	s0,40(sp)
 208:	03010413          	add	s0,sp,48
 20c:	fca42e23          	sw	a0,-36(s0)
 210:	fcb42c23          	sw	a1,-40(s0)
 214:	fcc42a23          	sw	a2,-44(s0)
    is_irq = (cause & NIOSV_MCAUSE_INTERRUPT_MASK);
 218:	fdc42703          	lw	a4,-36(s0)
 21c:	800007b7          	lui	a5,0x80000
 220:	00f777b3          	and	a5,a4,a5
 224:	fef42423          	sw	a5,-24(s0)
    exception_code = (cause & ~NIOSV_MCAUSE_INTERRUPT_MASK);
 228:	fdc42703          	lw	a4,-36(s0)
 22c:	800007b7          	lui	a5,0x80000
 230:	fff78793          	add	a5,a5,-1 # 7fffffff <__alt_data_end+0x7ffc3fff>
 234:	00f777b3          	and	a5,a4,a5
 238:	fef42623          	sw	a5,-20(s0)
    if (is_irq) {
 23c:	fe842783          	lw	a5,-24(s0)
 240:	08078863          	beqz	a5,2d0 <handle_trap+0xd4>
        switch (exception_code) {
 244:	fec42703          	lw	a4,-20(s0)
 248:	00300793          	li	a5,3
 24c:	04f70063          	beq	a4,a5,28c <handle_trap+0x90>
 250:	fec42703          	lw	a4,-20(s0)
 254:	00700793          	li	a5,7
 258:	06f71263          	bne	a4,a5,2bc <handle_trap+0xc0>
                if (alt_niosv_timer_interrupt_handler) {
 25c:	000207b7          	lui	a5,0x20
 260:	bf47a783          	lw	a5,-1036(a5) # 1fbf4 <alt_niosv_timer_interrupt_handler>
 264:	08078263          	beqz	a5,2e8 <handle_trap+0xec>
                    ALT_OS_INT_ENTER();
 268:	00000013          	nop
                    alt_niosv_timer_interrupt_handler(cause, epc, tval);
 26c:	000207b7          	lui	a5,0x20
 270:	bf47a783          	lw	a5,-1036(a5) # 1fbf4 <alt_niosv_timer_interrupt_handler>
 274:	fd442603          	lw	a2,-44(s0)
 278:	fd842583          	lw	a1,-40(s0)
 27c:	fdc42503          	lw	a0,-36(s0)
 280:	000780e7          	jalr	a5
                    ALT_OS_INT_EXIT();
 284:	00000013          	nop
                break;
 288:	0600006f          	j	2e8 <handle_trap+0xec>
                if (alt_niosv_software_interrupt_handler) {
 28c:	000207b7          	lui	a5,0x20
 290:	bf07a783          	lw	a5,-1040(a5) # 1fbf0 <alt_niosv_software_interrupt_handler>
 294:	04078e63          	beqz	a5,2f0 <handle_trap+0xf4>
                    ALT_OS_INT_ENTER();
 298:	00000013          	nop
                    alt_niosv_software_interrupt_handler(cause, epc, tval);
 29c:	000207b7          	lui	a5,0x20
 2a0:	bf07a783          	lw	a5,-1040(a5) # 1fbf0 <alt_niosv_software_interrupt_handler>
 2a4:	fd442603          	lw	a2,-44(s0)
 2a8:	fd842583          	lw	a1,-40(s0)
 2ac:	fdc42503          	lw	a0,-36(s0)
 2b0:	000780e7          	jalr	a5
                    ALT_OS_INT_EXIT();
 2b4:	00000013          	nop
                break;
 2b8:	0380006f          	j	2f0 <handle_trap+0xf4>
                if (exception_code >= 16) {
 2bc:	fec42703          	lw	a4,-20(s0)
 2c0:	00f00793          	li	a5,15
 2c4:	02e7fa63          	bgeu	a5,a4,2f8 <handle_trap+0xfc>
                    alt_irq_handler();
 2c8:	e41ff0ef          	jal	108 <alt_irq_handler>
                break;
 2cc:	02c0006f          	j	2f8 <handle_trap+0xfc>
        if (!is_ecc_handler_present(exception_code)) {
 2d0:	fec42503          	lw	a0,-20(s0)
 2d4:	dedff0ef          	jal	c0 <is_ecc_handler_present>
 2d8:	00050793          	mv	a5,a0
 2dc:	02079063          	bnez	a5,2fc <handle_trap+0x100>
             break_operation();
 2e0:	e09ff0ef          	jal	e8 <break_operation>
 2e4:	0180006f          	j	2fc <handle_trap+0x100>
                break;
 2e8:	00000013          	nop
 2ec:	0100006f          	j	2fc <handle_trap+0x100>
                break;
 2f0:	00000013          	nop
 2f4:	0080006f          	j	2fc <handle_trap+0x100>
                break;
 2f8:	00000013          	nop
    return epc;
 2fc:	fd842783          	lw	a5,-40(s0)
}
 300:	00078513          	mv	a0,a5
 304:	02c12083          	lw	ra,44(sp)
 308:	02812403          	lw	s0,40(sp)
 30c:	03010113          	add	sp,sp,48
 310:	00008067          	ret

Disassembly of section .text:

00000314 <main>:
#include "sys/alt_timestamp.h"
#include "kissfft/kiss_fft.h"

#define FFT_SIZE 8

int main() {
     314:	f3010113          	add	sp,sp,-208
     318:	0c112623          	sw	ra,204(sp)
     31c:	0c812423          	sw	s0,200(sp)
     320:	0d010413          	add	s0,sp,208
     324:	000207b7          	lui	a5,0x20
     328:	c287a703          	lw	a4,-984(a5) # 1fc28 <__stack_chk_guard>
     32c:	fee42623          	sw	a4,-20(s0)
     330:	00000713          	li	a4,0
    if(!alt_timestamp_start()) {
     334:	6d4030ef          	jal	3a08 <alt_timestamp_start>
     338:	00050793          	mv	a5,a0
     33c:	00079c63          	bnez	a5,354 <main+0x40>
        printf("Timestamp timer not available.\n");
     340:	0001c7b7          	lui	a5,0x1c
     344:	b8078513          	add	a0,a5,-1152 # 1bb80 <__flash_rodata_start>
     348:	75c060ef          	jal	6aa4 <puts>
        return -1;
     34c:	fff00793          	li	a5,-1
     350:	1f40006f          	j	544 <main+0x230>
    }

    kiss_fft_cpx in[FFT_SIZE], out[FFT_SIZE];
    for(int i=0;i<FFT_SIZE;i++){ in[i].r = i; in[i].i = 0; }
     354:	f2042e23          	sw	zero,-196(s0)
     358:	0480006f          	j	3a0 <main+0x8c>
     35c:	f3c42503          	lw	a0,-196(s0)
     360:	2d9170ef          	jal	17e38 <__floatsisf>
     364:	00050713          	mv	a4,a0
     368:	f3c42783          	lw	a5,-196(s0)
     36c:	00379793          	sll	a5,a5,0x3
     370:	ff078793          	add	a5,a5,-16
     374:	008787b3          	add	a5,a5,s0
     378:	f6e7ae23          	sw	a4,-132(a5)
     37c:	f3c42783          	lw	a5,-196(s0)
     380:	00379793          	sll	a5,a5,0x3
     384:	ff078793          	add	a5,a5,-16
     388:	008787b3          	add	a5,a5,s0
     38c:	00000713          	li	a4,0
     390:	f8e7a023          	sw	a4,-128(a5)
     394:	f3c42783          	lw	a5,-196(s0)
     398:	00178793          	add	a5,a5,1
     39c:	f2f42e23          	sw	a5,-196(s0)
     3a0:	f3c42703          	lw	a4,-196(s0)
     3a4:	00700793          	li	a5,7
     3a8:	fae7dae3          	bge	a5,a4,35c <main+0x48>
    kiss_fft_cfg cfg = kiss_fft_alloc(FFT_SIZE, 0, NULL, NULL);
     3ac:	00000693          	li	a3,0
     3b0:	00000613          	li	a2,0
     3b4:	00000593          	li	a1,0
     3b8:	00800513          	li	a0,8
     3bc:	29c020ef          	jal	2658 <kiss_fft_alloc>
     3c0:	f4a42223          	sw	a0,-188(s0)
    if(!cfg){ printf("FFT allocation failed!\n"); return -1; }
     3c4:	f4442783          	lw	a5,-188(s0)
     3c8:	00079c63          	bnez	a5,3e0 <main+0xcc>
     3cc:	0001c7b7          	lui	a5,0x1c
     3d0:	ba078513          	add	a0,a5,-1120 # 1bba0 <__flash_rodata_start+0x20>
     3d4:	6d0060ef          	jal	6aa4 <puts>
     3d8:	fff00793          	li	a5,-1
     3dc:	1680006f          	j	544 <main+0x230>

    // 讀取起始 tick
    int repeat = 1000;
     3e0:	3e800793          	li	a5,1000
     3e4:	f4f42423          	sw	a5,-184(s0)
    alt_u32 start = alt_timestamp();
     3e8:	6c8030ef          	jal	3ab0 <alt_timestamp>
     3ec:	00050713          	mv	a4,a0
     3f0:	00058793          	mv	a5,a1
     3f4:	f4e42623          	sw	a4,-180(s0)
    for(int r=0;r<repeat;r++)
     3f8:	f4042023          	sw	zero,-192(s0)
     3fc:	0280006f          	j	424 <main+0x110>
        kiss_fft(cfg, in, out);
     400:	fac40713          	add	a4,s0,-84
     404:	f6c40793          	add	a5,s0,-148
     408:	00070613          	mv	a2,a4
     40c:	00078593          	mv	a1,a5
     410:	f4442503          	lw	a0,-188(s0)
     414:	614020ef          	jal	2a28 <kiss_fft>
    for(int r=0;r<repeat;r++)
     418:	f4042783          	lw	a5,-192(s0)
     41c:	00178793          	add	a5,a5,1
     420:	f4f42023          	sw	a5,-192(s0)
     424:	f4042703          	lw	a4,-192(s0)
     428:	f4842783          	lw	a5,-184(s0)
     42c:	fcf74ae3          	blt	a4,a5,400 <main+0xec>
    alt_u32 end = alt_timestamp();
     430:	680030ef          	jal	3ab0 <alt_timestamp>
     434:	00050713          	mv	a4,a0
     438:	00058793          	mv	a5,a1
     43c:	f4e42823          	sw	a4,-176(s0)

    kiss_fft_free(cfg);
     440:	f4442503          	lw	a0,-188(s0)
     444:	739040ef          	jal	537c <free>

    alt_u32 ticks = end - start;
     448:	f5042703          	lw	a4,-176(s0)
     44c:	f4c42783          	lw	a5,-180(s0)
     450:	40f707b3          	sub	a5,a4,a5
     454:	f4f42a23          	sw	a5,-172(s0)
    double ms = ticks * 1000.0 / NIOSV_INTERNAL_TIMER_TICKS_PER_SECOND;
     458:	f5442503          	lw	a0,-172(s0)
     45c:	798130ef          	jal	13bf4 <__floatunsidf>
     460:	00050713          	mv	a4,a0
     464:	00058793          	mv	a5,a1
     468:	0001c6b7          	lui	a3,0x1c
     46c:	c086a603          	lw	a2,-1016(a3) # 1bc08 <__flash_rodata_start+0x88>
     470:	c0c6a683          	lw	a3,-1012(a3)
     474:	00070513          	mv	a0,a4
     478:	00078593          	mv	a1,a5
     47c:	5a4120ef          	jal	12a20 <__muldf3>
     480:	00050713          	mv	a4,a0
     484:	00058793          	mv	a5,a1
     488:	00070513          	mv	a0,a4
     48c:	00078593          	mv	a1,a5
     490:	0001c7b7          	lui	a5,0x1c
     494:	c087a603          	lw	a2,-1016(a5) # 1bc08 <__flash_rodata_start+0x88>
     498:	c0c7a683          	lw	a3,-1012(a5)
     49c:	249110ef          	jal	11ee4 <__divdf3>
     4a0:	00050713          	mv	a4,a0
     4a4:	00058793          	mv	a5,a1
     4a8:	f4e42c23          	sw	a4,-168(s0)
     4ac:	f4f42e23          	sw	a5,-164(s0)
    double cpi = (double)ticks * (ALT_CPU_FREQ / NIOSV_INTERNAL_TIMER_TICKS_PER_SECOND) / FFT_SIZE;
     4b0:	f5442503          	lw	a0,-172(s0)
     4b4:	740130ef          	jal	13bf4 <__floatunsidf>
     4b8:	00050713          	mv	a4,a0
     4bc:	00058793          	mv	a5,a1
     4c0:	0001c6b7          	lui	a3,0x1c
     4c4:	c106a603          	lw	a2,-1008(a3) # 1bc10 <__flash_rodata_start+0x90>
     4c8:	c146a683          	lw	a3,-1004(a3)
     4cc:	00070513          	mv	a0,a4
     4d0:	00078593          	mv	a1,a5
     4d4:	54c120ef          	jal	12a20 <__muldf3>
     4d8:	00050713          	mv	a4,a0
     4dc:	00058793          	mv	a5,a1
     4e0:	00070513          	mv	a0,a4
     4e4:	00078593          	mv	a1,a5
     4e8:	0001c7b7          	lui	a5,0x1c
     4ec:	c187a603          	lw	a2,-1000(a5) # 1bc18 <__flash_rodata_start+0x98>
     4f0:	c1c7a683          	lw	a3,-996(a5)
     4f4:	1f1110ef          	jal	11ee4 <__divdf3>
     4f8:	00050713          	mv	a4,a0
     4fc:	00058793          	mv	a5,a1
     500:	f6e42023          	sw	a4,-160(s0)
     504:	f6f42223          	sw	a5,-156(s0)

    printf("FFT time: %lu ticks\n", ticks);
     508:	f5442583          	lw	a1,-172(s0)
     50c:	0001c7b7          	lui	a5,0x1c
     510:	bb878513          	add	a0,a5,-1096 # 1bbb8 <__flash_rodata_start+0x38>
     514:	184060ef          	jal	6698 <printf>
    printf("FFT time: %.3f ms\n", ms);
     518:	f5842603          	lw	a2,-168(s0)
     51c:	f5c42683          	lw	a3,-164(s0)
     520:	0001c7b7          	lui	a5,0x1c
     524:	bd078513          	add	a0,a5,-1072 # 1bbd0 <__flash_rodata_start+0x50>
     528:	170060ef          	jal	6698 <printf>
    printf("Approx CPI per FFT element: %.3f\n", cpi);
     52c:	f6042603          	lw	a2,-160(s0)
     530:	f6442683          	lw	a3,-156(s0)
     534:	0001c7b7          	lui	a5,0x1c
     538:	be478513          	add	a0,a5,-1052 # 1bbe4 <__flash_rodata_start+0x64>
     53c:	15c060ef          	jal	6698 <printf>

    return 0;
     540:	00000793          	li	a5,0
}
     544:	00078713          	mv	a4,a5
     548:	000207b7          	lui	a5,0x20
     54c:	fec42683          	lw	a3,-20(s0)
     550:	c287a783          	lw	a5,-984(a5) # 1fc28 <__stack_chk_guard>
     554:	00f6c7b3          	xor	a5,a3,a5
     558:	00000693          	li	a3,0
     55c:	00078463          	beqz	a5,564 <main+0x250>
     560:	551040ef          	jal	52b0 <__stack_chk_fail>
     564:	00070513          	mv	a0,a4
     568:	0cc12083          	lw	ra,204(sp)
     56c:	0c812403          	lw	s0,200(sp)
     570:	0d010113          	add	sp,sp,208
     574:	00008067          	ret

00000578 <kf_bfly2>:
        kiss_fft_cpx * Fout,
        const size_t fstride,
        const kiss_fft_cfg st,
        int m
        )
{
     578:	fd010113          	add	sp,sp,-48
     57c:	02112623          	sw	ra,44(sp)
     580:	02812423          	sw	s0,40(sp)
     584:	02912223          	sw	s1,36(sp)
     588:	03010413          	add	s0,sp,48
     58c:	fca42e23          	sw	a0,-36(s0)
     590:	fcb42c23          	sw	a1,-40(s0)
     594:	fcc42a23          	sw	a2,-44(s0)
     598:	fcd42823          	sw	a3,-48(s0)
    kiss_fft_cpx * Fout2;
    kiss_fft_cpx * tw1 = st->twiddles;
     59c:	fd442783          	lw	a5,-44(s0)
     5a0:	10878793          	add	a5,a5,264
     5a4:	fef42223          	sw	a5,-28(s0)
    kiss_fft_cpx t;
    Fout2 = Fout + m;
     5a8:	fd042783          	lw	a5,-48(s0)
     5ac:	00379793          	sll	a5,a5,0x3
     5b0:	fdc42703          	lw	a4,-36(s0)
     5b4:	00f707b3          	add	a5,a4,a5
     5b8:	fef42023          	sw	a5,-32(s0)
    do{
        C_FIXDIV(*Fout,2); C_FIXDIV(*Fout2,2);

        C_MUL (t,  *Fout2 , *tw1);
     5bc:	fe042783          	lw	a5,-32(s0)
     5c0:	0007a703          	lw	a4,0(a5)
     5c4:	fe442783          	lw	a5,-28(s0)
     5c8:	0007a783          	lw	a5,0(a5)
     5cc:	00078593          	mv	a1,a5
     5d0:	00070513          	mv	a0,a4
     5d4:	739160ef          	jal	1750c <__mulsf3>
     5d8:	00050793          	mv	a5,a0
     5dc:	00078493          	mv	s1,a5
     5e0:	fe042783          	lw	a5,-32(s0)
     5e4:	0047a703          	lw	a4,4(a5)
     5e8:	fe442783          	lw	a5,-28(s0)
     5ec:	0047a783          	lw	a5,4(a5)
     5f0:	00078593          	mv	a1,a5
     5f4:	00070513          	mv	a0,a4
     5f8:	715160ef          	jal	1750c <__mulsf3>
     5fc:	00050793          	mv	a5,a0
     600:	00078593          	mv	a1,a5
     604:	00048513          	mv	a0,s1
     608:	310170ef          	jal	17918 <__subsf3>
     60c:	00050793          	mv	a5,a0
     610:	fef42423          	sw	a5,-24(s0)
     614:	fe042783          	lw	a5,-32(s0)
     618:	0007a703          	lw	a4,0(a5)
     61c:	fe442783          	lw	a5,-28(s0)
     620:	0047a783          	lw	a5,4(a5)
     624:	00078593          	mv	a1,a5
     628:	00070513          	mv	a0,a4
     62c:	6e1160ef          	jal	1750c <__mulsf3>
     630:	00050793          	mv	a5,a0
     634:	00078493          	mv	s1,a5
     638:	fe042783          	lw	a5,-32(s0)
     63c:	0047a703          	lw	a4,4(a5)
     640:	fe442783          	lw	a5,-28(s0)
     644:	0007a783          	lw	a5,0(a5)
     648:	00078593          	mv	a1,a5
     64c:	00070513          	mv	a0,a4
     650:	6bd160ef          	jal	1750c <__mulsf3>
     654:	00050793          	mv	a5,a0
     658:	00078593          	mv	a1,a5
     65c:	00048513          	mv	a0,s1
     660:	1d5160ef          	jal	17034 <__addsf3>
     664:	00050793          	mv	a5,a0
     668:	fef42623          	sw	a5,-20(s0)
        tw1 += fstride;
     66c:	fd842783          	lw	a5,-40(s0)
     670:	00379793          	sll	a5,a5,0x3
     674:	fe442703          	lw	a4,-28(s0)
     678:	00f707b3          	add	a5,a4,a5
     67c:	fef42223          	sw	a5,-28(s0)
        C_SUB( *Fout2 ,  *Fout , t );
     680:	fdc42783          	lw	a5,-36(s0)
     684:	0007a783          	lw	a5,0(a5)
     688:	fe842703          	lw	a4,-24(s0)
     68c:	00070593          	mv	a1,a4
     690:	00078513          	mv	a0,a5
     694:	284170ef          	jal	17918 <__subsf3>
     698:	00050793          	mv	a5,a0
     69c:	00078713          	mv	a4,a5
     6a0:	fe042783          	lw	a5,-32(s0)
     6a4:	00e7a023          	sw	a4,0(a5)
     6a8:	fdc42783          	lw	a5,-36(s0)
     6ac:	0047a783          	lw	a5,4(a5)
     6b0:	fec42703          	lw	a4,-20(s0)
     6b4:	00070593          	mv	a1,a4
     6b8:	00078513          	mv	a0,a5
     6bc:	25c170ef          	jal	17918 <__subsf3>
     6c0:	00050793          	mv	a5,a0
     6c4:	00078713          	mv	a4,a5
     6c8:	fe042783          	lw	a5,-32(s0)
     6cc:	00e7a223          	sw	a4,4(a5)
        C_ADDTO( *Fout ,  t );
     6d0:	fdc42783          	lw	a5,-36(s0)
     6d4:	0007a783          	lw	a5,0(a5)
     6d8:	fe842703          	lw	a4,-24(s0)
     6dc:	00070593          	mv	a1,a4
     6e0:	00078513          	mv	a0,a5
     6e4:	151160ef          	jal	17034 <__addsf3>
     6e8:	00050793          	mv	a5,a0
     6ec:	00078713          	mv	a4,a5
     6f0:	fdc42783          	lw	a5,-36(s0)
     6f4:	00e7a023          	sw	a4,0(a5)
     6f8:	fdc42783          	lw	a5,-36(s0)
     6fc:	0047a783          	lw	a5,4(a5)
     700:	fec42703          	lw	a4,-20(s0)
     704:	00070593          	mv	a1,a4
     708:	00078513          	mv	a0,a5
     70c:	129160ef          	jal	17034 <__addsf3>
     710:	00050793          	mv	a5,a0
     714:	00078713          	mv	a4,a5
     718:	fdc42783          	lw	a5,-36(s0)
     71c:	00e7a223          	sw	a4,4(a5)
        ++Fout2;
     720:	fe042783          	lw	a5,-32(s0)
     724:	00878793          	add	a5,a5,8
     728:	fef42023          	sw	a5,-32(s0)
        ++Fout;
     72c:	fdc42783          	lw	a5,-36(s0)
     730:	00878793          	add	a5,a5,8
     734:	fcf42e23          	sw	a5,-36(s0)
    }while (--m);
     738:	fd042783          	lw	a5,-48(s0)
     73c:	fff78793          	add	a5,a5,-1
     740:	fcf42823          	sw	a5,-48(s0)
     744:	fd042783          	lw	a5,-48(s0)
     748:	e6079ae3          	bnez	a5,5bc <kf_bfly2+0x44>
}
     74c:	00000013          	nop
     750:	00000013          	nop
     754:	02c12083          	lw	ra,44(sp)
     758:	02812403          	lw	s0,40(sp)
     75c:	02412483          	lw	s1,36(sp)
     760:	03010113          	add	sp,sp,48
     764:	00008067          	ret

00000768 <kf_bfly4>:
        kiss_fft_cpx * Fout,
        const size_t fstride,
        const kiss_fft_cfg st,
        const size_t m
        )
{
     768:	f9010113          	add	sp,sp,-112
     76c:	06112623          	sw	ra,108(sp)
     770:	06812423          	sw	s0,104(sp)
     774:	06912223          	sw	s1,100(sp)
     778:	07010413          	add	s0,sp,112
     77c:	f8a42e23          	sw	a0,-100(s0)
     780:	f8b42c23          	sw	a1,-104(s0)
     784:	f8c42a23          	sw	a2,-108(s0)
     788:	f8d42823          	sw	a3,-112(s0)
     78c:	000207b7          	lui	a5,0x20
     790:	c287a703          	lw	a4,-984(a5) # 1fc28 <__stack_chk_guard>
     794:	fee42623          	sw	a4,-20(s0)
     798:	00000713          	li	a4,0
    kiss_fft_cpx *tw1,*tw2,*tw3;
    kiss_fft_cpx scratch[6];
    size_t k=m;
     79c:	f9042783          	lw	a5,-112(s0)
     7a0:	faf42823          	sw	a5,-80(s0)
    const size_t m2=2*m;
     7a4:	f9042783          	lw	a5,-112(s0)
     7a8:	00179793          	sll	a5,a5,0x1
     7ac:	faf42a23          	sw	a5,-76(s0)
    const size_t m3=3*m;
     7b0:	f9042703          	lw	a4,-112(s0)
     7b4:	00070793          	mv	a5,a4
     7b8:	00179793          	sll	a5,a5,0x1
     7bc:	00e787b3          	add	a5,a5,a4
     7c0:	faf42c23          	sw	a5,-72(s0)


    tw3 = tw2 = tw1 = st->twiddles;
     7c4:	f9442783          	lw	a5,-108(s0)
     7c8:	10878793          	add	a5,a5,264
     7cc:	faf42223          	sw	a5,-92(s0)
     7d0:	fa442783          	lw	a5,-92(s0)
     7d4:	faf42423          	sw	a5,-88(s0)
     7d8:	fa842783          	lw	a5,-88(s0)
     7dc:	faf42623          	sw	a5,-84(s0)

    do {
        C_FIXDIV(*Fout,4); C_FIXDIV(Fout[m],4); C_FIXDIV(Fout[m2],4); C_FIXDIV(Fout[m3],4);

        C_MUL(scratch[0],Fout[m] , *tw1 );
     7e0:	f9042783          	lw	a5,-112(s0)
     7e4:	00379793          	sll	a5,a5,0x3
     7e8:	f9c42703          	lw	a4,-100(s0)
     7ec:	00f707b3          	add	a5,a4,a5
     7f0:	0007a703          	lw	a4,0(a5)
     7f4:	fa442783          	lw	a5,-92(s0)
     7f8:	0007a783          	lw	a5,0(a5)
     7fc:	00078593          	mv	a1,a5
     800:	00070513          	mv	a0,a4
     804:	509160ef          	jal	1750c <__mulsf3>
     808:	00050793          	mv	a5,a0
     80c:	00078493          	mv	s1,a5
     810:	f9042783          	lw	a5,-112(s0)
     814:	00379793          	sll	a5,a5,0x3
     818:	f9c42703          	lw	a4,-100(s0)
     81c:	00f707b3          	add	a5,a4,a5
     820:	0047a703          	lw	a4,4(a5)
     824:	fa442783          	lw	a5,-92(s0)
     828:	0047a783          	lw	a5,4(a5)
     82c:	00078593          	mv	a1,a5
     830:	00070513          	mv	a0,a4
     834:	4d9160ef          	jal	1750c <__mulsf3>
     838:	00050793          	mv	a5,a0
     83c:	00078593          	mv	a1,a5
     840:	00048513          	mv	a0,s1
     844:	0d4170ef          	jal	17918 <__subsf3>
     848:	00050793          	mv	a5,a0
     84c:	faf42e23          	sw	a5,-68(s0)
     850:	f9042783          	lw	a5,-112(s0)
     854:	00379793          	sll	a5,a5,0x3
     858:	f9c42703          	lw	a4,-100(s0)
     85c:	00f707b3          	add	a5,a4,a5
     860:	0007a703          	lw	a4,0(a5)
     864:	fa442783          	lw	a5,-92(s0)
     868:	0047a783          	lw	a5,4(a5)
     86c:	00078593          	mv	a1,a5
     870:	00070513          	mv	a0,a4
     874:	499160ef          	jal	1750c <__mulsf3>
     878:	00050793          	mv	a5,a0
     87c:	00078493          	mv	s1,a5
     880:	f9042783          	lw	a5,-112(s0)
     884:	00379793          	sll	a5,a5,0x3
     888:	f9c42703          	lw	a4,-100(s0)
     88c:	00f707b3          	add	a5,a4,a5
     890:	0047a703          	lw	a4,4(a5)
     894:	fa442783          	lw	a5,-92(s0)
     898:	0007a783          	lw	a5,0(a5)
     89c:	00078593          	mv	a1,a5
     8a0:	00070513          	mv	a0,a4
     8a4:	469160ef          	jal	1750c <__mulsf3>
     8a8:	00050793          	mv	a5,a0
     8ac:	00078593          	mv	a1,a5
     8b0:	00048513          	mv	a0,s1
     8b4:	780160ef          	jal	17034 <__addsf3>
     8b8:	00050793          	mv	a5,a0
     8bc:	fcf42023          	sw	a5,-64(s0)
        C_MUL(scratch[1],Fout[m2] , *tw2 );
     8c0:	fb442783          	lw	a5,-76(s0)
     8c4:	00379793          	sll	a5,a5,0x3
     8c8:	f9c42703          	lw	a4,-100(s0)
     8cc:	00f707b3          	add	a5,a4,a5
     8d0:	0007a703          	lw	a4,0(a5)
     8d4:	fa842783          	lw	a5,-88(s0)
     8d8:	0007a783          	lw	a5,0(a5)
     8dc:	00078593          	mv	a1,a5
     8e0:	00070513          	mv	a0,a4
     8e4:	429160ef          	jal	1750c <__mulsf3>
     8e8:	00050793          	mv	a5,a0
     8ec:	00078493          	mv	s1,a5
     8f0:	fb442783          	lw	a5,-76(s0)
     8f4:	00379793          	sll	a5,a5,0x3
     8f8:	f9c42703          	lw	a4,-100(s0)
     8fc:	00f707b3          	add	a5,a4,a5
     900:	0047a703          	lw	a4,4(a5)
     904:	fa842783          	lw	a5,-88(s0)
     908:	0047a783          	lw	a5,4(a5)
     90c:	00078593          	mv	a1,a5
     910:	00070513          	mv	a0,a4
     914:	3f9160ef          	jal	1750c <__mulsf3>
     918:	00050793          	mv	a5,a0
     91c:	00078593          	mv	a1,a5
     920:	00048513          	mv	a0,s1
     924:	7f5160ef          	jal	17918 <__subsf3>
     928:	00050793          	mv	a5,a0
     92c:	fcf42223          	sw	a5,-60(s0)
     930:	fb442783          	lw	a5,-76(s0)
     934:	00379793          	sll	a5,a5,0x3
     938:	f9c42703          	lw	a4,-100(s0)
     93c:	00f707b3          	add	a5,a4,a5
     940:	0007a703          	lw	a4,0(a5)
     944:	fa842783          	lw	a5,-88(s0)
     948:	0047a783          	lw	a5,4(a5)
     94c:	00078593          	mv	a1,a5
     950:	00070513          	mv	a0,a4
     954:	3b9160ef          	jal	1750c <__mulsf3>
     958:	00050793          	mv	a5,a0
     95c:	00078493          	mv	s1,a5
     960:	fb442783          	lw	a5,-76(s0)
     964:	00379793          	sll	a5,a5,0x3
     968:	f9c42703          	lw	a4,-100(s0)
     96c:	00f707b3          	add	a5,a4,a5
     970:	0047a703          	lw	a4,4(a5)
     974:	fa842783          	lw	a5,-88(s0)
     978:	0007a783          	lw	a5,0(a5)
     97c:	00078593          	mv	a1,a5
     980:	00070513          	mv	a0,a4
     984:	389160ef          	jal	1750c <__mulsf3>
     988:	00050793          	mv	a5,a0
     98c:	00078593          	mv	a1,a5
     990:	00048513          	mv	a0,s1
     994:	6a0160ef          	jal	17034 <__addsf3>
     998:	00050793          	mv	a5,a0
     99c:	fcf42423          	sw	a5,-56(s0)
        C_MUL(scratch[2],Fout[m3] , *tw3 );
     9a0:	fb842783          	lw	a5,-72(s0)
     9a4:	00379793          	sll	a5,a5,0x3
     9a8:	f9c42703          	lw	a4,-100(s0)
     9ac:	00f707b3          	add	a5,a4,a5
     9b0:	0007a703          	lw	a4,0(a5)
     9b4:	fac42783          	lw	a5,-84(s0)
     9b8:	0007a783          	lw	a5,0(a5)
     9bc:	00078593          	mv	a1,a5
     9c0:	00070513          	mv	a0,a4
     9c4:	349160ef          	jal	1750c <__mulsf3>
     9c8:	00050793          	mv	a5,a0
     9cc:	00078493          	mv	s1,a5
     9d0:	fb842783          	lw	a5,-72(s0)
     9d4:	00379793          	sll	a5,a5,0x3
     9d8:	f9c42703          	lw	a4,-100(s0)
     9dc:	00f707b3          	add	a5,a4,a5
     9e0:	0047a703          	lw	a4,4(a5)
     9e4:	fac42783          	lw	a5,-84(s0)
     9e8:	0047a783          	lw	a5,4(a5)
     9ec:	00078593          	mv	a1,a5
     9f0:	00070513          	mv	a0,a4
     9f4:	319160ef          	jal	1750c <__mulsf3>
     9f8:	00050793          	mv	a5,a0
     9fc:	00078593          	mv	a1,a5
     a00:	00048513          	mv	a0,s1
     a04:	715160ef          	jal	17918 <__subsf3>
     a08:	00050793          	mv	a5,a0
     a0c:	fcf42623          	sw	a5,-52(s0)
     a10:	fb842783          	lw	a5,-72(s0)
     a14:	00379793          	sll	a5,a5,0x3
     a18:	f9c42703          	lw	a4,-100(s0)
     a1c:	00f707b3          	add	a5,a4,a5
     a20:	0007a703          	lw	a4,0(a5)
     a24:	fac42783          	lw	a5,-84(s0)
     a28:	0047a783          	lw	a5,4(a5)
     a2c:	00078593          	mv	a1,a5
     a30:	00070513          	mv	a0,a4
     a34:	2d9160ef          	jal	1750c <__mulsf3>
     a38:	00050793          	mv	a5,a0
     a3c:	00078493          	mv	s1,a5
     a40:	fb842783          	lw	a5,-72(s0)
     a44:	00379793          	sll	a5,a5,0x3
     a48:	f9c42703          	lw	a4,-100(s0)
     a4c:	00f707b3          	add	a5,a4,a5
     a50:	0047a703          	lw	a4,4(a5)
     a54:	fac42783          	lw	a5,-84(s0)
     a58:	0007a783          	lw	a5,0(a5)
     a5c:	00078593          	mv	a1,a5
     a60:	00070513          	mv	a0,a4
     a64:	2a9160ef          	jal	1750c <__mulsf3>
     a68:	00050793          	mv	a5,a0
     a6c:	00078593          	mv	a1,a5
     a70:	00048513          	mv	a0,s1
     a74:	5c0160ef          	jal	17034 <__addsf3>
     a78:	00050793          	mv	a5,a0
     a7c:	fcf42823          	sw	a5,-48(s0)

        C_SUB( scratch[5] , *Fout, scratch[1] );
     a80:	f9c42783          	lw	a5,-100(s0)
     a84:	0007a783          	lw	a5,0(a5)
     a88:	fc442703          	lw	a4,-60(s0)
     a8c:	00070593          	mv	a1,a4
     a90:	00078513          	mv	a0,a5
     a94:	685160ef          	jal	17918 <__subsf3>
     a98:	00050793          	mv	a5,a0
     a9c:	fef42223          	sw	a5,-28(s0)
     aa0:	f9c42783          	lw	a5,-100(s0)
     aa4:	0047a783          	lw	a5,4(a5)
     aa8:	fc842703          	lw	a4,-56(s0)
     aac:	00070593          	mv	a1,a4
     ab0:	00078513          	mv	a0,a5
     ab4:	665160ef          	jal	17918 <__subsf3>
     ab8:	00050793          	mv	a5,a0
     abc:	fef42423          	sw	a5,-24(s0)
        C_ADDTO(*Fout, scratch[1]);
     ac0:	f9c42783          	lw	a5,-100(s0)
     ac4:	0007a783          	lw	a5,0(a5)
     ac8:	fc442703          	lw	a4,-60(s0)
     acc:	00070593          	mv	a1,a4
     ad0:	00078513          	mv	a0,a5
     ad4:	560160ef          	jal	17034 <__addsf3>
     ad8:	00050793          	mv	a5,a0
     adc:	00078713          	mv	a4,a5
     ae0:	f9c42783          	lw	a5,-100(s0)
     ae4:	00e7a023          	sw	a4,0(a5)
     ae8:	f9c42783          	lw	a5,-100(s0)
     aec:	0047a783          	lw	a5,4(a5)
     af0:	fc842703          	lw	a4,-56(s0)
     af4:	00070593          	mv	a1,a4
     af8:	00078513          	mv	a0,a5
     afc:	538160ef          	jal	17034 <__addsf3>
     b00:	00050793          	mv	a5,a0
     b04:	00078713          	mv	a4,a5
     b08:	f9c42783          	lw	a5,-100(s0)
     b0c:	00e7a223          	sw	a4,4(a5)
        C_ADD( scratch[3] , scratch[0] , scratch[2] );
     b10:	fbc42783          	lw	a5,-68(s0)
     b14:	fcc42703          	lw	a4,-52(s0)
     b18:	00070593          	mv	a1,a4
     b1c:	00078513          	mv	a0,a5
     b20:	514160ef          	jal	17034 <__addsf3>
     b24:	00050793          	mv	a5,a0
     b28:	fcf42a23          	sw	a5,-44(s0)
     b2c:	fc042783          	lw	a5,-64(s0)
     b30:	fd042703          	lw	a4,-48(s0)
     b34:	00070593          	mv	a1,a4
     b38:	00078513          	mv	a0,a5
     b3c:	4f8160ef          	jal	17034 <__addsf3>
     b40:	00050793          	mv	a5,a0
     b44:	fcf42c23          	sw	a5,-40(s0)
        C_SUB( scratch[4] , scratch[0] , scratch[2] );
     b48:	fbc42783          	lw	a5,-68(s0)
     b4c:	fcc42703          	lw	a4,-52(s0)
     b50:	00070593          	mv	a1,a4
     b54:	00078513          	mv	a0,a5
     b58:	5c1160ef          	jal	17918 <__subsf3>
     b5c:	00050793          	mv	a5,a0
     b60:	fcf42e23          	sw	a5,-36(s0)
     b64:	fc042783          	lw	a5,-64(s0)
     b68:	fd042703          	lw	a4,-48(s0)
     b6c:	00070593          	mv	a1,a4
     b70:	00078513          	mv	a0,a5
     b74:	5a5160ef          	jal	17918 <__subsf3>
     b78:	00050793          	mv	a5,a0
     b7c:	fef42023          	sw	a5,-32(s0)
        C_SUB( Fout[m2], *Fout, scratch[3] );
     b80:	f9c42783          	lw	a5,-100(s0)
     b84:	0007a683          	lw	a3,0(a5)
     b88:	fd442603          	lw	a2,-44(s0)
     b8c:	fb442783          	lw	a5,-76(s0)
     b90:	00379793          	sll	a5,a5,0x3
     b94:	f9c42703          	lw	a4,-100(s0)
     b98:	00f704b3          	add	s1,a4,a5
     b9c:	00060593          	mv	a1,a2
     ba0:	00068513          	mv	a0,a3
     ba4:	575160ef          	jal	17918 <__subsf3>
     ba8:	00050793          	mv	a5,a0
     bac:	00f4a023          	sw	a5,0(s1)
     bb0:	f9c42783          	lw	a5,-100(s0)
     bb4:	0047a683          	lw	a3,4(a5)
     bb8:	fd842603          	lw	a2,-40(s0)
     bbc:	fb442783          	lw	a5,-76(s0)
     bc0:	00379793          	sll	a5,a5,0x3
     bc4:	f9c42703          	lw	a4,-100(s0)
     bc8:	00f704b3          	add	s1,a4,a5
     bcc:	00060593          	mv	a1,a2
     bd0:	00068513          	mv	a0,a3
     bd4:	545160ef          	jal	17918 <__subsf3>
     bd8:	00050793          	mv	a5,a0
     bdc:	00f4a223          	sw	a5,4(s1)
        tw1 += fstride;
     be0:	f9842783          	lw	a5,-104(s0)
     be4:	00379793          	sll	a5,a5,0x3
     be8:	fa442703          	lw	a4,-92(s0)
     bec:	00f707b3          	add	a5,a4,a5
     bf0:	faf42223          	sw	a5,-92(s0)
        tw2 += fstride*2;
     bf4:	f9842783          	lw	a5,-104(s0)
     bf8:	00479793          	sll	a5,a5,0x4
     bfc:	fa842703          	lw	a4,-88(s0)
     c00:	00f707b3          	add	a5,a4,a5
     c04:	faf42423          	sw	a5,-88(s0)
        tw3 += fstride*3;
     c08:	f9842703          	lw	a4,-104(s0)
     c0c:	00070793          	mv	a5,a4
     c10:	00179793          	sll	a5,a5,0x1
     c14:	00e787b3          	add	a5,a5,a4
     c18:	00379793          	sll	a5,a5,0x3
     c1c:	00078713          	mv	a4,a5
     c20:	fac42783          	lw	a5,-84(s0)
     c24:	00e787b3          	add	a5,a5,a4
     c28:	faf42623          	sw	a5,-84(s0)
        C_ADDTO( *Fout , scratch[3] );
     c2c:	f9c42783          	lw	a5,-100(s0)
     c30:	0007a783          	lw	a5,0(a5)
     c34:	fd442703          	lw	a4,-44(s0)
     c38:	00070593          	mv	a1,a4
     c3c:	00078513          	mv	a0,a5
     c40:	3f4160ef          	jal	17034 <__addsf3>
     c44:	00050793          	mv	a5,a0
     c48:	00078713          	mv	a4,a5
     c4c:	f9c42783          	lw	a5,-100(s0)
     c50:	00e7a023          	sw	a4,0(a5)
     c54:	f9c42783          	lw	a5,-100(s0)
     c58:	0047a783          	lw	a5,4(a5)
     c5c:	fd842703          	lw	a4,-40(s0)
     c60:	00070593          	mv	a1,a4
     c64:	00078513          	mv	a0,a5
     c68:	3cc160ef          	jal	17034 <__addsf3>
     c6c:	00050793          	mv	a5,a0
     c70:	00078713          	mv	a4,a5
     c74:	f9c42783          	lw	a5,-100(s0)
     c78:	00e7a223          	sw	a4,4(a5)

        if(st->inverse) {
     c7c:	f9442783          	lw	a5,-108(s0)
     c80:	0047a783          	lw	a5,4(a5)
     c84:	0a078c63          	beqz	a5,d3c <kf_bfly4+0x5d4>
            Fout[m].r = scratch[5].r - scratch[4].i;
     c88:	fe442683          	lw	a3,-28(s0)
     c8c:	fe042603          	lw	a2,-32(s0)
     c90:	f9042783          	lw	a5,-112(s0)
     c94:	00379793          	sll	a5,a5,0x3
     c98:	f9c42703          	lw	a4,-100(s0)
     c9c:	00f704b3          	add	s1,a4,a5
     ca0:	00060593          	mv	a1,a2
     ca4:	00068513          	mv	a0,a3
     ca8:	471160ef          	jal	17918 <__subsf3>
     cac:	00050793          	mv	a5,a0
     cb0:	00f4a023          	sw	a5,0(s1)
            Fout[m].i = scratch[5].i + scratch[4].r;
     cb4:	fe842683          	lw	a3,-24(s0)
     cb8:	fdc42603          	lw	a2,-36(s0)
     cbc:	f9042783          	lw	a5,-112(s0)
     cc0:	00379793          	sll	a5,a5,0x3
     cc4:	f9c42703          	lw	a4,-100(s0)
     cc8:	00f704b3          	add	s1,a4,a5
     ccc:	00060593          	mv	a1,a2
     cd0:	00068513          	mv	a0,a3
     cd4:	360160ef          	jal	17034 <__addsf3>
     cd8:	00050793          	mv	a5,a0
     cdc:	00f4a223          	sw	a5,4(s1)
            Fout[m3].r = scratch[5].r + scratch[4].i;
     ce0:	fe442683          	lw	a3,-28(s0)
     ce4:	fe042603          	lw	a2,-32(s0)
     ce8:	fb842783          	lw	a5,-72(s0)
     cec:	00379793          	sll	a5,a5,0x3
     cf0:	f9c42703          	lw	a4,-100(s0)
     cf4:	00f704b3          	add	s1,a4,a5
     cf8:	00060593          	mv	a1,a2
     cfc:	00068513          	mv	a0,a3
     d00:	334160ef          	jal	17034 <__addsf3>
     d04:	00050793          	mv	a5,a0
     d08:	00f4a023          	sw	a5,0(s1)
            Fout[m3].i = scratch[5].i - scratch[4].r;
     d0c:	fe842683          	lw	a3,-24(s0)
     d10:	fdc42603          	lw	a2,-36(s0)
     d14:	fb842783          	lw	a5,-72(s0)
     d18:	00379793          	sll	a5,a5,0x3
     d1c:	f9c42703          	lw	a4,-100(s0)
     d20:	00f704b3          	add	s1,a4,a5
     d24:	00060593          	mv	a1,a2
     d28:	00068513          	mv	a0,a3
     d2c:	3ed160ef          	jal	17918 <__subsf3>
     d30:	00050793          	mv	a5,a0
     d34:	00f4a223          	sw	a5,4(s1)
     d38:	0b40006f          	j	dec <kf_bfly4+0x684>
        }else{
            Fout[m].r = scratch[5].r + scratch[4].i;
     d3c:	fe442683          	lw	a3,-28(s0)
     d40:	fe042603          	lw	a2,-32(s0)
     d44:	f9042783          	lw	a5,-112(s0)
     d48:	00379793          	sll	a5,a5,0x3
     d4c:	f9c42703          	lw	a4,-100(s0)
     d50:	00f704b3          	add	s1,a4,a5
     d54:	00060593          	mv	a1,a2
     d58:	00068513          	mv	a0,a3
     d5c:	2d8160ef          	jal	17034 <__addsf3>
     d60:	00050793          	mv	a5,a0
     d64:	00f4a023          	sw	a5,0(s1)
            Fout[m].i = scratch[5].i - scratch[4].r;
     d68:	fe842683          	lw	a3,-24(s0)
     d6c:	fdc42603          	lw	a2,-36(s0)
     d70:	f9042783          	lw	a5,-112(s0)
     d74:	00379793          	sll	a5,a5,0x3
     d78:	f9c42703          	lw	a4,-100(s0)
     d7c:	00f704b3          	add	s1,a4,a5
     d80:	00060593          	mv	a1,a2
     d84:	00068513          	mv	a0,a3
     d88:	391160ef          	jal	17918 <__subsf3>
     d8c:	00050793          	mv	a5,a0
     d90:	00f4a223          	sw	a5,4(s1)
            Fout[m3].r = scratch[5].r - scratch[4].i;
     d94:	fe442683          	lw	a3,-28(s0)
     d98:	fe042603          	lw	a2,-32(s0)
     d9c:	fb842783          	lw	a5,-72(s0)
     da0:	00379793          	sll	a5,a5,0x3
     da4:	f9c42703          	lw	a4,-100(s0)
     da8:	00f704b3          	add	s1,a4,a5
     dac:	00060593          	mv	a1,a2
     db0:	00068513          	mv	a0,a3
     db4:	365160ef          	jal	17918 <__subsf3>
     db8:	00050793          	mv	a5,a0
     dbc:	00f4a023          	sw	a5,0(s1)
            Fout[m3].i = scratch[5].i + scratch[4].r;
     dc0:	fe842683          	lw	a3,-24(s0)
     dc4:	fdc42603          	lw	a2,-36(s0)
     dc8:	fb842783          	lw	a5,-72(s0)
     dcc:	00379793          	sll	a5,a5,0x3
     dd0:	f9c42703          	lw	a4,-100(s0)
     dd4:	00f704b3          	add	s1,a4,a5
     dd8:	00060593          	mv	a1,a2
     ddc:	00068513          	mv	a0,a3
     de0:	254160ef          	jal	17034 <__addsf3>
     de4:	00050793          	mv	a5,a0
     de8:	00f4a223          	sw	a5,4(s1)
        }
        ++Fout;
     dec:	f9c42783          	lw	a5,-100(s0)
     df0:	00878793          	add	a5,a5,8
     df4:	f8f42e23          	sw	a5,-100(s0)
    }while(--k);
     df8:	fb042783          	lw	a5,-80(s0)
     dfc:	fff78793          	add	a5,a5,-1
     e00:	faf42823          	sw	a5,-80(s0)
     e04:	fb042783          	lw	a5,-80(s0)
     e08:	9c079ce3          	bnez	a5,7e0 <kf_bfly4+0x78>
}
     e0c:	00000013          	nop
     e10:	000207b7          	lui	a5,0x20
     e14:	fec42703          	lw	a4,-20(s0)
     e18:	c287a783          	lw	a5,-984(a5) # 1fc28 <__stack_chk_guard>
     e1c:	00f747b3          	xor	a5,a4,a5
     e20:	00000713          	li	a4,0
     e24:	00078463          	beqz	a5,e2c <kf_bfly4+0x6c4>
     e28:	488040ef          	jal	52b0 <__stack_chk_fail>
     e2c:	06c12083          	lw	ra,108(sp)
     e30:	06812403          	lw	s0,104(sp)
     e34:	06412483          	lw	s1,100(sp)
     e38:	07010113          	add	sp,sp,112
     e3c:	00008067          	ret

00000e40 <kf_bfly3>:
         kiss_fft_cpx * Fout,
         const size_t fstride,
         const kiss_fft_cfg st,
         size_t m
         )
{
     e40:	f9010113          	add	sp,sp,-112
     e44:	06112623          	sw	ra,108(sp)
     e48:	06812423          	sw	s0,104(sp)
     e4c:	06912223          	sw	s1,100(sp)
     e50:	07212023          	sw	s2,96(sp)
     e54:	07010413          	add	s0,sp,112
     e58:	f8a42e23          	sw	a0,-100(s0)
     e5c:	f8b42c23          	sw	a1,-104(s0)
     e60:	f8c42a23          	sw	a2,-108(s0)
     e64:	f8d42823          	sw	a3,-112(s0)
     e68:	000207b7          	lui	a5,0x20
     e6c:	c287a703          	lw	a4,-984(a5) # 1fc28 <__stack_chk_guard>
     e70:	fee42623          	sw	a4,-20(s0)
     e74:	00000713          	li	a4,0
     size_t k=m;
     e78:	f9042783          	lw	a5,-112(s0)
     e7c:	faf42623          	sw	a5,-84(s0)
     const size_t m2 = 2*m;
     e80:	f9042783          	lw	a5,-112(s0)
     e84:	00179793          	sll	a5,a5,0x1
     e88:	faf42c23          	sw	a5,-72(s0)
     kiss_fft_cpx *tw1,*tw2;
     kiss_fft_cpx scratch[5];
     kiss_fft_cpx epi3;
     epi3 = st->twiddles[fstride*m];
     e8c:	f9042583          	lw	a1,-112(s0)
     e90:	f9842503          	lw	a0,-104(s0)
     e94:	4c4170ef          	jal	18358 <__mulsi3>
     e98:	00050793          	mv	a5,a0
     e9c:	f9442703          	lw	a4,-108(s0)
     ea0:	02078793          	add	a5,a5,32
     ea4:	00379793          	sll	a5,a5,0x3
     ea8:	00f707b3          	add	a5,a4,a5
     eac:	0087a703          	lw	a4,8(a5)
     eb0:	fae42e23          	sw	a4,-68(s0)
     eb4:	00c7a783          	lw	a5,12(a5)
     eb8:	fcf42023          	sw	a5,-64(s0)

     tw1=tw2=st->twiddles;
     ebc:	f9442783          	lw	a5,-108(s0)
     ec0:	10878793          	add	a5,a5,264
     ec4:	faf42a23          	sw	a5,-76(s0)
     ec8:	fb442783          	lw	a5,-76(s0)
     ecc:	faf42823          	sw	a5,-80(s0)

     do{
         C_FIXDIV(*Fout,3); C_FIXDIV(Fout[m],3); C_FIXDIV(Fout[m2],3);

         C_MUL(scratch[1],Fout[m] , *tw1);
     ed0:	f9042783          	lw	a5,-112(s0)
     ed4:	00379793          	sll	a5,a5,0x3
     ed8:	f9c42703          	lw	a4,-100(s0)
     edc:	00f707b3          	add	a5,a4,a5
     ee0:	0007a703          	lw	a4,0(a5)
     ee4:	fb042783          	lw	a5,-80(s0)
     ee8:	0007a783          	lw	a5,0(a5)
     eec:	00078593          	mv	a1,a5
     ef0:	00070513          	mv	a0,a4
     ef4:	618160ef          	jal	1750c <__mulsf3>
     ef8:	00050793          	mv	a5,a0
     efc:	00078493          	mv	s1,a5
     f00:	f9042783          	lw	a5,-112(s0)
     f04:	00379793          	sll	a5,a5,0x3
     f08:	f9c42703          	lw	a4,-100(s0)
     f0c:	00f707b3          	add	a5,a4,a5
     f10:	0047a703          	lw	a4,4(a5)
     f14:	fb042783          	lw	a5,-80(s0)
     f18:	0047a783          	lw	a5,4(a5)
     f1c:	00078593          	mv	a1,a5
     f20:	00070513          	mv	a0,a4
     f24:	5e8160ef          	jal	1750c <__mulsf3>
     f28:	00050793          	mv	a5,a0
     f2c:	00078593          	mv	a1,a5
     f30:	00048513          	mv	a0,s1
     f34:	1e5160ef          	jal	17918 <__subsf3>
     f38:	00050793          	mv	a5,a0
     f3c:	fcf42623          	sw	a5,-52(s0)
     f40:	f9042783          	lw	a5,-112(s0)
     f44:	00379793          	sll	a5,a5,0x3
     f48:	f9c42703          	lw	a4,-100(s0)
     f4c:	00f707b3          	add	a5,a4,a5
     f50:	0007a703          	lw	a4,0(a5)
     f54:	fb042783          	lw	a5,-80(s0)
     f58:	0047a783          	lw	a5,4(a5)
     f5c:	00078593          	mv	a1,a5
     f60:	00070513          	mv	a0,a4
     f64:	5a8160ef          	jal	1750c <__mulsf3>
     f68:	00050793          	mv	a5,a0
     f6c:	00078493          	mv	s1,a5
     f70:	f9042783          	lw	a5,-112(s0)
     f74:	00379793          	sll	a5,a5,0x3
     f78:	f9c42703          	lw	a4,-100(s0)
     f7c:	00f707b3          	add	a5,a4,a5
     f80:	0047a703          	lw	a4,4(a5)
     f84:	fb042783          	lw	a5,-80(s0)
     f88:	0007a783          	lw	a5,0(a5)
     f8c:	00078593          	mv	a1,a5
     f90:	00070513          	mv	a0,a4
     f94:	578160ef          	jal	1750c <__mulsf3>
     f98:	00050793          	mv	a5,a0
     f9c:	00078593          	mv	a1,a5
     fa0:	00048513          	mv	a0,s1
     fa4:	090160ef          	jal	17034 <__addsf3>
     fa8:	00050793          	mv	a5,a0
     fac:	fcf42823          	sw	a5,-48(s0)
         C_MUL(scratch[2],Fout[m2] , *tw2);
     fb0:	fb842783          	lw	a5,-72(s0)
     fb4:	00379793          	sll	a5,a5,0x3
     fb8:	f9c42703          	lw	a4,-100(s0)
     fbc:	00f707b3          	add	a5,a4,a5
     fc0:	0007a703          	lw	a4,0(a5)
     fc4:	fb442783          	lw	a5,-76(s0)
     fc8:	0007a783          	lw	a5,0(a5)
     fcc:	00078593          	mv	a1,a5
     fd0:	00070513          	mv	a0,a4
     fd4:	538160ef          	jal	1750c <__mulsf3>
     fd8:	00050793          	mv	a5,a0
     fdc:	00078493          	mv	s1,a5
     fe0:	fb842783          	lw	a5,-72(s0)
     fe4:	00379793          	sll	a5,a5,0x3
     fe8:	f9c42703          	lw	a4,-100(s0)
     fec:	00f707b3          	add	a5,a4,a5
     ff0:	0047a703          	lw	a4,4(a5)
     ff4:	fb442783          	lw	a5,-76(s0)
     ff8:	0047a783          	lw	a5,4(a5)
     ffc:	00078593          	mv	a1,a5
    1000:	00070513          	mv	a0,a4
    1004:	508160ef          	jal	1750c <__mulsf3>
    1008:	00050793          	mv	a5,a0
    100c:	00078593          	mv	a1,a5
    1010:	00048513          	mv	a0,s1
    1014:	105160ef          	jal	17918 <__subsf3>
    1018:	00050793          	mv	a5,a0
    101c:	fcf42a23          	sw	a5,-44(s0)
    1020:	fb842783          	lw	a5,-72(s0)
    1024:	00379793          	sll	a5,a5,0x3
    1028:	f9c42703          	lw	a4,-100(s0)
    102c:	00f707b3          	add	a5,a4,a5
    1030:	0007a703          	lw	a4,0(a5)
    1034:	fb442783          	lw	a5,-76(s0)
    1038:	0047a783          	lw	a5,4(a5)
    103c:	00078593          	mv	a1,a5
    1040:	00070513          	mv	a0,a4
    1044:	4c8160ef          	jal	1750c <__mulsf3>
    1048:	00050793          	mv	a5,a0
    104c:	00078493          	mv	s1,a5
    1050:	fb842783          	lw	a5,-72(s0)
    1054:	00379793          	sll	a5,a5,0x3
    1058:	f9c42703          	lw	a4,-100(s0)
    105c:	00f707b3          	add	a5,a4,a5
    1060:	0047a703          	lw	a4,4(a5)
    1064:	fb442783          	lw	a5,-76(s0)
    1068:	0007a783          	lw	a5,0(a5)
    106c:	00078593          	mv	a1,a5
    1070:	00070513          	mv	a0,a4
    1074:	498160ef          	jal	1750c <__mulsf3>
    1078:	00050793          	mv	a5,a0
    107c:	00078593          	mv	a1,a5
    1080:	00048513          	mv	a0,s1
    1084:	7b1150ef          	jal	17034 <__addsf3>
    1088:	00050793          	mv	a5,a0
    108c:	fcf42c23          	sw	a5,-40(s0)

         C_ADD(scratch[3],scratch[1],scratch[2]);
    1090:	fcc42783          	lw	a5,-52(s0)
    1094:	fd442703          	lw	a4,-44(s0)
    1098:	00070593          	mv	a1,a4
    109c:	00078513          	mv	a0,a5
    10a0:	795150ef          	jal	17034 <__addsf3>
    10a4:	00050793          	mv	a5,a0
    10a8:	fcf42e23          	sw	a5,-36(s0)
    10ac:	fd042783          	lw	a5,-48(s0)
    10b0:	fd842703          	lw	a4,-40(s0)
    10b4:	00070593          	mv	a1,a4
    10b8:	00078513          	mv	a0,a5
    10bc:	779150ef          	jal	17034 <__addsf3>
    10c0:	00050793          	mv	a5,a0
    10c4:	fef42023          	sw	a5,-32(s0)
         C_SUB(scratch[0],scratch[1],scratch[2]);
    10c8:	fcc42783          	lw	a5,-52(s0)
    10cc:	fd442703          	lw	a4,-44(s0)
    10d0:	00070593          	mv	a1,a4
    10d4:	00078513          	mv	a0,a5
    10d8:	041160ef          	jal	17918 <__subsf3>
    10dc:	00050793          	mv	a5,a0
    10e0:	fcf42223          	sw	a5,-60(s0)
    10e4:	fd042783          	lw	a5,-48(s0)
    10e8:	fd842703          	lw	a4,-40(s0)
    10ec:	00070593          	mv	a1,a4
    10f0:	00078513          	mv	a0,a5
    10f4:	025160ef          	jal	17918 <__subsf3>
    10f8:	00050793          	mv	a5,a0
    10fc:	fcf42423          	sw	a5,-56(s0)
         tw1 += fstride;
    1100:	f9842783          	lw	a5,-104(s0)
    1104:	00379793          	sll	a5,a5,0x3
    1108:	fb042703          	lw	a4,-80(s0)
    110c:	00f707b3          	add	a5,a4,a5
    1110:	faf42823          	sw	a5,-80(s0)
         tw2 += fstride*2;
    1114:	f9842783          	lw	a5,-104(s0)
    1118:	00479793          	sll	a5,a5,0x4
    111c:	fb442703          	lw	a4,-76(s0)
    1120:	00f707b3          	add	a5,a4,a5
    1124:	faf42a23          	sw	a5,-76(s0)

         Fout[m].r = Fout->r - HALF_OF(scratch[3].r);
    1128:	f9c42783          	lw	a5,-100(s0)
    112c:	0007a903          	lw	s2,0(a5)
    1130:	fdc42703          	lw	a4,-36(s0)
    1134:	0001c7b7          	lui	a5,0x1c
    1138:	dc87a583          	lw	a1,-568(a5) # 1bdc8 <__flash_rodata_start+0x248>
    113c:	00070513          	mv	a0,a4
    1140:	3cc160ef          	jal	1750c <__mulsf3>
    1144:	00050793          	mv	a5,a0
    1148:	00078693          	mv	a3,a5
    114c:	f9042783          	lw	a5,-112(s0)
    1150:	00379793          	sll	a5,a5,0x3
    1154:	f9c42703          	lw	a4,-100(s0)
    1158:	00f704b3          	add	s1,a4,a5
    115c:	00068593          	mv	a1,a3
    1160:	00090513          	mv	a0,s2
    1164:	7b4160ef          	jal	17918 <__subsf3>
    1168:	00050793          	mv	a5,a0
    116c:	00f4a023          	sw	a5,0(s1)
         Fout[m].i = Fout->i - HALF_OF(scratch[3].i);
    1170:	f9c42783          	lw	a5,-100(s0)
    1174:	0047a903          	lw	s2,4(a5)
    1178:	fe042703          	lw	a4,-32(s0)
    117c:	0001c7b7          	lui	a5,0x1c
    1180:	dc87a583          	lw	a1,-568(a5) # 1bdc8 <__flash_rodata_start+0x248>
    1184:	00070513          	mv	a0,a4
    1188:	384160ef          	jal	1750c <__mulsf3>
    118c:	00050793          	mv	a5,a0
    1190:	00078693          	mv	a3,a5
    1194:	f9042783          	lw	a5,-112(s0)
    1198:	00379793          	sll	a5,a5,0x3
    119c:	f9c42703          	lw	a4,-100(s0)
    11a0:	00f704b3          	add	s1,a4,a5
    11a4:	00068593          	mv	a1,a3
    11a8:	00090513          	mv	a0,s2
    11ac:	76c160ef          	jal	17918 <__subsf3>
    11b0:	00050793          	mv	a5,a0
    11b4:	00f4a223          	sw	a5,4(s1)

         C_MULBYSCALAR( scratch[0] , epi3.i );
    11b8:	fc442783          	lw	a5,-60(s0)
    11bc:	fc042703          	lw	a4,-64(s0)
    11c0:	00070593          	mv	a1,a4
    11c4:	00078513          	mv	a0,a5
    11c8:	344160ef          	jal	1750c <__mulsf3>
    11cc:	00050793          	mv	a5,a0
    11d0:	fcf42223          	sw	a5,-60(s0)
    11d4:	fc842783          	lw	a5,-56(s0)
    11d8:	fc042703          	lw	a4,-64(s0)
    11dc:	00070593          	mv	a1,a4
    11e0:	00078513          	mv	a0,a5
    11e4:	328160ef          	jal	1750c <__mulsf3>
    11e8:	00050793          	mv	a5,a0
    11ec:	fcf42423          	sw	a5,-56(s0)

         C_ADDTO(*Fout,scratch[3]);
    11f0:	f9c42783          	lw	a5,-100(s0)
    11f4:	0007a783          	lw	a5,0(a5)
    11f8:	fdc42703          	lw	a4,-36(s0)
    11fc:	00070593          	mv	a1,a4
    1200:	00078513          	mv	a0,a5
    1204:	631150ef          	jal	17034 <__addsf3>
    1208:	00050793          	mv	a5,a0
    120c:	00078713          	mv	a4,a5
    1210:	f9c42783          	lw	a5,-100(s0)
    1214:	00e7a023          	sw	a4,0(a5)
    1218:	f9c42783          	lw	a5,-100(s0)
    121c:	0047a783          	lw	a5,4(a5)
    1220:	fe042703          	lw	a4,-32(s0)
    1224:	00070593          	mv	a1,a4
    1228:	00078513          	mv	a0,a5
    122c:	609150ef          	jal	17034 <__addsf3>
    1230:	00050793          	mv	a5,a0
    1234:	00078713          	mv	a4,a5
    1238:	f9c42783          	lw	a5,-100(s0)
    123c:	00e7a223          	sw	a4,4(a5)

         Fout[m2].r = Fout[m].r + scratch[0].i;
    1240:	f9042783          	lw	a5,-112(s0)
    1244:	00379793          	sll	a5,a5,0x3
    1248:	f9c42703          	lw	a4,-100(s0)
    124c:	00f707b3          	add	a5,a4,a5
    1250:	0007a683          	lw	a3,0(a5)
    1254:	fc842603          	lw	a2,-56(s0)
    1258:	fb842783          	lw	a5,-72(s0)
    125c:	00379793          	sll	a5,a5,0x3
    1260:	f9c42703          	lw	a4,-100(s0)
    1264:	00f704b3          	add	s1,a4,a5
    1268:	00060593          	mv	a1,a2
    126c:	00068513          	mv	a0,a3
    1270:	5c5150ef          	jal	17034 <__addsf3>
    1274:	00050793          	mv	a5,a0
    1278:	00f4a023          	sw	a5,0(s1)
         Fout[m2].i = Fout[m].i - scratch[0].r;
    127c:	f9042783          	lw	a5,-112(s0)
    1280:	00379793          	sll	a5,a5,0x3
    1284:	f9c42703          	lw	a4,-100(s0)
    1288:	00f707b3          	add	a5,a4,a5
    128c:	0047a683          	lw	a3,4(a5)
    1290:	fc442603          	lw	a2,-60(s0)
    1294:	fb842783          	lw	a5,-72(s0)
    1298:	00379793          	sll	a5,a5,0x3
    129c:	f9c42703          	lw	a4,-100(s0)
    12a0:	00f704b3          	add	s1,a4,a5
    12a4:	00060593          	mv	a1,a2
    12a8:	00068513          	mv	a0,a3
    12ac:	66c160ef          	jal	17918 <__subsf3>
    12b0:	00050793          	mv	a5,a0
    12b4:	00f4a223          	sw	a5,4(s1)

         Fout[m].r -= scratch[0].i;
    12b8:	f9042783          	lw	a5,-112(s0)
    12bc:	00379793          	sll	a5,a5,0x3
    12c0:	f9c42703          	lw	a4,-100(s0)
    12c4:	00f707b3          	add	a5,a4,a5
    12c8:	0007a683          	lw	a3,0(a5)
    12cc:	fc842603          	lw	a2,-56(s0)
    12d0:	f9042783          	lw	a5,-112(s0)
    12d4:	00379793          	sll	a5,a5,0x3
    12d8:	f9c42703          	lw	a4,-100(s0)
    12dc:	00f704b3          	add	s1,a4,a5
    12e0:	00060593          	mv	a1,a2
    12e4:	00068513          	mv	a0,a3
    12e8:	630160ef          	jal	17918 <__subsf3>
    12ec:	00050793          	mv	a5,a0
    12f0:	00f4a023          	sw	a5,0(s1)
         Fout[m].i += scratch[0].r;
    12f4:	f9042783          	lw	a5,-112(s0)
    12f8:	00379793          	sll	a5,a5,0x3
    12fc:	f9c42703          	lw	a4,-100(s0)
    1300:	00f707b3          	add	a5,a4,a5
    1304:	0047a683          	lw	a3,4(a5)
    1308:	fc442603          	lw	a2,-60(s0)
    130c:	f9042783          	lw	a5,-112(s0)
    1310:	00379793          	sll	a5,a5,0x3
    1314:	f9c42703          	lw	a4,-100(s0)
    1318:	00f704b3          	add	s1,a4,a5
    131c:	00060593          	mv	a1,a2
    1320:	00068513          	mv	a0,a3
    1324:	511150ef          	jal	17034 <__addsf3>
    1328:	00050793          	mv	a5,a0
    132c:	00f4a223          	sw	a5,4(s1)

         ++Fout;
    1330:	f9c42783          	lw	a5,-100(s0)
    1334:	00878793          	add	a5,a5,8
    1338:	f8f42e23          	sw	a5,-100(s0)
     }while(--k);
    133c:	fac42783          	lw	a5,-84(s0)
    1340:	fff78793          	add	a5,a5,-1
    1344:	faf42623          	sw	a5,-84(s0)
    1348:	fac42783          	lw	a5,-84(s0)
    134c:	b80792e3          	bnez	a5,ed0 <kf_bfly3+0x90>
}
    1350:	00000013          	nop
    1354:	000207b7          	lui	a5,0x20
    1358:	fec42703          	lw	a4,-20(s0)
    135c:	c287a783          	lw	a5,-984(a5) # 1fc28 <__stack_chk_guard>
    1360:	00f747b3          	xor	a5,a4,a5
    1364:	00000713          	li	a4,0
    1368:	00078463          	beqz	a5,1370 <kf_bfly3+0x530>
    136c:	745030ef          	jal	52b0 <__stack_chk_fail>
    1370:	06c12083          	lw	ra,108(sp)
    1374:	06812403          	lw	s0,104(sp)
    1378:	06412483          	lw	s1,100(sp)
    137c:	06012903          	lw	s2,96(sp)
    1380:	07010113          	add	sp,sp,112
    1384:	00008067          	ret

00001388 <kf_bfly5>:
        kiss_fft_cpx * Fout,
        const size_t fstride,
        const kiss_fft_cfg st,
        int m
        )
{
    1388:	f4010113          	add	sp,sp,-192
    138c:	0a112e23          	sw	ra,188(sp)
    1390:	0a812c23          	sw	s0,184(sp)
    1394:	0a912a23          	sw	s1,180(sp)
    1398:	0b212823          	sw	s2,176(sp)
    139c:	0c010413          	add	s0,sp,192
    13a0:	f4a42623          	sw	a0,-180(s0)
    13a4:	f4b42423          	sw	a1,-184(s0)
    13a8:	f4c42223          	sw	a2,-188(s0)
    13ac:	f4d42023          	sw	a3,-192(s0)
    13b0:	000207b7          	lui	a5,0x20
    13b4:	c287a703          	lw	a4,-984(a5) # 1fc28 <__stack_chk_guard>
    13b8:	fee42623          	sw	a4,-20(s0)
    13bc:	00000713          	li	a4,0
    kiss_fft_cpx *Fout0,*Fout1,*Fout2,*Fout3,*Fout4;
    int u;
    kiss_fft_cpx scratch[13];
    kiss_fft_cpx * twiddles = st->twiddles;
    13c0:	f4442783          	lw	a5,-188(s0)
    13c4:	10878793          	add	a5,a5,264
    13c8:	f6f42623          	sw	a5,-148(s0)
    kiss_fft_cpx *tw;
    kiss_fft_cpx ya,yb;
    ya = twiddles[fstride*m];
    13cc:	f4042783          	lw	a5,-192(s0)
    13d0:	f4842583          	lw	a1,-184(s0)
    13d4:	00078513          	mv	a0,a5
    13d8:	781160ef          	jal	18358 <__mulsi3>
    13dc:	00050793          	mv	a5,a0
    13e0:	00379793          	sll	a5,a5,0x3
    13e4:	f6c42703          	lw	a4,-148(s0)
    13e8:	00f707b3          	add	a5,a4,a5
    13ec:	0007a703          	lw	a4,0(a5)
    13f0:	f6e42a23          	sw	a4,-140(s0)
    13f4:	0047a783          	lw	a5,4(a5)
    13f8:	f6f42c23          	sw	a5,-136(s0)
    yb = twiddles[fstride*2*m];
    13fc:	f4042783          	lw	a5,-192(s0)
    1400:	f4842583          	lw	a1,-184(s0)
    1404:	00078513          	mv	a0,a5
    1408:	751160ef          	jal	18358 <__mulsi3>
    140c:	00050793          	mv	a5,a0
    1410:	00479793          	sll	a5,a5,0x4
    1414:	f6c42703          	lw	a4,-148(s0)
    1418:	00f707b3          	add	a5,a4,a5
    141c:	0007a703          	lw	a4,0(a5)
    1420:	f6e42e23          	sw	a4,-132(s0)
    1424:	0047a783          	lw	a5,4(a5)
    1428:	f8f42023          	sw	a5,-128(s0)

    Fout0=Fout;
    142c:	f4c42783          	lw	a5,-180(s0)
    1430:	f4f42a23          	sw	a5,-172(s0)
    Fout1=Fout0+m;
    1434:	f4042783          	lw	a5,-192(s0)
    1438:	00379793          	sll	a5,a5,0x3
    143c:	f5442703          	lw	a4,-172(s0)
    1440:	00f707b3          	add	a5,a4,a5
    1444:	f4f42c23          	sw	a5,-168(s0)
    Fout2=Fout0+2*m;
    1448:	f4042783          	lw	a5,-192(s0)
    144c:	00479793          	sll	a5,a5,0x4
    1450:	f5442703          	lw	a4,-172(s0)
    1454:	00f707b3          	add	a5,a4,a5
    1458:	f4f42e23          	sw	a5,-164(s0)
    Fout3=Fout0+3*m;
    145c:	f4042703          	lw	a4,-192(s0)
    1460:	00070793          	mv	a5,a4
    1464:	00179793          	sll	a5,a5,0x1
    1468:	00e787b3          	add	a5,a5,a4
    146c:	00379793          	sll	a5,a5,0x3
    1470:	00078713          	mv	a4,a5
    1474:	f5442783          	lw	a5,-172(s0)
    1478:	00e787b3          	add	a5,a5,a4
    147c:	f6f42023          	sw	a5,-160(s0)
    Fout4=Fout0+4*m;
    1480:	f4042783          	lw	a5,-192(s0)
    1484:	00579793          	sll	a5,a5,0x5
    1488:	f5442703          	lw	a4,-172(s0)
    148c:	00f707b3          	add	a5,a4,a5
    1490:	f6f42223          	sw	a5,-156(s0)

    tw=st->twiddles;
    1494:	f4442783          	lw	a5,-188(s0)
    1498:	10878793          	add	a5,a5,264
    149c:	f6f42823          	sw	a5,-144(s0)
    for ( u=0; u<m; ++u ) {
    14a0:	f6042423          	sw	zero,-152(s0)
    14a4:	2410006f          	j	1ee4 <kf_bfly5+0xb5c>
        C_FIXDIV( *Fout0,5); C_FIXDIV( *Fout1,5); C_FIXDIV( *Fout2,5); C_FIXDIV( *Fout3,5); C_FIXDIV( *Fout4,5);
        scratch[0] = *Fout0;
    14a8:	f5442783          	lw	a5,-172(s0)
    14ac:	0007a703          	lw	a4,0(a5)
    14b0:	f8e42223          	sw	a4,-124(s0)
    14b4:	0047a783          	lw	a5,4(a5)
    14b8:	f8f42423          	sw	a5,-120(s0)

        C_MUL(scratch[1] ,*Fout1, tw[u*fstride]);
    14bc:	f5842783          	lw	a5,-168(s0)
    14c0:	0007a483          	lw	s1,0(a5)
    14c4:	f6842783          	lw	a5,-152(s0)
    14c8:	f4842583          	lw	a1,-184(s0)
    14cc:	00078513          	mv	a0,a5
    14d0:	689160ef          	jal	18358 <__mulsi3>
    14d4:	00050793          	mv	a5,a0
    14d8:	00379793          	sll	a5,a5,0x3
    14dc:	f7042703          	lw	a4,-144(s0)
    14e0:	00f707b3          	add	a5,a4,a5
    14e4:	0007a783          	lw	a5,0(a5)
    14e8:	00078593          	mv	a1,a5
    14ec:	00048513          	mv	a0,s1
    14f0:	01c160ef          	jal	1750c <__mulsf3>
    14f4:	00050793          	mv	a5,a0
    14f8:	00078913          	mv	s2,a5
    14fc:	f5842783          	lw	a5,-168(s0)
    1500:	0047a483          	lw	s1,4(a5)
    1504:	f6842783          	lw	a5,-152(s0)
    1508:	f4842583          	lw	a1,-184(s0)
    150c:	00078513          	mv	a0,a5
    1510:	649160ef          	jal	18358 <__mulsi3>
    1514:	00050793          	mv	a5,a0
    1518:	00379793          	sll	a5,a5,0x3
    151c:	f7042703          	lw	a4,-144(s0)
    1520:	00f707b3          	add	a5,a4,a5
    1524:	0047a783          	lw	a5,4(a5)
    1528:	00078593          	mv	a1,a5
    152c:	00048513          	mv	a0,s1
    1530:	7dd150ef          	jal	1750c <__mulsf3>
    1534:	00050793          	mv	a5,a0
    1538:	00078593          	mv	a1,a5
    153c:	00090513          	mv	a0,s2
    1540:	3d8160ef          	jal	17918 <__subsf3>
    1544:	00050793          	mv	a5,a0
    1548:	f8f42623          	sw	a5,-116(s0)
    154c:	f5842783          	lw	a5,-168(s0)
    1550:	0007a483          	lw	s1,0(a5)
    1554:	f6842783          	lw	a5,-152(s0)
    1558:	f4842583          	lw	a1,-184(s0)
    155c:	00078513          	mv	a0,a5
    1560:	5f9160ef          	jal	18358 <__mulsi3>
    1564:	00050793          	mv	a5,a0
    1568:	00379793          	sll	a5,a5,0x3
    156c:	f7042703          	lw	a4,-144(s0)
    1570:	00f707b3          	add	a5,a4,a5
    1574:	0047a783          	lw	a5,4(a5)
    1578:	00078593          	mv	a1,a5
    157c:	00048513          	mv	a0,s1
    1580:	78d150ef          	jal	1750c <__mulsf3>
    1584:	00050793          	mv	a5,a0
    1588:	00078913          	mv	s2,a5
    158c:	f5842783          	lw	a5,-168(s0)
    1590:	0047a483          	lw	s1,4(a5)
    1594:	f6842783          	lw	a5,-152(s0)
    1598:	f4842583          	lw	a1,-184(s0)
    159c:	00078513          	mv	a0,a5
    15a0:	5b9160ef          	jal	18358 <__mulsi3>
    15a4:	00050793          	mv	a5,a0
    15a8:	00379793          	sll	a5,a5,0x3
    15ac:	f7042703          	lw	a4,-144(s0)
    15b0:	00f707b3          	add	a5,a4,a5
    15b4:	0007a783          	lw	a5,0(a5)
    15b8:	00078593          	mv	a1,a5
    15bc:	00048513          	mv	a0,s1
    15c0:	74d150ef          	jal	1750c <__mulsf3>
    15c4:	00050793          	mv	a5,a0
    15c8:	00078593          	mv	a1,a5
    15cc:	00090513          	mv	a0,s2
    15d0:	265150ef          	jal	17034 <__addsf3>
    15d4:	00050793          	mv	a5,a0
    15d8:	f8f42823          	sw	a5,-112(s0)
        C_MUL(scratch[2] ,*Fout2, tw[2*u*fstride]);
    15dc:	f5c42783          	lw	a5,-164(s0)
    15e0:	0007a483          	lw	s1,0(a5)
    15e4:	f6842783          	lw	a5,-152(s0)
    15e8:	f4842583          	lw	a1,-184(s0)
    15ec:	00078513          	mv	a0,a5
    15f0:	569160ef          	jal	18358 <__mulsi3>
    15f4:	00050793          	mv	a5,a0
    15f8:	00479793          	sll	a5,a5,0x4
    15fc:	f7042703          	lw	a4,-144(s0)
    1600:	00f707b3          	add	a5,a4,a5
    1604:	0007a783          	lw	a5,0(a5)
    1608:	00078593          	mv	a1,a5
    160c:	00048513          	mv	a0,s1
    1610:	6fd150ef          	jal	1750c <__mulsf3>
    1614:	00050793          	mv	a5,a0
    1618:	00078913          	mv	s2,a5
    161c:	f5c42783          	lw	a5,-164(s0)
    1620:	0047a483          	lw	s1,4(a5)
    1624:	f6842783          	lw	a5,-152(s0)
    1628:	f4842583          	lw	a1,-184(s0)
    162c:	00078513          	mv	a0,a5
    1630:	529160ef          	jal	18358 <__mulsi3>
    1634:	00050793          	mv	a5,a0
    1638:	00479793          	sll	a5,a5,0x4
    163c:	f7042703          	lw	a4,-144(s0)
    1640:	00f707b3          	add	a5,a4,a5
    1644:	0047a783          	lw	a5,4(a5)
    1648:	00078593          	mv	a1,a5
    164c:	00048513          	mv	a0,s1
    1650:	6bd150ef          	jal	1750c <__mulsf3>
    1654:	00050793          	mv	a5,a0
    1658:	00078593          	mv	a1,a5
    165c:	00090513          	mv	a0,s2
    1660:	2b8160ef          	jal	17918 <__subsf3>
    1664:	00050793          	mv	a5,a0
    1668:	f8f42a23          	sw	a5,-108(s0)
    166c:	f5c42783          	lw	a5,-164(s0)
    1670:	0007a483          	lw	s1,0(a5)
    1674:	f6842783          	lw	a5,-152(s0)
    1678:	f4842583          	lw	a1,-184(s0)
    167c:	00078513          	mv	a0,a5
    1680:	4d9160ef          	jal	18358 <__mulsi3>
    1684:	00050793          	mv	a5,a0
    1688:	00479793          	sll	a5,a5,0x4
    168c:	f7042703          	lw	a4,-144(s0)
    1690:	00f707b3          	add	a5,a4,a5
    1694:	0047a783          	lw	a5,4(a5)
    1698:	00078593          	mv	a1,a5
    169c:	00048513          	mv	a0,s1
    16a0:	66d150ef          	jal	1750c <__mulsf3>
    16a4:	00050793          	mv	a5,a0
    16a8:	00078913          	mv	s2,a5
    16ac:	f5c42783          	lw	a5,-164(s0)
    16b0:	0047a483          	lw	s1,4(a5)
    16b4:	f6842783          	lw	a5,-152(s0)
    16b8:	f4842583          	lw	a1,-184(s0)
    16bc:	00078513          	mv	a0,a5
    16c0:	499160ef          	jal	18358 <__mulsi3>
    16c4:	00050793          	mv	a5,a0
    16c8:	00479793          	sll	a5,a5,0x4
    16cc:	f7042703          	lw	a4,-144(s0)
    16d0:	00f707b3          	add	a5,a4,a5
    16d4:	0007a783          	lw	a5,0(a5)
    16d8:	00078593          	mv	a1,a5
    16dc:	00048513          	mv	a0,s1
    16e0:	62d150ef          	jal	1750c <__mulsf3>
    16e4:	00050793          	mv	a5,a0
    16e8:	00078593          	mv	a1,a5
    16ec:	00090513          	mv	a0,s2
    16f0:	145150ef          	jal	17034 <__addsf3>
    16f4:	00050793          	mv	a5,a0
    16f8:	f8f42c23          	sw	a5,-104(s0)
        C_MUL(scratch[3] ,*Fout3, tw[3*u*fstride]);
    16fc:	f6042783          	lw	a5,-160(s0)
    1700:	0007a483          	lw	s1,0(a5)
    1704:	f6842783          	lw	a5,-152(s0)
    1708:	f4842583          	lw	a1,-184(s0)
    170c:	00078513          	mv	a0,a5
    1710:	449160ef          	jal	18358 <__mulsi3>
    1714:	00050793          	mv	a5,a0
    1718:	00078713          	mv	a4,a5
    171c:	00070793          	mv	a5,a4
    1720:	00179793          	sll	a5,a5,0x1
    1724:	00e787b3          	add	a5,a5,a4
    1728:	00379793          	sll	a5,a5,0x3
    172c:	00078713          	mv	a4,a5
    1730:	f7042783          	lw	a5,-144(s0)
    1734:	00e787b3          	add	a5,a5,a4
    1738:	0007a783          	lw	a5,0(a5)
    173c:	00078593          	mv	a1,a5
    1740:	00048513          	mv	a0,s1
    1744:	5c9150ef          	jal	1750c <__mulsf3>
    1748:	00050793          	mv	a5,a0
    174c:	00078913          	mv	s2,a5
    1750:	f6042783          	lw	a5,-160(s0)
    1754:	0047a483          	lw	s1,4(a5)
    1758:	f6842783          	lw	a5,-152(s0)
    175c:	f4842583          	lw	a1,-184(s0)
    1760:	00078513          	mv	a0,a5
    1764:	3f5160ef          	jal	18358 <__mulsi3>
    1768:	00050793          	mv	a5,a0
    176c:	00078713          	mv	a4,a5
    1770:	00070793          	mv	a5,a4
    1774:	00179793          	sll	a5,a5,0x1
    1778:	00e787b3          	add	a5,a5,a4
    177c:	00379793          	sll	a5,a5,0x3
    1780:	00078713          	mv	a4,a5
    1784:	f7042783          	lw	a5,-144(s0)
    1788:	00e787b3          	add	a5,a5,a4
    178c:	0047a783          	lw	a5,4(a5)
    1790:	00078593          	mv	a1,a5
    1794:	00048513          	mv	a0,s1
    1798:	575150ef          	jal	1750c <__mulsf3>
    179c:	00050793          	mv	a5,a0
    17a0:	00078593          	mv	a1,a5
    17a4:	00090513          	mv	a0,s2
    17a8:	170160ef          	jal	17918 <__subsf3>
    17ac:	00050793          	mv	a5,a0
    17b0:	f8f42e23          	sw	a5,-100(s0)
    17b4:	f6042783          	lw	a5,-160(s0)
    17b8:	0007a483          	lw	s1,0(a5)
    17bc:	f6842783          	lw	a5,-152(s0)
    17c0:	f4842583          	lw	a1,-184(s0)
    17c4:	00078513          	mv	a0,a5
    17c8:	391160ef          	jal	18358 <__mulsi3>
    17cc:	00050793          	mv	a5,a0
    17d0:	00078713          	mv	a4,a5
    17d4:	00070793          	mv	a5,a4
    17d8:	00179793          	sll	a5,a5,0x1
    17dc:	00e787b3          	add	a5,a5,a4
    17e0:	00379793          	sll	a5,a5,0x3
    17e4:	00078713          	mv	a4,a5
    17e8:	f7042783          	lw	a5,-144(s0)
    17ec:	00e787b3          	add	a5,a5,a4
    17f0:	0047a783          	lw	a5,4(a5)
    17f4:	00078593          	mv	a1,a5
    17f8:	00048513          	mv	a0,s1
    17fc:	511150ef          	jal	1750c <__mulsf3>
    1800:	00050793          	mv	a5,a0
    1804:	00078913          	mv	s2,a5
    1808:	f6042783          	lw	a5,-160(s0)
    180c:	0047a483          	lw	s1,4(a5)
    1810:	f6842783          	lw	a5,-152(s0)
    1814:	f4842583          	lw	a1,-184(s0)
    1818:	00078513          	mv	a0,a5
    181c:	33d160ef          	jal	18358 <__mulsi3>
    1820:	00050793          	mv	a5,a0
    1824:	00078713          	mv	a4,a5
    1828:	00070793          	mv	a5,a4
    182c:	00179793          	sll	a5,a5,0x1
    1830:	00e787b3          	add	a5,a5,a4
    1834:	00379793          	sll	a5,a5,0x3
    1838:	00078713          	mv	a4,a5
    183c:	f7042783          	lw	a5,-144(s0)
    1840:	00e787b3          	add	a5,a5,a4
    1844:	0007a783          	lw	a5,0(a5)
    1848:	00078593          	mv	a1,a5
    184c:	00048513          	mv	a0,s1
    1850:	4bd150ef          	jal	1750c <__mulsf3>
    1854:	00050793          	mv	a5,a0
    1858:	00078593          	mv	a1,a5
    185c:	00090513          	mv	a0,s2
    1860:	7d4150ef          	jal	17034 <__addsf3>
    1864:	00050793          	mv	a5,a0
    1868:	faf42023          	sw	a5,-96(s0)
        C_MUL(scratch[4] ,*Fout4, tw[4*u*fstride]);
    186c:	f6442783          	lw	a5,-156(s0)
    1870:	0007a483          	lw	s1,0(a5)
    1874:	f6842783          	lw	a5,-152(s0)
    1878:	f4842583          	lw	a1,-184(s0)
    187c:	00078513          	mv	a0,a5
    1880:	2d9160ef          	jal	18358 <__mulsi3>
    1884:	00050793          	mv	a5,a0
    1888:	00579793          	sll	a5,a5,0x5
    188c:	f7042703          	lw	a4,-144(s0)
    1890:	00f707b3          	add	a5,a4,a5
    1894:	0007a783          	lw	a5,0(a5)
    1898:	00078593          	mv	a1,a5
    189c:	00048513          	mv	a0,s1
    18a0:	46d150ef          	jal	1750c <__mulsf3>
    18a4:	00050793          	mv	a5,a0
    18a8:	00078913          	mv	s2,a5
    18ac:	f6442783          	lw	a5,-156(s0)
    18b0:	0047a483          	lw	s1,4(a5)
    18b4:	f6842783          	lw	a5,-152(s0)
    18b8:	f4842583          	lw	a1,-184(s0)
    18bc:	00078513          	mv	a0,a5
    18c0:	299160ef          	jal	18358 <__mulsi3>
    18c4:	00050793          	mv	a5,a0
    18c8:	00579793          	sll	a5,a5,0x5
    18cc:	f7042703          	lw	a4,-144(s0)
    18d0:	00f707b3          	add	a5,a4,a5
    18d4:	0047a783          	lw	a5,4(a5)
    18d8:	00078593          	mv	a1,a5
    18dc:	00048513          	mv	a0,s1
    18e0:	42d150ef          	jal	1750c <__mulsf3>
    18e4:	00050793          	mv	a5,a0
    18e8:	00078593          	mv	a1,a5
    18ec:	00090513          	mv	a0,s2
    18f0:	028160ef          	jal	17918 <__subsf3>
    18f4:	00050793          	mv	a5,a0
    18f8:	faf42223          	sw	a5,-92(s0)
    18fc:	f6442783          	lw	a5,-156(s0)
    1900:	0007a483          	lw	s1,0(a5)
    1904:	f6842783          	lw	a5,-152(s0)
    1908:	f4842583          	lw	a1,-184(s0)
    190c:	00078513          	mv	a0,a5
    1910:	249160ef          	jal	18358 <__mulsi3>
    1914:	00050793          	mv	a5,a0
    1918:	00579793          	sll	a5,a5,0x5
    191c:	f7042703          	lw	a4,-144(s0)
    1920:	00f707b3          	add	a5,a4,a5
    1924:	0047a783          	lw	a5,4(a5)
    1928:	00078593          	mv	a1,a5
    192c:	00048513          	mv	a0,s1
    1930:	3dd150ef          	jal	1750c <__mulsf3>
    1934:	00050793          	mv	a5,a0
    1938:	00078913          	mv	s2,a5
    193c:	f6442783          	lw	a5,-156(s0)
    1940:	0047a483          	lw	s1,4(a5)
    1944:	f6842783          	lw	a5,-152(s0)
    1948:	f4842583          	lw	a1,-184(s0)
    194c:	00078513          	mv	a0,a5
    1950:	209160ef          	jal	18358 <__mulsi3>
    1954:	00050793          	mv	a5,a0
    1958:	00579793          	sll	a5,a5,0x5
    195c:	f7042703          	lw	a4,-144(s0)
    1960:	00f707b3          	add	a5,a4,a5
    1964:	0007a783          	lw	a5,0(a5)
    1968:	00078593          	mv	a1,a5
    196c:	00048513          	mv	a0,s1
    1970:	39d150ef          	jal	1750c <__mulsf3>
    1974:	00050793          	mv	a5,a0
    1978:	00078593          	mv	a1,a5
    197c:	00090513          	mv	a0,s2
    1980:	6b4150ef          	jal	17034 <__addsf3>
    1984:	00050793          	mv	a5,a0
    1988:	faf42423          	sw	a5,-88(s0)

        C_ADD( scratch[7],scratch[1],scratch[4]);
    198c:	f8c42783          	lw	a5,-116(s0)
    1990:	fa442703          	lw	a4,-92(s0)
    1994:	00070593          	mv	a1,a4
    1998:	00078513          	mv	a0,a5
    199c:	698150ef          	jal	17034 <__addsf3>
    19a0:	00050793          	mv	a5,a0
    19a4:	faf42e23          	sw	a5,-68(s0)
    19a8:	f9042783          	lw	a5,-112(s0)
    19ac:	fa842703          	lw	a4,-88(s0)
    19b0:	00070593          	mv	a1,a4
    19b4:	00078513          	mv	a0,a5
    19b8:	67c150ef          	jal	17034 <__addsf3>
    19bc:	00050793          	mv	a5,a0
    19c0:	fcf42023          	sw	a5,-64(s0)
        C_SUB( scratch[10],scratch[1],scratch[4]);
    19c4:	f8c42783          	lw	a5,-116(s0)
    19c8:	fa442703          	lw	a4,-92(s0)
    19cc:	00070593          	mv	a1,a4
    19d0:	00078513          	mv	a0,a5
    19d4:	745150ef          	jal	17918 <__subsf3>
    19d8:	00050793          	mv	a5,a0
    19dc:	fcf42a23          	sw	a5,-44(s0)
    19e0:	f9042783          	lw	a5,-112(s0)
    19e4:	fa842703          	lw	a4,-88(s0)
    19e8:	00070593          	mv	a1,a4
    19ec:	00078513          	mv	a0,a5
    19f0:	729150ef          	jal	17918 <__subsf3>
    19f4:	00050793          	mv	a5,a0
    19f8:	fcf42c23          	sw	a5,-40(s0)
        C_ADD( scratch[8],scratch[2],scratch[3]);
    19fc:	f9442783          	lw	a5,-108(s0)
    1a00:	f9c42703          	lw	a4,-100(s0)
    1a04:	00070593          	mv	a1,a4
    1a08:	00078513          	mv	a0,a5
    1a0c:	628150ef          	jal	17034 <__addsf3>
    1a10:	00050793          	mv	a5,a0
    1a14:	fcf42223          	sw	a5,-60(s0)
    1a18:	f9842783          	lw	a5,-104(s0)
    1a1c:	fa042703          	lw	a4,-96(s0)
    1a20:	00070593          	mv	a1,a4
    1a24:	00078513          	mv	a0,a5
    1a28:	60c150ef          	jal	17034 <__addsf3>
    1a2c:	00050793          	mv	a5,a0
    1a30:	fcf42423          	sw	a5,-56(s0)
        C_SUB( scratch[9],scratch[2],scratch[3]);
    1a34:	f9442783          	lw	a5,-108(s0)
    1a38:	f9c42703          	lw	a4,-100(s0)
    1a3c:	00070593          	mv	a1,a4
    1a40:	00078513          	mv	a0,a5
    1a44:	6d5150ef          	jal	17918 <__subsf3>
    1a48:	00050793          	mv	a5,a0
    1a4c:	fcf42623          	sw	a5,-52(s0)
    1a50:	f9842783          	lw	a5,-104(s0)
    1a54:	fa042703          	lw	a4,-96(s0)
    1a58:	00070593          	mv	a1,a4
    1a5c:	00078513          	mv	a0,a5
    1a60:	6b9150ef          	jal	17918 <__subsf3>
    1a64:	00050793          	mv	a5,a0
    1a68:	fcf42823          	sw	a5,-48(s0)

        Fout0->r += scratch[7].r + scratch[8].r;
    1a6c:	f5442783          	lw	a5,-172(s0)
    1a70:	0007a483          	lw	s1,0(a5)
    1a74:	fbc42783          	lw	a5,-68(s0)
    1a78:	fc442703          	lw	a4,-60(s0)
    1a7c:	00070593          	mv	a1,a4
    1a80:	00078513          	mv	a0,a5
    1a84:	5b0150ef          	jal	17034 <__addsf3>
    1a88:	00050793          	mv	a5,a0
    1a8c:	00078593          	mv	a1,a5
    1a90:	00048513          	mv	a0,s1
    1a94:	5a0150ef          	jal	17034 <__addsf3>
    1a98:	00050793          	mv	a5,a0
    1a9c:	00078713          	mv	a4,a5
    1aa0:	f5442783          	lw	a5,-172(s0)
    1aa4:	00e7a023          	sw	a4,0(a5)
        Fout0->i += scratch[7].i + scratch[8].i;
    1aa8:	f5442783          	lw	a5,-172(s0)
    1aac:	0047a483          	lw	s1,4(a5)
    1ab0:	fc042783          	lw	a5,-64(s0)
    1ab4:	fc842703          	lw	a4,-56(s0)
    1ab8:	00070593          	mv	a1,a4
    1abc:	00078513          	mv	a0,a5
    1ac0:	574150ef          	jal	17034 <__addsf3>
    1ac4:	00050793          	mv	a5,a0
    1ac8:	00078593          	mv	a1,a5
    1acc:	00048513          	mv	a0,s1
    1ad0:	564150ef          	jal	17034 <__addsf3>
    1ad4:	00050793          	mv	a5,a0
    1ad8:	00078713          	mv	a4,a5
    1adc:	f5442783          	lw	a5,-172(s0)
    1ae0:	00e7a223          	sw	a4,4(a5)

        scratch[5].r = scratch[0].r + S_MUL(scratch[7].r,ya.r) + S_MUL(scratch[8].r,yb.r);
    1ae4:	f8442483          	lw	s1,-124(s0)
    1ae8:	fbc42783          	lw	a5,-68(s0)
    1aec:	f7442703          	lw	a4,-140(s0)
    1af0:	00070593          	mv	a1,a4
    1af4:	00078513          	mv	a0,a5
    1af8:	215150ef          	jal	1750c <__mulsf3>
    1afc:	00050793          	mv	a5,a0
    1b00:	00078593          	mv	a1,a5
    1b04:	00048513          	mv	a0,s1
    1b08:	52c150ef          	jal	17034 <__addsf3>
    1b0c:	00050793          	mv	a5,a0
    1b10:	00078493          	mv	s1,a5
    1b14:	fc442783          	lw	a5,-60(s0)
    1b18:	f7c42703          	lw	a4,-132(s0)
    1b1c:	00070593          	mv	a1,a4
    1b20:	00078513          	mv	a0,a5
    1b24:	1e9150ef          	jal	1750c <__mulsf3>
    1b28:	00050793          	mv	a5,a0
    1b2c:	00078593          	mv	a1,a5
    1b30:	00048513          	mv	a0,s1
    1b34:	500150ef          	jal	17034 <__addsf3>
    1b38:	00050793          	mv	a5,a0
    1b3c:	faf42623          	sw	a5,-84(s0)
        scratch[5].i = scratch[0].i + S_MUL(scratch[7].i,ya.r) + S_MUL(scratch[8].i,yb.r);
    1b40:	f8842483          	lw	s1,-120(s0)
    1b44:	fc042783          	lw	a5,-64(s0)
    1b48:	f7442703          	lw	a4,-140(s0)
    1b4c:	00070593          	mv	a1,a4
    1b50:	00078513          	mv	a0,a5
    1b54:	1b9150ef          	jal	1750c <__mulsf3>
    1b58:	00050793          	mv	a5,a0
    1b5c:	00078593          	mv	a1,a5
    1b60:	00048513          	mv	a0,s1
    1b64:	4d0150ef          	jal	17034 <__addsf3>
    1b68:	00050793          	mv	a5,a0
    1b6c:	00078493          	mv	s1,a5
    1b70:	fc842783          	lw	a5,-56(s0)
    1b74:	f7c42703          	lw	a4,-132(s0)
    1b78:	00070593          	mv	a1,a4
    1b7c:	00078513          	mv	a0,a5
    1b80:	18d150ef          	jal	1750c <__mulsf3>
    1b84:	00050793          	mv	a5,a0
    1b88:	00078593          	mv	a1,a5
    1b8c:	00048513          	mv	a0,s1
    1b90:	4a4150ef          	jal	17034 <__addsf3>
    1b94:	00050793          	mv	a5,a0
    1b98:	faf42823          	sw	a5,-80(s0)

        scratch[6].r =  S_MUL(scratch[10].i,ya.i) + S_MUL(scratch[9].i,yb.i);
    1b9c:	fd842783          	lw	a5,-40(s0)
    1ba0:	f7842703          	lw	a4,-136(s0)
    1ba4:	00070593          	mv	a1,a4
    1ba8:	00078513          	mv	a0,a5
    1bac:	161150ef          	jal	1750c <__mulsf3>
    1bb0:	00050793          	mv	a5,a0
    1bb4:	00078493          	mv	s1,a5
    1bb8:	fd042783          	lw	a5,-48(s0)
    1bbc:	f8042703          	lw	a4,-128(s0)
    1bc0:	00070593          	mv	a1,a4
    1bc4:	00078513          	mv	a0,a5
    1bc8:	145150ef          	jal	1750c <__mulsf3>
    1bcc:	00050793          	mv	a5,a0
    1bd0:	00078593          	mv	a1,a5
    1bd4:	00048513          	mv	a0,s1
    1bd8:	45c150ef          	jal	17034 <__addsf3>
    1bdc:	00050793          	mv	a5,a0
    1be0:	faf42a23          	sw	a5,-76(s0)
        scratch[6].i = -S_MUL(scratch[10].r,ya.i) - S_MUL(scratch[9].r,yb.i);
    1be4:	fd442783          	lw	a5,-44(s0)
    1be8:	f7842703          	lw	a4,-136(s0)
    1bec:	00070593          	mv	a1,a4
    1bf0:	00078513          	mv	a0,a5
    1bf4:	119150ef          	jal	1750c <__mulsf3>
    1bf8:	00050793          	mv	a5,a0
    1bfc:	00078713          	mv	a4,a5
    1c00:	800007b7          	lui	a5,0x80000
    1c04:	00f744b3          	xor	s1,a4,a5
    1c08:	fcc42783          	lw	a5,-52(s0)
    1c0c:	f8042703          	lw	a4,-128(s0)
    1c10:	00070593          	mv	a1,a4
    1c14:	00078513          	mv	a0,a5
    1c18:	0f5150ef          	jal	1750c <__mulsf3>
    1c1c:	00050793          	mv	a5,a0
    1c20:	00078593          	mv	a1,a5
    1c24:	00048513          	mv	a0,s1
    1c28:	4f1150ef          	jal	17918 <__subsf3>
    1c2c:	00050793          	mv	a5,a0
    1c30:	faf42c23          	sw	a5,-72(s0)

        C_SUB(*Fout1,scratch[5],scratch[6]);
    1c34:	fac42783          	lw	a5,-84(s0)
    1c38:	fb442703          	lw	a4,-76(s0)
    1c3c:	00070593          	mv	a1,a4
    1c40:	00078513          	mv	a0,a5
    1c44:	4d5150ef          	jal	17918 <__subsf3>
    1c48:	00050793          	mv	a5,a0
    1c4c:	00078713          	mv	a4,a5
    1c50:	f5842783          	lw	a5,-168(s0)
    1c54:	00e7a023          	sw	a4,0(a5) # 80000000 <__alt_data_end+0x7ffc4000>
    1c58:	fb042783          	lw	a5,-80(s0)
    1c5c:	fb842703          	lw	a4,-72(s0)
    1c60:	00070593          	mv	a1,a4
    1c64:	00078513          	mv	a0,a5
    1c68:	4b1150ef          	jal	17918 <__subsf3>
    1c6c:	00050793          	mv	a5,a0
    1c70:	00078713          	mv	a4,a5
    1c74:	f5842783          	lw	a5,-168(s0)
    1c78:	00e7a223          	sw	a4,4(a5)
        C_ADD(*Fout4,scratch[5],scratch[6]);
    1c7c:	fac42783          	lw	a5,-84(s0)
    1c80:	fb442703          	lw	a4,-76(s0)
    1c84:	00070593          	mv	a1,a4
    1c88:	00078513          	mv	a0,a5
    1c8c:	3a8150ef          	jal	17034 <__addsf3>
    1c90:	00050793          	mv	a5,a0
    1c94:	00078713          	mv	a4,a5
    1c98:	f6442783          	lw	a5,-156(s0)
    1c9c:	00e7a023          	sw	a4,0(a5)
    1ca0:	fb042783          	lw	a5,-80(s0)
    1ca4:	fb842703          	lw	a4,-72(s0)
    1ca8:	00070593          	mv	a1,a4
    1cac:	00078513          	mv	a0,a5
    1cb0:	384150ef          	jal	17034 <__addsf3>
    1cb4:	00050793          	mv	a5,a0
    1cb8:	00078713          	mv	a4,a5
    1cbc:	f6442783          	lw	a5,-156(s0)
    1cc0:	00e7a223          	sw	a4,4(a5)

        scratch[11].r = scratch[0].r + S_MUL(scratch[7].r,yb.r) + S_MUL(scratch[8].r,ya.r);
    1cc4:	f8442483          	lw	s1,-124(s0)
    1cc8:	fbc42783          	lw	a5,-68(s0)
    1ccc:	f7c42703          	lw	a4,-132(s0)
    1cd0:	00070593          	mv	a1,a4
    1cd4:	00078513          	mv	a0,a5
    1cd8:	035150ef          	jal	1750c <__mulsf3>
    1cdc:	00050793          	mv	a5,a0
    1ce0:	00078593          	mv	a1,a5
    1ce4:	00048513          	mv	a0,s1
    1ce8:	34c150ef          	jal	17034 <__addsf3>
    1cec:	00050793          	mv	a5,a0
    1cf0:	00078493          	mv	s1,a5
    1cf4:	fc442783          	lw	a5,-60(s0)
    1cf8:	f7442703          	lw	a4,-140(s0)
    1cfc:	00070593          	mv	a1,a4
    1d00:	00078513          	mv	a0,a5
    1d04:	009150ef          	jal	1750c <__mulsf3>
    1d08:	00050793          	mv	a5,a0
    1d0c:	00078593          	mv	a1,a5
    1d10:	00048513          	mv	a0,s1
    1d14:	320150ef          	jal	17034 <__addsf3>
    1d18:	00050793          	mv	a5,a0
    1d1c:	fcf42e23          	sw	a5,-36(s0)
        scratch[11].i = scratch[0].i + S_MUL(scratch[7].i,yb.r) + S_MUL(scratch[8].i,ya.r);
    1d20:	f8842483          	lw	s1,-120(s0)
    1d24:	fc042783          	lw	a5,-64(s0)
    1d28:	f7c42703          	lw	a4,-132(s0)
    1d2c:	00070593          	mv	a1,a4
    1d30:	00078513          	mv	a0,a5
    1d34:	7d8150ef          	jal	1750c <__mulsf3>
    1d38:	00050793          	mv	a5,a0
    1d3c:	00078593          	mv	a1,a5
    1d40:	00048513          	mv	a0,s1
    1d44:	2f0150ef          	jal	17034 <__addsf3>
    1d48:	00050793          	mv	a5,a0
    1d4c:	00078493          	mv	s1,a5
    1d50:	fc842783          	lw	a5,-56(s0)
    1d54:	f7442703          	lw	a4,-140(s0)
    1d58:	00070593          	mv	a1,a4
    1d5c:	00078513          	mv	a0,a5
    1d60:	7ac150ef          	jal	1750c <__mulsf3>
    1d64:	00050793          	mv	a5,a0
    1d68:	00078593          	mv	a1,a5
    1d6c:	00048513          	mv	a0,s1
    1d70:	2c4150ef          	jal	17034 <__addsf3>
    1d74:	00050793          	mv	a5,a0
    1d78:	fef42023          	sw	a5,-32(s0)
        scratch[12].r = - S_MUL(scratch[10].i,yb.i) + S_MUL(scratch[9].i,ya.i);
    1d7c:	fd042783          	lw	a5,-48(s0)
    1d80:	f7842703          	lw	a4,-136(s0)
    1d84:	00070593          	mv	a1,a4
    1d88:	00078513          	mv	a0,a5
    1d8c:	780150ef          	jal	1750c <__mulsf3>
    1d90:	00050793          	mv	a5,a0
    1d94:	00078493          	mv	s1,a5
    1d98:	fd842783          	lw	a5,-40(s0)
    1d9c:	f8042703          	lw	a4,-128(s0)
    1da0:	00070593          	mv	a1,a4
    1da4:	00078513          	mv	a0,a5
    1da8:	764150ef          	jal	1750c <__mulsf3>
    1dac:	00050793          	mv	a5,a0
    1db0:	00078593          	mv	a1,a5
    1db4:	00048513          	mv	a0,s1
    1db8:	361150ef          	jal	17918 <__subsf3>
    1dbc:	00050793          	mv	a5,a0
    1dc0:	fef42223          	sw	a5,-28(s0)
        scratch[12].i = S_MUL(scratch[10].r,yb.i) - S_MUL(scratch[9].r,ya.i);
    1dc4:	fd442783          	lw	a5,-44(s0)
    1dc8:	f8042703          	lw	a4,-128(s0)
    1dcc:	00070593          	mv	a1,a4
    1dd0:	00078513          	mv	a0,a5
    1dd4:	738150ef          	jal	1750c <__mulsf3>
    1dd8:	00050793          	mv	a5,a0
    1ddc:	00078493          	mv	s1,a5
    1de0:	fcc42783          	lw	a5,-52(s0)
    1de4:	f7842703          	lw	a4,-136(s0)
    1de8:	00070593          	mv	a1,a4
    1dec:	00078513          	mv	a0,a5
    1df0:	71c150ef          	jal	1750c <__mulsf3>
    1df4:	00050793          	mv	a5,a0
    1df8:	00078593          	mv	a1,a5
    1dfc:	00048513          	mv	a0,s1
    1e00:	319150ef          	jal	17918 <__subsf3>
    1e04:	00050793          	mv	a5,a0
    1e08:	fef42423          	sw	a5,-24(s0)

        C_ADD(*Fout2,scratch[11],scratch[12]);
    1e0c:	fdc42783          	lw	a5,-36(s0)
    1e10:	fe442703          	lw	a4,-28(s0)
    1e14:	00070593          	mv	a1,a4
    1e18:	00078513          	mv	a0,a5
    1e1c:	218150ef          	jal	17034 <__addsf3>
    1e20:	00050793          	mv	a5,a0
    1e24:	00078713          	mv	a4,a5
    1e28:	f5c42783          	lw	a5,-164(s0)
    1e2c:	00e7a023          	sw	a4,0(a5)
    1e30:	fe042783          	lw	a5,-32(s0)
    1e34:	fe842703          	lw	a4,-24(s0)
    1e38:	00070593          	mv	a1,a4
    1e3c:	00078513          	mv	a0,a5
    1e40:	1f4150ef          	jal	17034 <__addsf3>
    1e44:	00050793          	mv	a5,a0
    1e48:	00078713          	mv	a4,a5
    1e4c:	f5c42783          	lw	a5,-164(s0)
    1e50:	00e7a223          	sw	a4,4(a5)
        C_SUB(*Fout3,scratch[11],scratch[12]);
    1e54:	fdc42783          	lw	a5,-36(s0)
    1e58:	fe442703          	lw	a4,-28(s0)
    1e5c:	00070593          	mv	a1,a4
    1e60:	00078513          	mv	a0,a5
    1e64:	2b5150ef          	jal	17918 <__subsf3>
    1e68:	00050793          	mv	a5,a0
    1e6c:	00078713          	mv	a4,a5
    1e70:	f6042783          	lw	a5,-160(s0)
    1e74:	00e7a023          	sw	a4,0(a5)
    1e78:	fe042783          	lw	a5,-32(s0)
    1e7c:	fe842703          	lw	a4,-24(s0)
    1e80:	00070593          	mv	a1,a4
    1e84:	00078513          	mv	a0,a5
    1e88:	291150ef          	jal	17918 <__subsf3>
    1e8c:	00050793          	mv	a5,a0
    1e90:	00078713          	mv	a4,a5
    1e94:	f6042783          	lw	a5,-160(s0)
    1e98:	00e7a223          	sw	a4,4(a5)

        ++Fout0;++Fout1;++Fout2;++Fout3;++Fout4;
    1e9c:	f5442783          	lw	a5,-172(s0)
    1ea0:	00878793          	add	a5,a5,8
    1ea4:	f4f42a23          	sw	a5,-172(s0)
    1ea8:	f5842783          	lw	a5,-168(s0)
    1eac:	00878793          	add	a5,a5,8
    1eb0:	f4f42c23          	sw	a5,-168(s0)
    1eb4:	f5c42783          	lw	a5,-164(s0)
    1eb8:	00878793          	add	a5,a5,8
    1ebc:	f4f42e23          	sw	a5,-164(s0)
    1ec0:	f6042783          	lw	a5,-160(s0)
    1ec4:	00878793          	add	a5,a5,8
    1ec8:	f6f42023          	sw	a5,-160(s0)
    1ecc:	f6442783          	lw	a5,-156(s0)
    1ed0:	00878793          	add	a5,a5,8
    1ed4:	f6f42223          	sw	a5,-156(s0)
    for ( u=0; u<m; ++u ) {
    1ed8:	f6842783          	lw	a5,-152(s0)
    1edc:	00178793          	add	a5,a5,1
    1ee0:	f6f42423          	sw	a5,-152(s0)
    1ee4:	f6842703          	lw	a4,-152(s0)
    1ee8:	f4042783          	lw	a5,-192(s0)
    1eec:	daf74e63          	blt	a4,a5,14a8 <kf_bfly5+0x120>
    }
}
    1ef0:	00000013          	nop
    1ef4:	000207b7          	lui	a5,0x20
    1ef8:	fec42703          	lw	a4,-20(s0)
    1efc:	c287a783          	lw	a5,-984(a5) # 1fc28 <__stack_chk_guard>
    1f00:	00f747b3          	xor	a5,a4,a5
    1f04:	00000713          	li	a4,0
    1f08:	00078463          	beqz	a5,1f10 <kf_bfly5+0xb88>
    1f0c:	3a4030ef          	jal	52b0 <__stack_chk_fail>
    1f10:	0bc12083          	lw	ra,188(sp)
    1f14:	0b812403          	lw	s0,184(sp)
    1f18:	0b412483          	lw	s1,180(sp)
    1f1c:	0b012903          	lw	s2,176(sp)
    1f20:	0c010113          	add	sp,sp,192
    1f24:	00008067          	ret

00001f28 <kf_bfly_generic>:
        const size_t fstride,
        const kiss_fft_cfg st,
        int m,
        int p
        )
{
    1f28:	fa010113          	add	sp,sp,-96
    1f2c:	04112e23          	sw	ra,92(sp)
    1f30:	04812c23          	sw	s0,88(sp)
    1f34:	04912a23          	sw	s1,84(sp)
    1f38:	06010413          	add	s0,sp,96
    1f3c:	faa42e23          	sw	a0,-68(s0)
    1f40:	fab42c23          	sw	a1,-72(s0)
    1f44:	fac42a23          	sw	a2,-76(s0)
    1f48:	fad42823          	sw	a3,-80(s0)
    1f4c:	fae42623          	sw	a4,-84(s0)
    int u,k,q1,q;
    kiss_fft_cpx * twiddles = st->twiddles;
    1f50:	fb442783          	lw	a5,-76(s0)
    1f54:	10878793          	add	a5,a5,264
    1f58:	fcf42e23          	sw	a5,-36(s0)
    kiss_fft_cpx t;
    int Norig = st->nfft;
    1f5c:	fb442783          	lw	a5,-76(s0)
    1f60:	0007a783          	lw	a5,0(a5)
    1f64:	fef42023          	sw	a5,-32(s0)

    kiss_fft_cpx * scratch = (kiss_fft_cpx*)KISS_FFT_TMP_ALLOC(sizeof(kiss_fft_cpx)*p);
    1f68:	fac42783          	lw	a5,-84(s0)
    1f6c:	00379793          	sll	a5,a5,0x3
    1f70:	00078513          	mv	a0,a5
    1f74:	3fc030ef          	jal	5370 <malloc>
    1f78:	00050793          	mv	a5,a0
    1f7c:	fef42223          	sw	a5,-28(s0)
    if (scratch == NULL){
    1f80:	fe442783          	lw	a5,-28(s0)
    1f84:	04079e63          	bnez	a5,1fe0 <kf_bfly_generic+0xb8>
        KISS_FFT_ERROR("Memory allocation failed.");
    1f88:	8201a783          	lw	a5,-2016(gp) # 1e300 <_impure_ptr>
    1f8c:	00c7a783          	lw	a5,12(a5)
    1f90:	00078693          	mv	a3,a5
    1f94:	07200613          	li	a2,114
    1f98:	00100593          	li	a1,1
    1f9c:	0001c7b7          	lui	a5,0x1c
    1fa0:	c2078513          	add	a0,a5,-992 # 1bc20 <__flash_rodata_start+0xa0>
    1fa4:	76d030ef          	jal	5f10 <fwrite>
    1fa8:	8201a783          	lw	a5,-2016(gp) # 1e300 <_impure_ptr>
    1fac:	00c7a783          	lw	a5,12(a5)
    1fb0:	00078693          	mv	a3,a5
    1fb4:	01900613          	li	a2,25
    1fb8:	00100593          	li	a1,1
    1fbc:	0001c7b7          	lui	a5,0x1c
    1fc0:	c9478513          	add	a0,a5,-876 # 1bc94 <__flash_rodata_start+0x114>
    1fc4:	74d030ef          	jal	5f10 <fwrite>
    1fc8:	8201a783          	lw	a5,-2016(gp) # 1e300 <_impure_ptr>
    1fcc:	00c7a783          	lw	a5,12(a5)
    1fd0:	00078593          	mv	a1,a5
    1fd4:	00a00513          	li	a0,10
    1fd8:	78d020ef          	jal	4f64 <fputc>
    1fdc:	2e00006f          	j	22bc <kf_bfly_generic+0x394>
        return;
    }

    for ( u=0; u<m; ++u ) {
    1fe0:	fc042423          	sw	zero,-56(s0)
    1fe4:	2c40006f          	j	22a8 <kf_bfly_generic+0x380>
        k=u;
    1fe8:	fc842783          	lw	a5,-56(s0)
    1fec:	fcf42623          	sw	a5,-52(s0)
        for ( q1=0 ; q1<p ; ++q1 ) {
    1ff0:	fc042823          	sw	zero,-48(s0)
    1ff4:	0500006f          	j	2044 <kf_bfly_generic+0x11c>
            scratch[q1] = Fout[ k  ];
    1ff8:	fcc42783          	lw	a5,-52(s0)
    1ffc:	00379793          	sll	a5,a5,0x3
    2000:	fbc42703          	lw	a4,-68(s0)
    2004:	00f70733          	add	a4,a4,a5
    2008:	fd042783          	lw	a5,-48(s0)
    200c:	00379793          	sll	a5,a5,0x3
    2010:	fe442683          	lw	a3,-28(s0)
    2014:	00f687b3          	add	a5,a3,a5
    2018:	00072683          	lw	a3,0(a4)
    201c:	00d7a023          	sw	a3,0(a5)
    2020:	00472703          	lw	a4,4(a4)
    2024:	00e7a223          	sw	a4,4(a5)
            C_FIXDIV(scratch[q1],p);
            k += m;
    2028:	fcc42703          	lw	a4,-52(s0)
    202c:	fb042783          	lw	a5,-80(s0)
    2030:	00f707b3          	add	a5,a4,a5
    2034:	fcf42623          	sw	a5,-52(s0)
        for ( q1=0 ; q1<p ; ++q1 ) {
    2038:	fd042783          	lw	a5,-48(s0)
    203c:	00178793          	add	a5,a5,1
    2040:	fcf42823          	sw	a5,-48(s0)
    2044:	fd042703          	lw	a4,-48(s0)
    2048:	fac42783          	lw	a5,-84(s0)
    204c:	faf746e3          	blt	a4,a5,1ff8 <kf_bfly_generic+0xd0>
        }

        k=u;
    2050:	fc842783          	lw	a5,-56(s0)
    2054:	fcf42623          	sw	a5,-52(s0)
        for ( q1=0 ; q1<p ; ++q1 ) {
    2058:	fc042823          	sw	zero,-48(s0)
    205c:	2340006f          	j	2290 <kf_bfly_generic+0x368>
            int twidx=0;
    2060:	fc042c23          	sw	zero,-40(s0)
            Fout[ k ] = scratch[0];
    2064:	fcc42783          	lw	a5,-52(s0)
    2068:	00379793          	sll	a5,a5,0x3
    206c:	fbc42703          	lw	a4,-68(s0)
    2070:	00f707b3          	add	a5,a4,a5
    2074:	fe442703          	lw	a4,-28(s0)
    2078:	00072683          	lw	a3,0(a4)
    207c:	00d7a023          	sw	a3,0(a5)
    2080:	00472703          	lw	a4,4(a4)
    2084:	00e7a223          	sw	a4,4(a5)
            for (q=1;q<p;++q ) {
    2088:	00100793          	li	a5,1
    208c:	fcf42a23          	sw	a5,-44(s0)
    2090:	1d80006f          	j	2268 <kf_bfly_generic+0x340>
                twidx += fstride * k;
    2094:	fcc42783          	lw	a5,-52(s0)
    2098:	fb842583          	lw	a1,-72(s0)
    209c:	00078513          	mv	a0,a5
    20a0:	2b8160ef          	jal	18358 <__mulsi3>
    20a4:	00050793          	mv	a5,a0
    20a8:	00078713          	mv	a4,a5
    20ac:	fd842783          	lw	a5,-40(s0)
    20b0:	00f707b3          	add	a5,a4,a5
    20b4:	fcf42c23          	sw	a5,-40(s0)
                if (twidx>=Norig) twidx-=Norig;
    20b8:	fd842703          	lw	a4,-40(s0)
    20bc:	fe042783          	lw	a5,-32(s0)
    20c0:	00f74a63          	blt	a4,a5,20d4 <kf_bfly_generic+0x1ac>
    20c4:	fd842703          	lw	a4,-40(s0)
    20c8:	fe042783          	lw	a5,-32(s0)
    20cc:	40f707b3          	sub	a5,a4,a5
    20d0:	fcf42c23          	sw	a5,-40(s0)
                C_MUL(t,scratch[q] , twiddles[twidx] );
    20d4:	fd442783          	lw	a5,-44(s0)
    20d8:	00379793          	sll	a5,a5,0x3
    20dc:	fe442703          	lw	a4,-28(s0)
    20e0:	00f707b3          	add	a5,a4,a5
    20e4:	0007a683          	lw	a3,0(a5)
    20e8:	fd842783          	lw	a5,-40(s0)
    20ec:	00379793          	sll	a5,a5,0x3
    20f0:	fdc42703          	lw	a4,-36(s0)
    20f4:	00f707b3          	add	a5,a4,a5
    20f8:	0007a783          	lw	a5,0(a5)
    20fc:	00078593          	mv	a1,a5
    2100:	00068513          	mv	a0,a3
    2104:	408150ef          	jal	1750c <__mulsf3>
    2108:	00050793          	mv	a5,a0
    210c:	00078493          	mv	s1,a5
    2110:	fd442783          	lw	a5,-44(s0)
    2114:	00379793          	sll	a5,a5,0x3
    2118:	fe442703          	lw	a4,-28(s0)
    211c:	00f707b3          	add	a5,a4,a5
    2120:	0047a683          	lw	a3,4(a5)
    2124:	fd842783          	lw	a5,-40(s0)
    2128:	00379793          	sll	a5,a5,0x3
    212c:	fdc42703          	lw	a4,-36(s0)
    2130:	00f707b3          	add	a5,a4,a5
    2134:	0047a783          	lw	a5,4(a5)
    2138:	00078593          	mv	a1,a5
    213c:	00068513          	mv	a0,a3
    2140:	3cc150ef          	jal	1750c <__mulsf3>
    2144:	00050793          	mv	a5,a0
    2148:	00078593          	mv	a1,a5
    214c:	00048513          	mv	a0,s1
    2150:	7c8150ef          	jal	17918 <__subsf3>
    2154:	00050793          	mv	a5,a0
    2158:	fef42423          	sw	a5,-24(s0)
    215c:	fd442783          	lw	a5,-44(s0)
    2160:	00379793          	sll	a5,a5,0x3
    2164:	fe442703          	lw	a4,-28(s0)
    2168:	00f707b3          	add	a5,a4,a5
    216c:	0007a683          	lw	a3,0(a5)
    2170:	fd842783          	lw	a5,-40(s0)
    2174:	00379793          	sll	a5,a5,0x3
    2178:	fdc42703          	lw	a4,-36(s0)
    217c:	00f707b3          	add	a5,a4,a5
    2180:	0047a783          	lw	a5,4(a5)
    2184:	00078593          	mv	a1,a5
    2188:	00068513          	mv	a0,a3
    218c:	380150ef          	jal	1750c <__mulsf3>
    2190:	00050793          	mv	a5,a0
    2194:	00078493          	mv	s1,a5
    2198:	fd442783          	lw	a5,-44(s0)
    219c:	00379793          	sll	a5,a5,0x3
    21a0:	fe442703          	lw	a4,-28(s0)
    21a4:	00f707b3          	add	a5,a4,a5
    21a8:	0047a683          	lw	a3,4(a5)
    21ac:	fd842783          	lw	a5,-40(s0)
    21b0:	00379793          	sll	a5,a5,0x3
    21b4:	fdc42703          	lw	a4,-36(s0)
    21b8:	00f707b3          	add	a5,a4,a5
    21bc:	0007a783          	lw	a5,0(a5)
    21c0:	00078593          	mv	a1,a5
    21c4:	00068513          	mv	a0,a3
    21c8:	344150ef          	jal	1750c <__mulsf3>
    21cc:	00050793          	mv	a5,a0
    21d0:	00078593          	mv	a1,a5
    21d4:	00048513          	mv	a0,s1
    21d8:	65d140ef          	jal	17034 <__addsf3>
    21dc:	00050793          	mv	a5,a0
    21e0:	fef42623          	sw	a5,-20(s0)
                C_ADDTO( Fout[ k ] ,t);
    21e4:	fcc42783          	lw	a5,-52(s0)
    21e8:	00379793          	sll	a5,a5,0x3
    21ec:	fbc42703          	lw	a4,-68(s0)
    21f0:	00f707b3          	add	a5,a4,a5
    21f4:	0007a683          	lw	a3,0(a5)
    21f8:	fe842603          	lw	a2,-24(s0)
    21fc:	fcc42783          	lw	a5,-52(s0)
    2200:	00379793          	sll	a5,a5,0x3
    2204:	fbc42703          	lw	a4,-68(s0)
    2208:	00f704b3          	add	s1,a4,a5
    220c:	00060593          	mv	a1,a2
    2210:	00068513          	mv	a0,a3
    2214:	621140ef          	jal	17034 <__addsf3>
    2218:	00050793          	mv	a5,a0
    221c:	00f4a023          	sw	a5,0(s1)
    2220:	fcc42783          	lw	a5,-52(s0)
    2224:	00379793          	sll	a5,a5,0x3
    2228:	fbc42703          	lw	a4,-68(s0)
    222c:	00f707b3          	add	a5,a4,a5
    2230:	0047a683          	lw	a3,4(a5)
    2234:	fec42603          	lw	a2,-20(s0)
    2238:	fcc42783          	lw	a5,-52(s0)
    223c:	00379793          	sll	a5,a5,0x3
    2240:	fbc42703          	lw	a4,-68(s0)
    2244:	00f704b3          	add	s1,a4,a5
    2248:	00060593          	mv	a1,a2
    224c:	00068513          	mv	a0,a3
    2250:	5e5140ef          	jal	17034 <__addsf3>
    2254:	00050793          	mv	a5,a0
    2258:	00f4a223          	sw	a5,4(s1)
            for (q=1;q<p;++q ) {
    225c:	fd442783          	lw	a5,-44(s0)
    2260:	00178793          	add	a5,a5,1
    2264:	fcf42a23          	sw	a5,-44(s0)
    2268:	fd442703          	lw	a4,-44(s0)
    226c:	fac42783          	lw	a5,-84(s0)
    2270:	e2f742e3          	blt	a4,a5,2094 <kf_bfly_generic+0x16c>
            }
            k += m;
    2274:	fcc42703          	lw	a4,-52(s0)
    2278:	fb042783          	lw	a5,-80(s0)
    227c:	00f707b3          	add	a5,a4,a5
    2280:	fcf42623          	sw	a5,-52(s0)
        for ( q1=0 ; q1<p ; ++q1 ) {
    2284:	fd042783          	lw	a5,-48(s0)
    2288:	00178793          	add	a5,a5,1
    228c:	fcf42823          	sw	a5,-48(s0)
    2290:	fd042703          	lw	a4,-48(s0)
    2294:	fac42783          	lw	a5,-84(s0)
    2298:	dcf744e3          	blt	a4,a5,2060 <kf_bfly_generic+0x138>
    for ( u=0; u<m; ++u ) {
    229c:	fc842783          	lw	a5,-56(s0)
    22a0:	00178793          	add	a5,a5,1
    22a4:	fcf42423          	sw	a5,-56(s0)
    22a8:	fc842703          	lw	a4,-56(s0)
    22ac:	fb042783          	lw	a5,-80(s0)
    22b0:	d2f74ce3          	blt	a4,a5,1fe8 <kf_bfly_generic+0xc0>
        }
    }
    KISS_FFT_TMP_FREE(scratch);
    22b4:	fe442503          	lw	a0,-28(s0)
    22b8:	0c4030ef          	jal	537c <free>
}
    22bc:	05c12083          	lw	ra,92(sp)
    22c0:	05812403          	lw	s0,88(sp)
    22c4:	05412483          	lw	s1,84(sp)
    22c8:	06010113          	add	sp,sp,96
    22cc:	00008067          	ret

000022d0 <kf_work>:
        const size_t fstride,
        int in_stride,
        int * factors,
        const kiss_fft_cfg st
        )
{
    22d0:	fc010113          	add	sp,sp,-64
    22d4:	02112e23          	sw	ra,60(sp)
    22d8:	02812c23          	sw	s0,56(sp)
    22dc:	04010413          	add	s0,sp,64
    22e0:	fca42e23          	sw	a0,-36(s0)
    22e4:	fcb42c23          	sw	a1,-40(s0)
    22e8:	fcc42a23          	sw	a2,-44(s0)
    22ec:	fcd42823          	sw	a3,-48(s0)
    22f0:	fce42623          	sw	a4,-52(s0)
    22f4:	fcf42423          	sw	a5,-56(s0)
    kiss_fft_cpx * Fout_beg=Fout;
    22f8:	fdc42783          	lw	a5,-36(s0)
    22fc:	fef42023          	sw	a5,-32(s0)
    const int p=*factors++; /* the radix  */
    2300:	fcc42783          	lw	a5,-52(s0)
    2304:	00478713          	add	a4,a5,4
    2308:	fce42623          	sw	a4,-52(s0)
    230c:	0007a783          	lw	a5,0(a5)
    2310:	fef42223          	sw	a5,-28(s0)
    const int m=*factors++; /* stage's fft length/p */
    2314:	fcc42783          	lw	a5,-52(s0)
    2318:	00478713          	add	a4,a5,4
    231c:	fce42623          	sw	a4,-52(s0)
    2320:	0007a783          	lw	a5,0(a5)
    2324:	fef42423          	sw	a5,-24(s0)
    const kiss_fft_cpx * Fout_end = Fout + p*m;
    2328:	fe842583          	lw	a1,-24(s0)
    232c:	fe442503          	lw	a0,-28(s0)
    2330:	028160ef          	jal	18358 <__mulsi3>
    2334:	00050793          	mv	a5,a0
    2338:	00379793          	sll	a5,a5,0x3
    233c:	fdc42703          	lw	a4,-36(s0)
    2340:	00f707b3          	add	a5,a4,a5
    2344:	fef42623          	sw	a5,-20(s0)
        }
        return;
    }
#endif

    if (m==1) {
    2348:	fe842703          	lw	a4,-24(s0)
    234c:	00100793          	li	a5,1
    2350:	04f71e63          	bne	a4,a5,23ac <kf_work+0xdc>
        do{
            *Fout = *f;
    2354:	fdc42783          	lw	a5,-36(s0)
    2358:	fd842703          	lw	a4,-40(s0)
    235c:	00072683          	lw	a3,0(a4)
    2360:	00d7a023          	sw	a3,0(a5)
    2364:	00472703          	lw	a4,4(a4)
    2368:	00e7a223          	sw	a4,4(a5)
            f += fstride*in_stride;
    236c:	fd042783          	lw	a5,-48(s0)
    2370:	fd442583          	lw	a1,-44(s0)
    2374:	00078513          	mv	a0,a5
    2378:	7e1150ef          	jal	18358 <__mulsi3>
    237c:	00050793          	mv	a5,a0
    2380:	00379793          	sll	a5,a5,0x3
    2384:	fd842703          	lw	a4,-40(s0)
    2388:	00f707b3          	add	a5,a4,a5
    238c:	fcf42c23          	sw	a5,-40(s0)
        }while(++Fout != Fout_end );
    2390:	fdc42783          	lw	a5,-36(s0)
    2394:	00878793          	add	a5,a5,8
    2398:	fcf42e23          	sw	a5,-36(s0)
    239c:	fdc42703          	lw	a4,-36(s0)
    23a0:	fec42783          	lw	a5,-20(s0)
    23a4:	faf718e3          	bne	a4,a5,2354 <kf_work+0x84>
    23a8:	0780006f          	j	2420 <kf_work+0x150>
        do{
            // recursive call:
            // DFT of size m*p performed by doing
            // p instances of smaller DFTs of size m,
            // each one takes a decimated version of the input
            kf_work( Fout , f, fstride*p, in_stride, factors,st);
    23ac:	fe442783          	lw	a5,-28(s0)
    23b0:	fd442583          	lw	a1,-44(s0)
    23b4:	00078513          	mv	a0,a5
    23b8:	7a1150ef          	jal	18358 <__mulsi3>
    23bc:	00050793          	mv	a5,a0
    23c0:	00078613          	mv	a2,a5
    23c4:	fc842783          	lw	a5,-56(s0)
    23c8:	fcc42703          	lw	a4,-52(s0)
    23cc:	fd042683          	lw	a3,-48(s0)
    23d0:	fd842583          	lw	a1,-40(s0)
    23d4:	fdc42503          	lw	a0,-36(s0)
    23d8:	ef9ff0ef          	jal	22d0 <kf_work>
            f += fstride*in_stride;
    23dc:	fd042783          	lw	a5,-48(s0)
    23e0:	fd442583          	lw	a1,-44(s0)
    23e4:	00078513          	mv	a0,a5
    23e8:	771150ef          	jal	18358 <__mulsi3>
    23ec:	00050793          	mv	a5,a0
    23f0:	00379793          	sll	a5,a5,0x3
    23f4:	fd842703          	lw	a4,-40(s0)
    23f8:	00f707b3          	add	a5,a4,a5
    23fc:	fcf42c23          	sw	a5,-40(s0)
        }while( (Fout += m) != Fout_end );
    2400:	fe842783          	lw	a5,-24(s0)
    2404:	00379793          	sll	a5,a5,0x3
    2408:	fdc42703          	lw	a4,-36(s0)
    240c:	00f707b3          	add	a5,a4,a5
    2410:	fcf42e23          	sw	a5,-36(s0)
    2414:	fdc42703          	lw	a4,-36(s0)
    2418:	fec42783          	lw	a5,-20(s0)
    241c:	f8f718e3          	bne	a4,a5,23ac <kf_work+0xdc>
    }

    Fout=Fout_beg;
    2420:	fe042783          	lw	a5,-32(s0)
    2424:	fcf42e23          	sw	a5,-36(s0)

    // recombine the p smaller DFTs
    switch (p) {
    2428:	fe442703          	lw	a4,-28(s0)
    242c:	00500793          	li	a5,5
    2430:	08f70a63          	beq	a4,a5,24c4 <kf_work+0x1f4>
    2434:	fe442703          	lw	a4,-28(s0)
    2438:	00500793          	li	a5,5
    243c:	0ae7c063          	blt	a5,a4,24dc <kf_work+0x20c>
    2440:	fe442703          	lw	a4,-28(s0)
    2444:	00400793          	li	a5,4
    2448:	06f70063          	beq	a4,a5,24a8 <kf_work+0x1d8>
    244c:	fe442703          	lw	a4,-28(s0)
    2450:	00400793          	li	a5,4
    2454:	08e7c463          	blt	a5,a4,24dc <kf_work+0x20c>
    2458:	fe442703          	lw	a4,-28(s0)
    245c:	00200793          	li	a5,2
    2460:	00f70a63          	beq	a4,a5,2474 <kf_work+0x1a4>
    2464:	fe442703          	lw	a4,-28(s0)
    2468:	00300793          	li	a5,3
    246c:	02f70063          	beq	a4,a5,248c <kf_work+0x1bc>
    2470:	06c0006f          	j	24dc <kf_work+0x20c>
        case 2: kf_bfly2(Fout,fstride,st,m); break;
    2474:	fe842683          	lw	a3,-24(s0)
    2478:	fc842603          	lw	a2,-56(s0)
    247c:	fd442583          	lw	a1,-44(s0)
    2480:	fdc42503          	lw	a0,-36(s0)
    2484:	8f4fe0ef          	jal	578 <kf_bfly2>
    2488:	0700006f          	j	24f8 <kf_work+0x228>
        case 3: kf_bfly3(Fout,fstride,st,m); break;
    248c:	fe842783          	lw	a5,-24(s0)
    2490:	00078693          	mv	a3,a5
    2494:	fc842603          	lw	a2,-56(s0)
    2498:	fd442583          	lw	a1,-44(s0)
    249c:	fdc42503          	lw	a0,-36(s0)
    24a0:	9a1fe0ef          	jal	e40 <kf_bfly3>
    24a4:	0540006f          	j	24f8 <kf_work+0x228>
        case 4: kf_bfly4(Fout,fstride,st,m); break;
    24a8:	fe842783          	lw	a5,-24(s0)
    24ac:	00078693          	mv	a3,a5
    24b0:	fc842603          	lw	a2,-56(s0)
    24b4:	fd442583          	lw	a1,-44(s0)
    24b8:	fdc42503          	lw	a0,-36(s0)
    24bc:	aacfe0ef          	jal	768 <kf_bfly4>
    24c0:	0380006f          	j	24f8 <kf_work+0x228>
        case 5: kf_bfly5(Fout,fstride,st,m); break;
    24c4:	fe842683          	lw	a3,-24(s0)
    24c8:	fc842603          	lw	a2,-56(s0)
    24cc:	fd442583          	lw	a1,-44(s0)
    24d0:	fdc42503          	lw	a0,-36(s0)
    24d4:	eb5fe0ef          	jal	1388 <kf_bfly5>
    24d8:	0200006f          	j	24f8 <kf_work+0x228>
        default: kf_bfly_generic(Fout,fstride,st,m,p); break;
    24dc:	fe442703          	lw	a4,-28(s0)
    24e0:	fe842683          	lw	a3,-24(s0)
    24e4:	fc842603          	lw	a2,-56(s0)
    24e8:	fd442583          	lw	a1,-44(s0)
    24ec:	fdc42503          	lw	a0,-36(s0)
    24f0:	a39ff0ef          	jal	1f28 <kf_bfly_generic>
    24f4:	00000013          	nop
    }
}
    24f8:	00000013          	nop
    24fc:	03c12083          	lw	ra,60(sp)
    2500:	03812403          	lw	s0,56(sp)
    2504:	04010113          	add	sp,sp,64
    2508:	00008067          	ret

0000250c <kf_factor>:
    where
    p[i] * m[i] = m[i-1]
    m0 = n                  */
static
void kf_factor(int n,int * facbuf)
{
    250c:	fd010113          	add	sp,sp,-48
    2510:	02112623          	sw	ra,44(sp)
    2514:	02812423          	sw	s0,40(sp)
    2518:	03010413          	add	s0,sp,48
    251c:	fca42e23          	sw	a0,-36(s0)
    2520:	fcb42c23          	sw	a1,-40(s0)
    int p=4;
    2524:	00400793          	li	a5,4
    2528:	fef42223          	sw	a5,-28(s0)
    double floor_sqrt;
    floor_sqrt = floor( sqrt((double)n) );
    252c:	fdc42503          	lw	a0,-36(s0)
    2530:	60c110ef          	jal	13b3c <__floatsidf>
    2534:	00050713          	mv	a4,a0
    2538:	00058793          	mv	a5,a1
    253c:	00070513          	mv	a0,a4
    2540:	00078593          	mv	a1,a5
    2544:	775150ef          	jal	184b8 <sqrt>
    2548:	00050713          	mv	a4,a0
    254c:	00058793          	mv	a5,a1
    2550:	00070513          	mv	a0,a4
    2554:	00078593          	mv	a1,a5
    2558:	114160ef          	jal	1866c <floor>
    255c:	fea42423          	sw	a0,-24(s0)
    2560:	feb42623          	sw	a1,-20(s0)

    /*factor out powers of 4, powers of 2, then any remaining primes */
    do {
        while (n % p) {
    2564:	07c0006f          	j	25e0 <kf_factor+0xd4>
            switch (p) {
    2568:	fe442703          	lw	a4,-28(s0)
    256c:	00200793          	li	a5,2
    2570:	00f70e63          	beq	a4,a5,258c <kf_factor+0x80>
    2574:	fe442703          	lw	a4,-28(s0)
    2578:	00400793          	li	a5,4
    257c:	00f71e63          	bne	a4,a5,2598 <kf_factor+0x8c>
                case 4: p = 2; break;
    2580:	00200793          	li	a5,2
    2584:	fef42223          	sw	a5,-28(s0)
    2588:	0200006f          	j	25a8 <kf_factor+0x9c>
                case 2: p = 3; break;
    258c:	00300793          	li	a5,3
    2590:	fef42223          	sw	a5,-28(s0)
    2594:	0140006f          	j	25a8 <kf_factor+0x9c>
                default: p += 2; break;
    2598:	fe442783          	lw	a5,-28(s0)
    259c:	00278793          	add	a5,a5,2
    25a0:	fef42223          	sw	a5,-28(s0)
    25a4:	00000013          	nop
            }
            if (p > floor_sqrt)
    25a8:	fe442503          	lw	a0,-28(s0)
    25ac:	590110ef          	jal	13b3c <__floatsidf>
    25b0:	00050713          	mv	a4,a0
    25b4:	00058793          	mv	a5,a1
    25b8:	00070613          	mv	a2,a4
    25bc:	00078693          	mv	a3,a5
    25c0:	fe842503          	lw	a0,-24(s0)
    25c4:	fec42583          	lw	a1,-20(s0)
    25c8:	350100ef          	jal	12918 <__ledf2>
    25cc:	00050793          	mv	a5,a0
    25d0:	0007c463          	bltz	a5,25d8 <kf_factor+0xcc>
    25d4:	00c0006f          	j	25e0 <kf_factor+0xd4>
                p = n;          /* no more factors, skip to end */
    25d8:	fdc42783          	lw	a5,-36(s0)
    25dc:	fef42223          	sw	a5,-28(s0)
        while (n % p) {
    25e0:	fdc42783          	lw	a5,-36(s0)
    25e4:	fe442583          	lw	a1,-28(s0)
    25e8:	00078513          	mv	a0,a5
    25ec:	615150ef          	jal	18400 <__modsi3>
    25f0:	00050793          	mv	a5,a0
    25f4:	f6079ae3          	bnez	a5,2568 <kf_factor+0x5c>
        }
        n /= p;
    25f8:	fe442583          	lw	a1,-28(s0)
    25fc:	fdc42503          	lw	a0,-36(s0)
    2600:	57d150ef          	jal	1837c <__divsi3>
    2604:	00050793          	mv	a5,a0
    2608:	fcf42e23          	sw	a5,-36(s0)
        *facbuf++ = p;
    260c:	fd842783          	lw	a5,-40(s0)
    2610:	00478713          	add	a4,a5,4
    2614:	fce42c23          	sw	a4,-40(s0)
    2618:	fe442703          	lw	a4,-28(s0)
    261c:	00e7a023          	sw	a4,0(a5)
        *facbuf++ = n;
    2620:	fd842783          	lw	a5,-40(s0)
    2624:	00478713          	add	a4,a5,4
    2628:	fce42c23          	sw	a4,-40(s0)
    262c:	fdc42703          	lw	a4,-36(s0)
    2630:	00e7a023          	sw	a4,0(a5)
    } while (n > 1);
    2634:	fdc42703          	lw	a4,-36(s0)
    2638:	00100793          	li	a5,1
    263c:	fae7c2e3          	blt	a5,a4,25e0 <kf_factor+0xd4>
}
    2640:	00000013          	nop
    2644:	00000013          	nop
    2648:	02c12083          	lw	ra,44(sp)
    264c:	02812403          	lw	s0,40(sp)
    2650:	03010113          	add	sp,sp,48
    2654:	00008067          	ret

00002658 <kiss_fft_alloc>:
 *
 * The return value is a contiguous block of memory, allocated with malloc.  As such,
 * It can be freed with free(), rather than a kiss_fft-specific function.
 * */
kiss_fft_cfg kiss_fft_alloc(int nfft,int inverse_fft,void * mem,size_t * lenmem )
{
    2658:	fb010113          	add	sp,sp,-80
    265c:	04112623          	sw	ra,76(sp)
    2660:	04812423          	sw	s0,72(sp)
    2664:	04912223          	sw	s1,68(sp)
    2668:	05212023          	sw	s2,64(sp)
    266c:	03312e23          	sw	s3,60(sp)
    2670:	03412c23          	sw	s4,56(sp)
    2674:	03512a23          	sw	s5,52(sp)
    2678:	05010413          	add	s0,sp,80
    267c:	faa42e23          	sw	a0,-68(s0)
    2680:	fab42c23          	sw	a1,-72(s0)
    2684:	fac42a23          	sw	a2,-76(s0)
    2688:	fad42823          	sw	a3,-80(s0)
    KISS_FFT_ALIGN_CHECK(mem)

    kiss_fft_cfg st=NULL;
    268c:	fc042223          	sw	zero,-60(s0)
    size_t memneeded = KISS_FFT_ALIGN_SIZE_UP(sizeof(struct kiss_fft_state)
    2690:	fbc42783          	lw	a5,-68(s0)
    2694:	02178793          	add	a5,a5,33
    2698:	00379793          	sll	a5,a5,0x3
    269c:	fcf42623          	sw	a5,-52(s0)
        + sizeof(kiss_fft_cpx)*(nfft-1)); /* twiddle factors*/

    if ( lenmem==NULL ) {
    26a0:	fb042783          	lw	a5,-80(s0)
    26a4:	00079c63          	bnez	a5,26bc <kiss_fft_alloc+0x64>
        st = ( kiss_fft_cfg)KISS_FFT_MALLOC( memneeded );
    26a8:	fcc42503          	lw	a0,-52(s0)
    26ac:	4c5020ef          	jal	5370 <malloc>
    26b0:	00050793          	mv	a5,a0
    26b4:	fcf42223          	sw	a5,-60(s0)
    26b8:	0300006f          	j	26e8 <kiss_fft_alloc+0x90>
    }else{
        if (mem != NULL && *lenmem >= memneeded)
    26bc:	fb442783          	lw	a5,-76(s0)
    26c0:	00078e63          	beqz	a5,26dc <kiss_fft_alloc+0x84>
    26c4:	fb042783          	lw	a5,-80(s0)
    26c8:	0007a783          	lw	a5,0(a5)
    26cc:	fcc42703          	lw	a4,-52(s0)
    26d0:	00e7e663          	bltu	a5,a4,26dc <kiss_fft_alloc+0x84>
            st = (kiss_fft_cfg)mem;
    26d4:	fb442783          	lw	a5,-76(s0)
    26d8:	fcf42223          	sw	a5,-60(s0)
        *lenmem = memneeded;
    26dc:	fb042783          	lw	a5,-80(s0)
    26e0:	fcc42703          	lw	a4,-52(s0)
    26e4:	00e7a023          	sw	a4,0(a5)
    }
    if (st) {
    26e8:	fc442783          	lw	a5,-60(s0)
    26ec:	18078863          	beqz	a5,287c <kiss_fft_alloc+0x224>
        int i;
        st->nfft=nfft;
    26f0:	fc442783          	lw	a5,-60(s0)
    26f4:	fbc42703          	lw	a4,-68(s0)
    26f8:	00e7a023          	sw	a4,0(a5)
        st->inverse = inverse_fft;
    26fc:	fc442783          	lw	a5,-60(s0)
    2700:	fb842703          	lw	a4,-72(s0)
    2704:	00e7a223          	sw	a4,4(a5)

        for (i=0;i<nfft;++i) {
    2708:	fc042423          	sw	zero,-56(s0)
    270c:	1500006f          	j	285c <kiss_fft_alloc+0x204>
            const double pi=3.141592653589793238462643383279502884197169399375105820974944;
    2710:	0001c7b7          	lui	a5,0x1c
    2714:	dd07a703          	lw	a4,-560(a5) # 1bdd0 <__flash_rodata_start+0x250>
    2718:	dd47a783          	lw	a5,-556(a5)
    271c:	fce42c23          	sw	a4,-40(s0)
    2720:	fcf42e23          	sw	a5,-36(s0)
            double phase = -2*pi*i / nfft;
    2724:	0001c7b7          	lui	a5,0x1c
    2728:	dd87a603          	lw	a2,-552(a5) # 1bdd8 <__flash_rodata_start+0x258>
    272c:	ddc7a683          	lw	a3,-548(a5)
    2730:	fd842503          	lw	a0,-40(s0)
    2734:	fdc42583          	lw	a1,-36(s0)
    2738:	2e8100ef          	jal	12a20 <__muldf3>
    273c:	00050713          	mv	a4,a0
    2740:	00058793          	mv	a5,a1
    2744:	00070a13          	mv	s4,a4
    2748:	00078a93          	mv	s5,a5
    274c:	fc842503          	lw	a0,-56(s0)
    2750:	3ec110ef          	jal	13b3c <__floatsidf>
    2754:	00050713          	mv	a4,a0
    2758:	00058793          	mv	a5,a1
    275c:	00070613          	mv	a2,a4
    2760:	00078693          	mv	a3,a5
    2764:	000a0513          	mv	a0,s4
    2768:	000a8593          	mv	a1,s5
    276c:	2b4100ef          	jal	12a20 <__muldf3>
    2770:	00050713          	mv	a4,a0
    2774:	00058793          	mv	a5,a1
    2778:	00070a13          	mv	s4,a4
    277c:	00078a93          	mv	s5,a5
    2780:	fbc42503          	lw	a0,-68(s0)
    2784:	3b8110ef          	jal	13b3c <__floatsidf>
    2788:	00050713          	mv	a4,a0
    278c:	00058793          	mv	a5,a1
    2790:	00070613          	mv	a2,a4
    2794:	00078693          	mv	a3,a5
    2798:	000a0513          	mv	a0,s4
    279c:	000a8593          	mv	a1,s5
    27a0:	7440f0ef          	jal	11ee4 <__divdf3>
    27a4:	00050713          	mv	a4,a0
    27a8:	00058793          	mv	a5,a1
    27ac:	fce42823          	sw	a4,-48(s0)
    27b0:	fcf42a23          	sw	a5,-44(s0)
            if (st->inverse)
    27b4:	fc442783          	lw	a5,-60(s0)
    27b8:	0047a783          	lw	a5,4(a5)
    27bc:	00078e63          	beqz	a5,27d8 <kiss_fft_alloc+0x180>
                phase *= -1;
    27c0:	fd042903          	lw	s2,-48(s0)
    27c4:	fd442703          	lw	a4,-44(s0)
    27c8:	800007b7          	lui	a5,0x80000
    27cc:	00f749b3          	xor	s3,a4,a5
    27d0:	fd242823          	sw	s2,-48(s0)
    27d4:	fd342a23          	sw	s3,-44(s0)
            kf_cexp(st->twiddles+i, phase );
    27d8:	fd042503          	lw	a0,-48(s0)
    27dc:	fd442583          	lw	a1,-44(s0)
    27e0:	585150ef          	jal	18564 <cos>
    27e4:	00050713          	mv	a4,a0
    27e8:	00058793          	mv	a5,a1
    27ec:	fc442683          	lw	a3,-60(s0)
    27f0:	10868613          	add	a2,a3,264
    27f4:	fc842683          	lw	a3,-56(s0)
    27f8:	00369693          	sll	a3,a3,0x3
    27fc:	00d604b3          	add	s1,a2,a3
    2800:	00070513          	mv	a0,a4
    2804:	00078593          	mv	a1,a5
    2808:	191150ef          	jal	18198 <__truncdfsf2>
    280c:	00050793          	mv	a5,a0
    2810:	00f4a023          	sw	a5,0(s1)
    2814:	fd042503          	lw	a0,-48(s0)
    2818:	fd442583          	lw	a1,-44(s0)
    281c:	75c160ef          	jal	18f78 <sin>
    2820:	00050713          	mv	a4,a0
    2824:	00058793          	mv	a5,a1
    2828:	fc442683          	lw	a3,-60(s0)
    282c:	10868613          	add	a2,a3,264
    2830:	fc842683          	lw	a3,-56(s0)
    2834:	00369693          	sll	a3,a3,0x3
    2838:	00d604b3          	add	s1,a2,a3
    283c:	00070513          	mv	a0,a4
    2840:	00078593          	mv	a1,a5
    2844:	155150ef          	jal	18198 <__truncdfsf2>
    2848:	00050793          	mv	a5,a0
    284c:	00f4a223          	sw	a5,4(s1)
        for (i=0;i<nfft;++i) {
    2850:	fc842783          	lw	a5,-56(s0)
    2854:	00178793          	add	a5,a5,1 # 80000001 <__alt_data_end+0x7ffc4001>
    2858:	fcf42423          	sw	a5,-56(s0)
    285c:	fc842703          	lw	a4,-56(s0)
    2860:	fbc42783          	lw	a5,-68(s0)
    2864:	eaf746e3          	blt	a4,a5,2710 <kiss_fft_alloc+0xb8>
        }

        kf_factor(nfft,st->factors);
    2868:	fc442783          	lw	a5,-60(s0)
    286c:	00878793          	add	a5,a5,8
    2870:	00078593          	mv	a1,a5
    2874:	fbc42503          	lw	a0,-68(s0)
    2878:	c95ff0ef          	jal	250c <kf_factor>
    }
    return st;
    287c:	fc442783          	lw	a5,-60(s0)
}
    2880:	00078513          	mv	a0,a5
    2884:	04c12083          	lw	ra,76(sp)
    2888:	04812403          	lw	s0,72(sp)
    288c:	04412483          	lw	s1,68(sp)
    2890:	04012903          	lw	s2,64(sp)
    2894:	03c12983          	lw	s3,60(sp)
    2898:	03812a03          	lw	s4,56(sp)
    289c:	03412a83          	lw	s5,52(sp)
    28a0:	05010113          	add	sp,sp,80
    28a4:	00008067          	ret

000028a8 <kiss_fft_stride>:


void kiss_fft_stride(kiss_fft_cfg st,const kiss_fft_cpx *fin,kiss_fft_cpx *fout,int in_stride)
{
    28a8:	fd010113          	add	sp,sp,-48
    28ac:	02112623          	sw	ra,44(sp)
    28b0:	02812423          	sw	s0,40(sp)
    28b4:	03010413          	add	s0,sp,48
    28b8:	fca42e23          	sw	a0,-36(s0)
    28bc:	fcb42c23          	sw	a1,-40(s0)
    28c0:	fcc42a23          	sw	a2,-44(s0)
    28c4:	fcd42823          	sw	a3,-48(s0)
    if (fin == fout) {
    28c8:	fd842703          	lw	a4,-40(s0)
    28cc:	fd442783          	lw	a5,-44(s0)
    28d0:	12f71463          	bne	a4,a5,29f8 <kiss_fft_stride+0x150>
        //NOTE: this is not really an in-place FFT algorithm.
        //It just performs an out-of-place FFT into a temp buffer
        if (fout == NULL){
    28d4:	fd442783          	lw	a5,-44(s0)
    28d8:	04079e63          	bnez	a5,2934 <kiss_fft_stride+0x8c>
            KISS_FFT_ERROR("fout buffer NULL.");
    28dc:	8201a783          	lw	a5,-2016(gp) # 1e300 <_impure_ptr>
    28e0:	00c7a783          	lw	a5,12(a5)
    28e4:	00078693          	mv	a3,a5
    28e8:	07200613          	li	a2,114
    28ec:	00100593          	li	a1,1
    28f0:	0001c7b7          	lui	a5,0x1c
    28f4:	cb078513          	add	a0,a5,-848 # 1bcb0 <__flash_rodata_start+0x130>
    28f8:	618030ef          	jal	5f10 <fwrite>
    28fc:	8201a783          	lw	a5,-2016(gp) # 1e300 <_impure_ptr>
    2900:	00c7a783          	lw	a5,12(a5)
    2904:	00078693          	mv	a3,a5
    2908:	01100613          	li	a2,17
    290c:	00100593          	li	a1,1
    2910:	0001c7b7          	lui	a5,0x1c
    2914:	d2478513          	add	a0,a5,-732 # 1bd24 <__flash_rodata_start+0x1a4>
    2918:	5f8030ef          	jal	5f10 <fwrite>
    291c:	8201a783          	lw	a5,-2016(gp) # 1e300 <_impure_ptr>
    2920:	00c7a783          	lw	a5,12(a5)
    2924:	00078593          	mv	a1,a5
    2928:	00a00513          	li	a0,10
    292c:	638020ef          	jal	4f64 <fputc>
        return;
    2930:	0e80006f          	j	2a18 <kiss_fft_stride+0x170>
        }

        kiss_fft_cpx * tmpbuf = (kiss_fft_cpx*)KISS_FFT_TMP_ALLOC( sizeof(kiss_fft_cpx)*st->nfft);
    2934:	fdc42783          	lw	a5,-36(s0)
    2938:	0007a783          	lw	a5,0(a5)
    293c:	00379793          	sll	a5,a5,0x3
    2940:	00078513          	mv	a0,a5
    2944:	22d020ef          	jal	5370 <malloc>
    2948:	00050793          	mv	a5,a0
    294c:	fef42623          	sw	a5,-20(s0)
        if (tmpbuf == NULL){
    2950:	fec42783          	lw	a5,-20(s0)
    2954:	04079e63          	bnez	a5,29b0 <kiss_fft_stride+0x108>
            KISS_FFT_ERROR("Memory allocation error.");
    2958:	8201a783          	lw	a5,-2016(gp) # 1e300 <_impure_ptr>
    295c:	00c7a783          	lw	a5,12(a5)
    2960:	00078693          	mv	a3,a5
    2964:	07200613          	li	a2,114
    2968:	00100593          	li	a1,1
    296c:	0001c7b7          	lui	a5,0x1c
    2970:	d3878513          	add	a0,a5,-712 # 1bd38 <__flash_rodata_start+0x1b8>
    2974:	59c030ef          	jal	5f10 <fwrite>
    2978:	8201a783          	lw	a5,-2016(gp) # 1e300 <_impure_ptr>
    297c:	00c7a783          	lw	a5,12(a5)
    2980:	00078693          	mv	a3,a5
    2984:	01800613          	li	a2,24
    2988:	00100593          	li	a1,1
    298c:	0001c7b7          	lui	a5,0x1c
    2990:	dac78513          	add	a0,a5,-596 # 1bdac <__flash_rodata_start+0x22c>
    2994:	57c030ef          	jal	5f10 <fwrite>
    2998:	8201a783          	lw	a5,-2016(gp) # 1e300 <_impure_ptr>
    299c:	00c7a783          	lw	a5,12(a5)
    29a0:	00078593          	mv	a1,a5
    29a4:	00a00513          	li	a0,10
    29a8:	5bc020ef          	jal	4f64 <fputc>
        return;
    29ac:	06c0006f          	j	2a18 <kiss_fft_stride+0x170>
        }



        kf_work(tmpbuf,fin,1,in_stride, st->factors,st);
    29b0:	fdc42783          	lw	a5,-36(s0)
    29b4:	00878713          	add	a4,a5,8
    29b8:	fdc42783          	lw	a5,-36(s0)
    29bc:	fd042683          	lw	a3,-48(s0)
    29c0:	00100613          	li	a2,1
    29c4:	fd842583          	lw	a1,-40(s0)
    29c8:	fec42503          	lw	a0,-20(s0)
    29cc:	905ff0ef          	jal	22d0 <kf_work>
        memcpy(fout,tmpbuf,sizeof(kiss_fft_cpx)*st->nfft);
    29d0:	fdc42783          	lw	a5,-36(s0)
    29d4:	0007a783          	lw	a5,0(a5)
    29d8:	00379793          	sll	a5,a5,0x3
    29dc:	00078613          	mv	a2,a5
    29e0:	fec42583          	lw	a1,-20(s0)
    29e4:	fd442503          	lw	a0,-44(s0)
    29e8:	2cd030ef          	jal	64b4 <memcpy>
        KISS_FFT_TMP_FREE(tmpbuf);
    29ec:	fec42503          	lw	a0,-20(s0)
    29f0:	18d020ef          	jal	537c <free>
    29f4:	0240006f          	j	2a18 <kiss_fft_stride+0x170>
    }else{
        kf_work( fout, fin, 1,in_stride, st->factors,st );
    29f8:	fdc42783          	lw	a5,-36(s0)
    29fc:	00878713          	add	a4,a5,8
    2a00:	fdc42783          	lw	a5,-36(s0)
    2a04:	fd042683          	lw	a3,-48(s0)
    2a08:	00100613          	li	a2,1
    2a0c:	fd842583          	lw	a1,-40(s0)
    2a10:	fd442503          	lw	a0,-44(s0)
    2a14:	8bdff0ef          	jal	22d0 <kf_work>
    }
}
    2a18:	02c12083          	lw	ra,44(sp)
    2a1c:	02812403          	lw	s0,40(sp)
    2a20:	03010113          	add	sp,sp,48
    2a24:	00008067          	ret

00002a28 <kiss_fft>:

void kiss_fft(kiss_fft_cfg cfg,const kiss_fft_cpx *fin,kiss_fft_cpx *fout)
{
    2a28:	fe010113          	add	sp,sp,-32
    2a2c:	00112e23          	sw	ra,28(sp)
    2a30:	00812c23          	sw	s0,24(sp)
    2a34:	02010413          	add	s0,sp,32
    2a38:	fea42623          	sw	a0,-20(s0)
    2a3c:	feb42423          	sw	a1,-24(s0)
    2a40:	fec42223          	sw	a2,-28(s0)
    kiss_fft_stride(cfg,fin,fout,1);
    2a44:	00100693          	li	a3,1
    2a48:	fe442603          	lw	a2,-28(s0)
    2a4c:	fe842583          	lw	a1,-24(s0)
    2a50:	fec42503          	lw	a0,-20(s0)
    2a54:	e55ff0ef          	jal	28a8 <kiss_fft_stride>
}
    2a58:	00000013          	nop
    2a5c:	01c12083          	lw	ra,28(sp)
    2a60:	01812403          	lw	s0,24(sp)
    2a64:	02010113          	add	sp,sp,32
    2a68:	00008067          	ret

00002a6c <kiss_fft_cleanup>:


void kiss_fft_cleanup(void)
{
    2a6c:	ff010113          	add	sp,sp,-16
    2a70:	00812623          	sw	s0,12(sp)
    2a74:	01010413          	add	s0,sp,16
    // nothing needed any more
}
    2a78:	00000013          	nop
    2a7c:	00c12403          	lw	s0,12(sp)
    2a80:	01010113          	add	sp,sp,16
    2a84:	00008067          	ret

00002a88 <kiss_fft_next_fast_size>:

int kiss_fft_next_fast_size(int n)
{
    2a88:	fd010113          	add	sp,sp,-48
    2a8c:	02112623          	sw	ra,44(sp)
    2a90:	02812423          	sw	s0,40(sp)
    2a94:	03010413          	add	s0,sp,48
    2a98:	fca42e23          	sw	a0,-36(s0)
    while(1) {
        int m=n;
    2a9c:	fdc42783          	lw	a5,-36(s0)
    2aa0:	fef42623          	sw	a5,-20(s0)
        while ( (m%2) == 0 ) m/=2;
    2aa4:	0180006f          	j	2abc <kiss_fft_next_fast_size+0x34>
    2aa8:	fec42783          	lw	a5,-20(s0)
    2aac:	01f7d713          	srl	a4,a5,0x1f
    2ab0:	00f707b3          	add	a5,a4,a5
    2ab4:	4017d793          	sra	a5,a5,0x1
    2ab8:	fef42623          	sw	a5,-20(s0)
    2abc:	fec42783          	lw	a5,-20(s0)
    2ac0:	0017f793          	and	a5,a5,1
    2ac4:	fe0782e3          	beqz	a5,2aa8 <kiss_fft_next_fast_size+0x20>
        while ( (m%3) == 0 ) m/=3;
    2ac8:	01c0006f          	j	2ae4 <kiss_fft_next_fast_size+0x5c>
    2acc:	fec42783          	lw	a5,-20(s0)
    2ad0:	00300593          	li	a1,3
    2ad4:	00078513          	mv	a0,a5
    2ad8:	0a5150ef          	jal	1837c <__divsi3>
    2adc:	00050793          	mv	a5,a0
    2ae0:	fef42623          	sw	a5,-20(s0)
    2ae4:	fec42783          	lw	a5,-20(s0)
    2ae8:	00300593          	li	a1,3
    2aec:	00078513          	mv	a0,a5
    2af0:	111150ef          	jal	18400 <__modsi3>
    2af4:	00050793          	mv	a5,a0
    2af8:	fc078ae3          	beqz	a5,2acc <kiss_fft_next_fast_size+0x44>
        while ( (m%5) == 0 ) m/=5;
    2afc:	01c0006f          	j	2b18 <kiss_fft_next_fast_size+0x90>
    2b00:	fec42783          	lw	a5,-20(s0)
    2b04:	00500593          	li	a1,5
    2b08:	00078513          	mv	a0,a5
    2b0c:	071150ef          	jal	1837c <__divsi3>
    2b10:	00050793          	mv	a5,a0
    2b14:	fef42623          	sw	a5,-20(s0)
    2b18:	fec42783          	lw	a5,-20(s0)
    2b1c:	00500593          	li	a1,5
    2b20:	00078513          	mv	a0,a5
    2b24:	0dd150ef          	jal	18400 <__modsi3>
    2b28:	00050793          	mv	a5,a0
    2b2c:	fc078ae3          	beqz	a5,2b00 <kiss_fft_next_fast_size+0x78>
        if (m<=1)
    2b30:	fec42703          	lw	a4,-20(s0)
    2b34:	00100793          	li	a5,1
    2b38:	00e7da63          	bge	a5,a4,2b4c <kiss_fft_next_fast_size+0xc4>
            break; /* n is completely factorable by twos, threes, and fives */
        n++;
    2b3c:	fdc42783          	lw	a5,-36(s0)
    2b40:	00178793          	add	a5,a5,1
    2b44:	fcf42e23          	sw	a5,-36(s0)
    while(1) {
    2b48:	f55ff06f          	j	2a9c <kiss_fft_next_fast_size+0x14>
            break; /* n is completely factorable by twos, threes, and fives */
    2b4c:	00000013          	nop
    }
    return n;
    2b50:	fdc42783          	lw	a5,-36(s0)
}
    2b54:	00078513          	mv	a0,a5
    2b58:	02c12083          	lw	ra,44(sp)
    2b5c:	02812403          	lw	s0,40(sp)
    2b60:	03010113          	add	sp,sp,48
    2b64:	00008067          	ret

00002b68 <_start>:
    .type _start, @function
_start:
#if ALT_CPU_HAS_CSR_SUPPORT
    /* assume that we are in machine mode on startup */
    /* setup trap to catch anything that goes wrong early in the boot process */
    la t0, trap_vector
    2b68:	ffffd297          	auipc	t0,0xffffd
    2b6c:	4b828293          	add	t0,t0,1208 # 20 <trap_vector>
    csrw mtvec, t0
    2b70:	30529073          	csrw	mtvec,t0

    /* disable all interrupt */
    li t0, 0x88
    2b74:	08800293          	li	t0,136
    csrc mstatus, t0
    2b78:	3002b073          	csrc	mstatus,t0
    csrw mie, zero
    2b7c:	30401073          	csrw	mie,zero
    csrw mip, zero
    2b80:	34401073          	csrw	mip,zero
#endif /* Initialize Data Cache */
#endif /* ALT_SIM_OPTIMIZE */

    .option push
    .option norelax
    la gp, __global_pointer$
    2b84:	0001c197          	auipc	gp,0x1c
    2b88:	f5c18193          	add	gp,gp,-164 # 1eae0 <__global_pointer$>

    /*
     * Now that the caches are initialized, set up the stack pointer and global pointer.
     * The values provided by the linker are assumed to be correctly aligned.
     */
    la sp, __alt_stack_pointer
    2b8c:	00039117          	auipc	sp,0x39
    2b90:	47410113          	add	sp,sp,1140 # 3c000 <__alt_data_end>
    /* Log that the BSS is about to be cleared. */
#ifdef ALT_LOG_ENABLE
    ALT_LOG_PUTS(alt_log_msg_bss)
#endif /* ALT_LOG_ENABLE */

    la t1, __bss_start
    2b94:	0001d317          	auipc	t1,0x1d
    2b98:	05c30313          	add	t1,t1,92 # 1fbf0 <alt_niosv_software_interrupt_handler>
    la t2, __bss_end
    2b9c:	0001d397          	auipc	t2,0x1d
    2ba0:	43438393          	add	t2,t2,1076 # 1ffd0 <__alt_heap_start>
0:
    sw zero, (t1)
    2ba4:	00032023          	sw	zero,0(t1)
    addi t1, t1, 4
    2ba8:	00430313          	add	t1,t1,4
    bltu t1, t2, 0b
    2bac:	fe736ce3          	bltu	t1,t2,2ba4 <_start+0x3c>
/*
 * The alt_load() facility is normally used when there is no bootloader.
 * It copies some sections into RAM so it acts like a mini-bootloader.
 */
#ifdef CALL_ALT_LOAD
    call alt_load
    2bb0:	0c8000ef          	jal	2c78 <alt_load>
 */
#ifndef ALT_SIM_OPTIMIZE
.globl __tbss_start
.globl __tbss_end

    la t1, __tbss_start
    2bb4:	0001a317          	auipc	t1,0x1a
    2bb8:	e8430313          	add	t1,t1,-380 # 1ca38 <JTAG_UART>
    la t2, __tbss_end
    2bbc:	0001a397          	auipc	t2,0x1a
    2bc0:	e7c38393          	add	t2,t2,-388 # 1ca38 <JTAG_UART>
    
    // Check if we need to skip this (if .tbss is empty)
    bgeu t1, t2, 1f
    2bc4:	00737863          	bgeu	t1,t2,2bd4 <_start+0x6c>
0:
    sw zero, (t1)
    2bc8:	00032023          	sw	zero,0(t1)
    addi t1, t1, 4
    2bcc:	00430313          	add	t1,t1,4
    bltu t1, t2, 0b
    2bd0:	fe736ce3          	bltu	t1,t2,2bc8 <_start+0x60>
// Copy tdata to tdata golden source location
.globl __tdata_start
.globl __tdata_end
.globl __tdata_source

    la t0, __tdata_start
    2bd4:	0001a297          	auipc	t0,0x1a
    2bd8:	e6428293          	add	t0,t0,-412 # 1ca38 <JTAG_UART>
    la t1, __tdata_end
    2bdc:	0001a317          	auipc	t1,0x1a
    2be0:	e5c30313          	add	t1,t1,-420 # 1ca38 <JTAG_UART>
    la t2, __tdata_source
    2be4:	0001a397          	auipc	t2,0x1a
    2be8:	e5438393          	add	t2,t2,-428 # 1ca38 <JTAG_UART>

    // Check if we need to skip this (if .tdata is empty)
    bgeu t0, t1, 1f
    2bec:	0062fc63          	bgeu	t0,t1,2c04 <_start+0x9c>
0:
    lw s1, (t0)
    2bf0:	0002a483          	lw	s1,0(t0)
    sw s1, (t2)
    2bf4:	0093a023          	sw	s1,0(t2)
    addi t0, t0, 4
    2bf8:	00428293          	add	t0,t0,4
    addi t2, t2, 4
    2bfc:	00438393          	add	t2,t2,4
    bltu t0, t1, 0b
    2c00:	fe62e8e3          	bltu	t0,t1,2bf0 <_start+0x88>
1:

// Assign thread pointer register (tp) to main thread tls base
.globl __tls_base
    la tp, __tls_base
    2c04:	0001a217          	auipc	tp,0x1a
    2c08:	e3420213          	add	tp,tp,-460 # 1ca38 <JTAG_UART>
#ifdef ALT_LOG_ENABLE
    ALT_LOG_PUTS(alt_log_msg_alt_main)
#endif /* ALT_LOG_ENABLE */

    /* Call the C entry point. It should never return. */
    call alt_main
    2c0c:	0e0000ef          	jal	2cec <alt_main>

00002c10 <alt_after_alt_main>:

    /* Wait in infinite loop in case alt_main does return. */
alt_after_alt_main:
    j alt_after_alt_main
    2c10:	0000006f          	j	2c10 <alt_after_alt_main>

00002c14 <alt_load_section>:
    2c14:	fe010113          	add	sp,sp,-32
    2c18:	00812e23          	sw	s0,28(sp)
 */  

void alt_load (void)
{
  /* 
   * Copy the .rwdata section. 
    2c1c:	02010413          	add	s0,sp,32
    2c20:	fea42623          	sw	a0,-20(s0)
    2c24:	feb42423          	sw	a1,-24(s0)
    2c28:	fec42223          	sw	a2,-28(s0)
   */
    2c2c:	fe842703          	lw	a4,-24(s0)
    2c30:	fec42783          	lw	a5,-20(s0)
    2c34:	02f70a63          	beq	a4,a5,2c68 <alt_load_section+0x54>

  alt_load_section (&__flash_rwdata_start, 
    2c38:	0240006f          	j	2c5c <alt_load_section+0x48>
		               &__ram_rwdata_start,
		               &__ram_rwdata_end);
    2c3c:	fec42703          	lw	a4,-20(s0)
    2c40:	00470793          	add	a5,a4,4
    2c44:	fef42623          	sw	a5,-20(s0)
    2c48:	fe842783          	lw	a5,-24(s0)
    2c4c:	00478693          	add	a3,a5,4
    2c50:	fed42423          	sw	a3,-24(s0)
    2c54:	00072703          	lw	a4,0(a4)
    2c58:	00e7a023          	sw	a4,0(a5)
  alt_load_section (&__flash_rwdata_start, 
    2c5c:	fe842703          	lw	a4,-24(s0)
    2c60:	fe442783          	lw	a5,-28(s0)
    2c64:	fcf71ce3          	bne	a4,a5,2c3c <alt_load_section+0x28>

  /*
   * Copy the exception handler.
    2c68:	00000013          	nop
    2c6c:	01c12403          	lw	s0,28(sp)
    2c70:	02010113          	add	sp,sp,32
    2c74:	00008067          	ret

00002c78 <alt_load>:
{
    2c78:	ff010113          	add	sp,sp,-16
    2c7c:	00112623          	sw	ra,12(sp)
    2c80:	00812423          	sw	s0,8(sp)
    2c84:	01010413          	add	s0,sp,16
  alt_load_section (&__flash_rwdata_start, 
    2c88:	0001e7b7          	lui	a5,0x1e
    2c8c:	31478613          	add	a2,a5,788 # 1e314 <__flash_rwdata_start>
    2c90:	0001d7b7          	lui	a5,0x1d
    2c94:	a3878593          	add	a1,a5,-1480 # 1ca38 <JTAG_UART>
    2c98:	0001e7b7          	lui	a5,0x1e
    2c9c:	31478513          	add	a0,a5,788 # 1e314 <__flash_rwdata_start>
    2ca0:	f75ff0ef          	jal	2c14 <alt_load_section>
   */

  alt_load_section (&__flash_exceptions_start, 
    2ca4:	31400613          	li	a2,788
    2ca8:	02000593          	li	a1,32
    2cac:	02000513          	li	a0,32
    2cb0:	f65ff0ef          	jal	2c14 <alt_load_section>

  /*
   * Copy the .rodata section.
   */

  alt_load_section (&__flash_rodata_start, 
    2cb4:	0001d7b7          	lui	a5,0x1d
    2cb8:	a3878613          	add	a2,a5,-1480 # 1ca38 <JTAG_UART>
    2cbc:	0001c7b7          	lui	a5,0x1c
    2cc0:	b8078593          	add	a1,a5,-1152 # 1bb80 <__flash_rodata_start>
    2cc4:	0001c7b7          	lui	a5,0x1c
    2cc8:	b8078513          	add	a0,a5,-1152 # 1bb80 <__flash_rodata_start>
    2ccc:	f49ff0ef          	jal	2c14 <alt_load_section>
  
  /*
   * Now ensure that the caches are in synch.
   */
  
  alt_dcache_flush_all();
    2cd0:	080010ef          	jal	3d50 <alt_dcache_flush_all>
  alt_icache_flush_all();
    2cd4:	2ac010ef          	jal	3f80 <alt_icache_flush_all>
}
    2cd8:	00000013          	nop
    2cdc:	00c12083          	lw	ra,12(sp)
    2ce0:	00812403          	lw	s0,8(sp)
    2ce4:	01010113          	add	sp,sp,16
    2ce8:	00008067          	ret

00002cec <alt_main>:
 * devices/filesystems/components in the system; and call the entry point for
 * the users application, i.e. main().
 */

void alt_main (void)
{
    2cec:	fe010113          	add	sp,sp,-32
    2cf0:	00112e23          	sw	ra,28(sp)
    2cf4:	00812c23          	sw	s0,24(sp)
    2cf8:	02010413          	add	s0,sp,32
#endif

  /* ALT LOG - please see HAL/sys/alt_log_printf.h for details */
  ALT_LOG_PRINT_BOOT("[alt_main.c] Entering alt_main, calling alt_irq_init.\r\n");
  /* Initialize the interrupt controller. */
  alt_irq_init (NULL);
    2cfc:	00000513          	li	a0,0
    2d00:	074000ef          	jal	2d74 <alt_irq_init>

  /* Initialize the operating system */
  ALT_LOG_PRINT_BOOT("[alt_main.c] Done alt_irq_init, calling alt_os_init.\r\n");
  ALT_OS_INIT();
    2d04:	00000013          	nop
  ALT_LOG_PRINT_BOOT("[alt_main.c] Done OS Init, calling alt_sem_create.\r\n");
  ALT_SEM_CREATE (&alt_fd_list_lock, 1);

  /* Initialize the device drivers/software components. */
  ALT_LOG_PRINT_BOOT("[alt_main.c] Calling alt_sys_init.\r\n");
  alt_sys_init();
    2d08:	0a4000ef          	jal	2dac <alt_sys_init>
   * devices be present (not equal to /dev/null) and if direct drivers
   * aren't being used.
   */

    ALT_LOG_PRINT_BOOT("[alt_main.c] Redirecting IO.\r\n");
    alt_io_redirect(ALT_STDOUT, ALT_STDIN, ALT_STDERR);
    2d0c:	0001c7b7          	lui	a5,0x1c
    2d10:	de078613          	add	a2,a5,-544 # 1bde0 <__flash_rodata_start+0x260>
    2d14:	0001c7b7          	lui	a5,0x1c
    2d18:	de078593          	add	a1,a5,-544 # 1bde0 <__flash_rodata_start+0x260>
    2d1c:	0001c7b7          	lui	a5,0x1c
    2d20:	de078513          	add	a0,a5,-544 # 1bde0 <__flash_rodata_start+0x260>
    2d24:	524010ef          	jal	4248 <alt_io_redirect>
  /* 
   * Call the C++ constructors 
   */

  ALT_LOG_PRINT_BOOT("[alt_main.c] Calling C++ constructors.\r\n");
  _do_ctors ();
    2d28:	198010ef          	jal	3ec0 <_do_ctors>
   * redefined as _exit()). This is in the interest of reducing code footprint,
   * in that the atexit() overhead is removed when it's not needed.
   */

  ALT_LOG_PRINT_BOOT("[alt_main.c] Calling atexit.\r\n");
  atexit (_do_dtors);
    2d2c:	000047b7          	lui	a5,0x4
    2d30:	f2078513          	add	a0,a5,-224 # 3f20 <_do_dtors>
    2d34:	47c030ef          	jal	61b0 <atexit>
  ALT_LOG_PRINT_BOOT("[alt_main.c] Calling main.\r\n");

#ifdef ALT_NO_EXIT
  main (alt_argc, alt_argv, alt_envp);
#else
  result = main (alt_argc, alt_argv, alt_envp);
    2d38:	000207b7          	lui	a5,0x20
    2d3c:	bf87a703          	lw	a4,-1032(a5) # 1fbf8 <alt_argc>
    2d40:	000207b7          	lui	a5,0x20
    2d44:	bfc7a683          	lw	a3,-1028(a5) # 1fbfc <alt_argv>
    2d48:	000207b7          	lui	a5,0x20
    2d4c:	c007a783          	lw	a5,-1024(a5) # 1fc00 <alt_envp>
    2d50:	00078613          	mv	a2,a5
    2d54:	00068593          	mv	a1,a3
    2d58:	00070513          	mv	a0,a4
    2d5c:	db8fd0ef          	jal	314 <main>
    2d60:	fea42623          	sw	a0,-20(s0)
  close(STDOUT_FILENO);
    2d64:	00100513          	li	a0,1
    2d68:	4e8030ef          	jal	6250 <close>
  exit (result);
    2d6c:	fec42503          	lw	a0,-20(s0)
    2d70:	05d010ef          	jal	45cc <exit>

00002d74 <alt_irq_init>:
 * The "base" parameter is ignored and only
 * present for backwards-compatibility.
 */

void alt_irq_init ( const void* base )
{
    2d74:	fe010113          	add	sp,sp,-32
    2d78:	00112e23          	sw	ra,28(sp)
    2d7c:	00812c23          	sw	s0,24(sp)
    2d80:	02010413          	add	s0,sp,32
    2d84:	fea42623          	sw	a0,-20(s0)
    INTEL_NIOSV_M_IRQ_INIT ( NIOSV, NiosV);
    2d88:	021010ef          	jal	45a8 <intel_niosv_irq_init>
    NIOSV_SET_CSR(NIOSV_MSTATUS_CSR, NIOSV_MSTATUS_MIE_MASK);
    2d8c:	00800793          	li	a5,8
    2d90:	3007a073          	csrs	mstatus,a5
}
    2d94:	00000013          	nop
    alt_irq_cpu_enable_interrupts();
}
    2d98:	00000013          	nop
    2d9c:	01c12083          	lw	ra,28(sp)
    2da0:	01812403          	lw	s0,24(sp)
    2da4:	02010113          	add	sp,sp,32
    2da8:	00008067          	ret

00002dac <alt_sys_init>:
 * Initialize the non-interrupt controller devices.
 * Called after alt_irq_init().
 */

void alt_sys_init( void )
{
    2dac:	ff010113          	add	sp,sp,-16
    2db0:	00112623          	sw	ra,12(sp)
    2db4:	00812423          	sw	s0,8(sp)
    2db8:	01010413          	add	s0,sp,16
    ALTERA_AVALON_TIMER_INIT ( TIMER_0, timer_0);
    2dbc:	3e800693          	li	a3,1000
    2dc0:	00100613          	li	a2,1
    2dc4:	00000593          	li	a1,0
    2dc8:	00050537          	lui	a0,0x50
    2dcc:	3ad000ef          	jal	3978 <alt_avalon_timer_sc_init>
    ALTERA_AVALON_JTAG_UART_INIT ( JTAG_UART, JTAG_UART);
    2dd0:	00000613          	li	a2,0
    2dd4:	00000593          	li	a1,0
    2dd8:	0001d7b7          	lui	a5,0x1d
    2ddc:	a6078513          	add	a0,a5,-1440 # 1ca60 <JTAG_UART+0x28>
    2de0:	198000ef          	jal	2f78 <altera_avalon_jtag_uart_init>
    2de4:	0001d7b7          	lui	a5,0x1d
    2de8:	a3878513          	add	a0,a5,-1480 # 1ca38 <JTAG_UART>
    2dec:	7ad000ef          	jal	3d98 <alt_dev_reg>
    INTEL_NIOSV_M_INIT ( NIOSV, NiosV);
}
    2df0:	00000013          	nop
    2df4:	00c12083          	lw	ra,12(sp)
    2df8:	00812403          	lw	s0,8(sp)
    2dfc:	01010113          	add	sp,sp,16
    2e00:	00008067          	ret

00002e04 <altera_avalon_jtag_uart_read_fd>:
 *
 */

int 
altera_avalon_jtag_uart_read_fd(alt_fd* fd, char* buffer, int space)
{
    2e04:	fd010113          	add	sp,sp,-48
    2e08:	02112623          	sw	ra,44(sp)
    2e0c:	02812423          	sw	s0,40(sp)
    2e10:	03010413          	add	s0,sp,48
    2e14:	fca42e23          	sw	a0,-36(s0)
    2e18:	fcb42c23          	sw	a1,-40(s0)
    2e1c:	fcc42a23          	sw	a2,-44(s0)
    altera_avalon_jtag_uart_dev* dev = (altera_avalon_jtag_uart_dev*) fd->dev; 
    2e20:	fdc42783          	lw	a5,-36(s0)
    2e24:	0007a783          	lw	a5,0(a5)
    2e28:	fef42623          	sw	a5,-20(s0)

    return altera_avalon_jtag_uart_read(&dev->state, buffer, space,
    2e2c:	fec42783          	lw	a5,-20(s0)
    2e30:	02878713          	add	a4,a5,40
    2e34:	fdc42783          	lw	a5,-36(s0)
    2e38:	0087a783          	lw	a5,8(a5)
    2e3c:	00078693          	mv	a3,a5
    2e40:	fd442603          	lw	a2,-44(s0)
    2e44:	fd842583          	lw	a1,-40(s0)
    2e48:	00070513          	mv	a0,a4
    2e4c:	64c000ef          	jal	3498 <altera_avalon_jtag_uart_read>
    2e50:	00050793          	mv	a5,a0
      fd->fd_flags);
}
    2e54:	00078513          	mv	a0,a5
    2e58:	02c12083          	lw	ra,44(sp)
    2e5c:	02812403          	lw	s0,40(sp)
    2e60:	03010113          	add	sp,sp,48
    2e64:	00008067          	ret

00002e68 <altera_avalon_jtag_uart_write_fd>:

int 
altera_avalon_jtag_uart_write_fd(alt_fd* fd, const char* buffer, int space)
{
    2e68:	fd010113          	add	sp,sp,-48
    2e6c:	02112623          	sw	ra,44(sp)
    2e70:	02812423          	sw	s0,40(sp)
    2e74:	03010413          	add	s0,sp,48
    2e78:	fca42e23          	sw	a0,-36(s0)
    2e7c:	fcb42c23          	sw	a1,-40(s0)
    2e80:	fcc42a23          	sw	a2,-44(s0)
    altera_avalon_jtag_uart_dev* dev = (altera_avalon_jtag_uart_dev*) fd->dev; 
    2e84:	fdc42783          	lw	a5,-36(s0)
    2e88:	0007a783          	lw	a5,0(a5)
    2e8c:	fef42623          	sw	a5,-20(s0)

    return altera_avalon_jtag_uart_write(&dev->state, buffer, space,
    2e90:	fec42783          	lw	a5,-20(s0)
    2e94:	02878713          	add	a4,a5,40
    2e98:	fdc42783          	lw	a5,-36(s0)
    2e9c:	0087a783          	lw	a5,8(a5)
    2ea0:	00078693          	mv	a3,a5
    2ea4:	fd442603          	lw	a2,-44(s0)
    2ea8:	fd842583          	lw	a1,-40(s0)
    2eac:	00070513          	mv	a0,a4
    2eb0:	015000ef          	jal	36c4 <altera_avalon_jtag_uart_write>
    2eb4:	00050793          	mv	a5,a0
      fd->fd_flags);
}
    2eb8:	00078513          	mv	a0,a5
    2ebc:	02c12083          	lw	ra,44(sp)
    2ec0:	02812403          	lw	s0,40(sp)
    2ec4:	03010113          	add	sp,sp,48
    2ec8:	00008067          	ret

00002ecc <altera_avalon_jtag_uart_close_fd>:

#ifndef ALTERA_AVALON_JTAG_UART_SMALL

int 
altera_avalon_jtag_uart_close_fd(alt_fd* fd)
{
    2ecc:	fd010113          	add	sp,sp,-48
    2ed0:	02112623          	sw	ra,44(sp)
    2ed4:	02812423          	sw	s0,40(sp)
    2ed8:	03010413          	add	s0,sp,48
    2edc:	fca42e23          	sw	a0,-36(s0)
    altera_avalon_jtag_uart_dev* dev = (altera_avalon_jtag_uart_dev*) fd->dev; 
    2ee0:	fdc42783          	lw	a5,-36(s0)
    2ee4:	0007a783          	lw	a5,0(a5)
    2ee8:	fef42623          	sw	a5,-20(s0)

    return altera_avalon_jtag_uart_close(&dev->state, fd->fd_flags);
    2eec:	fec42783          	lw	a5,-20(s0)
    2ef0:	02878713          	add	a4,a5,40
    2ef4:	fdc42783          	lw	a5,-36(s0)
    2ef8:	0087a783          	lw	a5,8(a5)
    2efc:	00078593          	mv	a1,a5
    2f00:	00070513          	mv	a0,a4
    2f04:	428000ef          	jal	332c <altera_avalon_jtag_uart_close>
    2f08:	00050793          	mv	a5,a0
}
    2f0c:	00078513          	mv	a0,a5
    2f10:	02c12083          	lw	ra,44(sp)
    2f14:	02812403          	lw	s0,40(sp)
    2f18:	03010113          	add	sp,sp,48
    2f1c:	00008067          	ret

00002f20 <altera_avalon_jtag_uart_ioctl_fd>:

int 
altera_avalon_jtag_uart_ioctl_fd(alt_fd* fd, int req, void* arg)
{
    2f20:	fd010113          	add	sp,sp,-48
    2f24:	02112623          	sw	ra,44(sp)
    2f28:	02812423          	sw	s0,40(sp)
    2f2c:	03010413          	add	s0,sp,48
    2f30:	fca42e23          	sw	a0,-36(s0)
    2f34:	fcb42c23          	sw	a1,-40(s0)
    2f38:	fcc42a23          	sw	a2,-44(s0)
    altera_avalon_jtag_uart_dev* dev = (altera_avalon_jtag_uart_dev*) fd->dev;
    2f3c:	fdc42783          	lw	a5,-36(s0)
    2f40:	0007a783          	lw	a5,0(a5)
    2f44:	fef42623          	sw	a5,-20(s0)

    return altera_avalon_jtag_uart_ioctl(&dev->state, req, arg);
    2f48:	fec42783          	lw	a5,-20(s0)
    2f4c:	02878793          	add	a5,a5,40
    2f50:	fd442603          	lw	a2,-44(s0)
    2f54:	fd842583          	lw	a1,-40(s0)
    2f58:	00078513          	mv	a0,a5
    2f5c:	43c000ef          	jal	3398 <altera_avalon_jtag_uart_ioctl>
    2f60:	00050793          	mv	a5,a0
}
    2f64:	00078513          	mv	a0,a5
    2f68:	02c12083          	lw	ra,44(sp)
    2f6c:	02812403          	lw	s0,40(sp)
    2f70:	03010113          	add	sp,sp,48
    2f74:	00008067          	ret

00002f78 <altera_avalon_jtag_uart_init>:
 * Return 1 on sucessful IRQ register and 0 on failure.
 */

void altera_avalon_jtag_uart_init(altera_avalon_jtag_uart_state* sp, 
                                  int irq_controller_id, int irq)
{
    2f78:	fd010113          	add	sp,sp,-48
    2f7c:	02112623          	sw	ra,44(sp)
    2f80:	02812423          	sw	s0,40(sp)
    2f84:	03010413          	add	s0,sp,48
    2f88:	fca42e23          	sw	a0,-36(s0)
    2f8c:	fcb42c23          	sw	a1,-40(s0)
    2f90:	fcc42a23          	sw	a2,-44(s0)
  ALT_FLAG_CREATE(&sp->events, 0);
  ALT_SEM_CREATE(&sp->read_lock, 1);
  ALT_SEM_CREATE(&sp->write_lock, 1);

  /* enable read interrupts at the device */
  sp->irq_enable = ALTERA_AVALON_JTAG_UART_CONTROL_RE_MSK;
    2f94:	fdc42783          	lw	a5,-36(s0)
    2f98:	00100713          	li	a4,1
    2f9c:	02e7a023          	sw	a4,32(a5)

  IOWR_ALTERA_AVALON_JTAG_UART_CONTROL(sp->base, sp->irq_enable); 
    2fa0:	fdc42783          	lw	a5,-36(s0)
    2fa4:	0207a783          	lw	a5,32(a5)
    2fa8:	fef42623          	sw	a5,-20(s0)
    2fac:	fdc42783          	lw	a5,-36(s0)
    2fb0:	0007a783          	lw	a5,0(a5)
    2fb4:	00478793          	add	a5,a5,4
    2fb8:	00078713          	mv	a4,a5
    2fbc:	fec42783          	lw	a5,-20(s0)
    2fc0:	00f72023          	sw	a5,0(a4)
  
  /* register the interrupt handler */
#ifdef ALT_ENHANCED_INTERRUPT_API_PRESENT
  alt_ic_isr_register(irq_controller_id, irq, altera_avalon_jtag_uart_irq, 
    2fc4:	fd842503          	lw	a0,-40(s0)
    2fc8:	fd442583          	lw	a1,-44(s0)
    2fcc:	00000713          	li	a4,0
    2fd0:	fdc42683          	lw	a3,-36(s0)
    2fd4:	000037b7          	lui	a5,0x3
    2fd8:	03878613          	add	a2,a5,56 # 3038 <altera_avalon_jtag_uart_irq>
    2fdc:	7c1000ef          	jal	3f9c <alt_ic_isr_register>
#else
  alt_irq_register(irq, sp, altera_avalon_jtag_uart_irq);
#endif  

  /* Register an alarm to go off every second to check for presence of host */
  sp->host_inactive = 0;
    2fe0:	fdc42783          	lw	a5,-36(s0)
    2fe4:	0207a223          	sw	zero,36(a5)

  if (alt_alarm_start(&sp->alarm, alt_ticks_per_second(), 
    2fe8:	fdc42783          	lw	a5,-36(s0)
    2fec:	00878713          	add	a4,a5,8
 * Obtain the system clock rate in ticks/s. 
 */

static ALT_INLINE alt_u32 ALT_ALWAYS_INLINE alt_ticks_per_second (void)
{
  return _alt_tick_rate;
    2ff0:	000207b7          	lui	a5,0x20
    2ff4:	c107a583          	lw	a1,-1008(a5) # 1fc10 <_alt_tick_rate>
    2ff8:	fdc42683          	lw	a3,-36(s0)
    2ffc:	000037b7          	lui	a5,0x3
    3000:	27078613          	add	a2,a5,624 # 3270 <altera_avalon_jtag_uart_timeout>
    3004:	00070513          	mv	a0,a4
    3008:	3e1000ef          	jal	3be8 <alt_alarm_start>
    300c:	00050793          	mv	a5,a0
    3010:	0007da63          	bgez	a5,3024 <altera_avalon_jtag_uart_init+0xac>
    &altera_avalon_jtag_uart_timeout, sp) < 0)
  {
    /* If we can't set the alarm then record "don't know if host present" 
     * and behave as though the host is present.
     */
    sp->timeout = INT_MAX;
    3014:	fdc42783          	lw	a5,-36(s0)
    3018:	80000737          	lui	a4,0x80000
    301c:	fff70713          	add	a4,a4,-1 # 7fffffff <__alt_data_end+0x7ffc3fff>
    3020:	00e7a223          	sw	a4,4(a5)
  }

  /* ALT_LOG - see altera_hal/HAL/inc/sys/alt_log_printf.h */ 
  ALT_LOG_JTAG_UART_ALARM_REGISTER(sp, sp->base);
}
    3024:	00000013          	nop
    3028:	02c12083          	lw	ra,44(sp)
    302c:	02812403          	lw	s0,40(sp)
    3030:	03010113          	add	sp,sp,48
    3034:	00008067          	ret

00003038 <altera_avalon_jtag_uart_irq>:
#ifdef ALT_ENHANCED_INTERRUPT_API_PRESENT
static void altera_avalon_jtag_uart_irq(void* context)
#else
static void altera_avalon_jtag_uart_irq(void* context, alt_u32 id)
#endif
{
    3038:	fa010113          	add	sp,sp,-96
    303c:	04812e23          	sw	s0,92(sp)
    3040:	06010413          	add	s0,sp,96
    3044:	faa42623          	sw	a0,-84(s0)
  altera_avalon_jtag_uart_state* sp = (altera_avalon_jtag_uart_state*) context;
    3048:	fac42783          	lw	a5,-84(s0)
    304c:	fcf42223          	sw	a5,-60(s0)
  unsigned int base = sp->base;
    3050:	fc442783          	lw	a5,-60(s0)
    3054:	0007a783          	lw	a5,0(a5)
    3058:	fcf42423          	sw	a5,-56(s0)
  unsigned int postflag=0;
    305c:	fa042c23          	sw	zero,-72(s0)
  /* ALT_LOG - see altera_hal/HAL/inc/sys/alt_log_printf.h */ 
  ALT_LOG_JTAG_UART_ISR_FUNCTION(base, sp);

  for ( ; ; )
  {
    unsigned int control = IORD_ALTERA_AVALON_JTAG_UART_CONTROL(base);
    3060:	fc842783          	lw	a5,-56(s0)
    3064:	00478793          	add	a5,a5,4
    3068:	0007a783          	lw	a5,0(a5)
    306c:	fcf42623          	sw	a5,-52(s0)
    3070:	fcc42783          	lw	a5,-52(s0)
    3074:	fcf42823          	sw	a5,-48(s0)

    /* Return once nothing more to do */
    if ((control & (ALTERA_AVALON_JTAG_UART_CONTROL_RI_MSK | ALTERA_AVALON_JTAG_UART_CONTROL_WI_MSK)) == 0)
    3078:	fd042783          	lw	a5,-48(s0)
    307c:	3007f793          	and	a5,a5,768
    3080:	1c078e63          	beqz	a5,325c <altera_avalon_jtag_uart_irq+0x224>
      break;

    if (control & ALTERA_AVALON_JTAG_UART_CONTROL_RI_MSK)
    3084:	fd042783          	lw	a5,-48(s0)
    3088:	1007f793          	and	a5,a5,256
    308c:	0e078663          	beqz	a5,3178 <altera_avalon_jtag_uart_irq+0x140>
    {
      /* process a read irq.  Start by assuming that there is data in the
       * receive FIFO (otherwise why would we have been interrupted?)
       */
      unsigned int data = 1 << ALTERA_AVALON_JTAG_UART_DATA_RAVAIL_OFST;
    3090:	000107b7          	lui	a5,0x10
    3094:	faf42e23          	sw	a5,-68(s0)
      for ( ; ; )
      {
        /* Check whether there is space in the buffer.  If not then we must not
         * read any characters from the buffer as they will be lost.
         */
        unsigned int next = (sp->rx_in + 1) % ALTERA_AVALON_JTAG_UART_BUF_LEN;
    3098:	fc442783          	lw	a5,-60(s0)
    309c:	0287a783          	lw	a5,40(a5) # 10028 <_vfiprintf_r+0xa94>
    30a0:	00178793          	add	a5,a5,1
    30a4:	7ff7f793          	and	a5,a5,2047
    30a8:	fcf42a23          	sw	a5,-44(s0)
        if (next == sp->rx_out)
    30ac:	fc442783          	lw	a5,-60(s0)
    30b0:	02c7a783          	lw	a5,44(a5)
    30b4:	fd442703          	lw	a4,-44(s0)
    30b8:	06f70263          	beq	a4,a5,311c <altera_avalon_jtag_uart_irq+0xe4>
          break;

        /* Try to remove a character from the FIFO and find out whether there
         * are any more characters remaining.
         */
        data = IORD_ALTERA_AVALON_JTAG_UART_DATA(base);
    30bc:	fc842783          	lw	a5,-56(s0)
    30c0:	0007a783          	lw	a5,0(a5)
    30c4:	fcf42c23          	sw	a5,-40(s0)
    30c8:	fd842783          	lw	a5,-40(s0)
    30cc:	faf42e23          	sw	a5,-68(s0)
        
        if ((data & ALTERA_AVALON_JTAG_UART_DATA_RVALID_MSK) == 0)
    30d0:	fbc42703          	lw	a4,-68(s0)
    30d4:	000087b7          	lui	a5,0x8
    30d8:	00f777b3          	and	a5,a4,a5
    30dc:	04078463          	beqz	a5,3124 <altera_avalon_jtag_uart_irq+0xec>
          break;

        sp->rx_buf[sp->rx_in] = (data & ALTERA_AVALON_JTAG_UART_DATA_DATA_MSK) >> ALTERA_AVALON_JTAG_UART_DATA_DATA_OFST;
    30e0:	fc442783          	lw	a5,-60(s0)
    30e4:	0287a783          	lw	a5,40(a5) # 8028 <_vfprintf_r+0x108>
    30e8:	fbc42703          	lw	a4,-68(s0)
    30ec:	0ff77713          	zext.b	a4,a4
    30f0:	fc442683          	lw	a3,-60(s0)
    30f4:	00f687b3          	add	a5,a3,a5
    30f8:	02e78c23          	sb	a4,56(a5)
        sp->rx_in = (sp->rx_in + 1) % ALTERA_AVALON_JTAG_UART_BUF_LEN;
    30fc:	fc442783          	lw	a5,-60(s0)
    3100:	0287a783          	lw	a5,40(a5)
    3104:	00178793          	add	a5,a5,1
    3108:	7ff7f713          	and	a4,a5,2047
    310c:	fc442783          	lw	a5,-60(s0)
    3110:	02e7a423          	sw	a4,40(a5)
 * HAL.
 */

static ALT_INLINE int ALT_ALWAYS_INLINE alt_no_error (void)
{
  return 0;
    3114:	00000013          	nop
      {
    3118:	f81ff06f          	j	3098 <altera_avalon_jtag_uart_irq+0x60>
          break;
    311c:	00000013          	nop
    3120:	0080006f          	j	3128 <altera_avalon_jtag_uart_irq+0xf0>
          break;
    3124:	00000013          	nop

        /* Post an event to notify jtag_uart_read that a character has been read */
        ALT_FLAG_POST (sp->events, ALT_JTAG_UART_READ_RDY, ALT_FLAG_SET);
      }

      if (data & ALTERA_AVALON_JTAG_UART_DATA_RAVAIL_MSK)
    3128:	fbc42703          	lw	a4,-68(s0)
    312c:	000107b7          	lui	a5,0x10
    3130:	04f76463          	bltu	a4,a5,3178 <altera_avalon_jtag_uart_irq+0x140>
      {
        /* If there is still data available here then the buffer is full 
         * so turn off receive interrupts until some space becomes available.
         */
        sp->irq_enable &= ~ALTERA_AVALON_JTAG_UART_CONTROL_RE_MSK;
    3134:	fc442783          	lw	a5,-60(s0)
    3138:	0207a783          	lw	a5,32(a5) # 10020 <_vfiprintf_r+0xa8c>
    313c:	ffe7f713          	and	a4,a5,-2
    3140:	fc442783          	lw	a5,-60(s0)
    3144:	02e7a023          	sw	a4,32(a5)
        IOWR_ALTERA_AVALON_JTAG_UART_CONTROL(base, sp->irq_enable);
    3148:	fc442783          	lw	a5,-60(s0)
    314c:	0207a783          	lw	a5,32(a5)
    3150:	fcf42e23          	sw	a5,-36(s0)
    3154:	fc842783          	lw	a5,-56(s0)
    3158:	00478793          	add	a5,a5,4
    315c:	00078713          	mv	a4,a5
    3160:	fdc42783          	lw	a5,-36(s0)
    3164:	00f72023          	sw	a5,0(a4)
        
        /* Dummy read to ensure IRQ is cleared prior to ISR completion */
        IORD_ALTERA_AVALON_JTAG_UART_CONTROL(base);
    3168:	fc842783          	lw	a5,-56(s0)
    316c:	00478793          	add	a5,a5,4
    3170:	0007a783          	lw	a5,0(a5)
    3174:	fef42023          	sw	a5,-32(s0)
      }
    }

    if (control & ALTERA_AVALON_JTAG_UART_CONTROL_WI_MSK)
    3178:	fd042783          	lw	a5,-48(s0)
    317c:	2007f793          	and	a5,a5,512
    3180:	ee0780e3          	beqz	a5,3060 <altera_avalon_jtag_uart_irq+0x28>
    {
      /* process a write irq */
      unsigned int space = (control & ALTERA_AVALON_JTAG_UART_CONTROL_WSPACE_MSK) >> ALTERA_AVALON_JTAG_UART_CONTROL_WSPACE_OFST;
    3184:	fd042783          	lw	a5,-48(s0)
    3188:	0107d793          	srl	a5,a5,0x10
    318c:	fcf42023          	sw	a5,-64(s0)

      while (space > 0 && sp->tx_out != sp->tx_in)
    3190:	05c0006f          	j	31ec <altera_avalon_jtag_uart_irq+0x1b4>
      {
        IOWR_ALTERA_AVALON_JTAG_UART_DATA(base, sp->tx_buf[sp->tx_out]);
    3194:	fc442783          	lw	a5,-60(s0)
    3198:	0347a783          	lw	a5,52(a5)
    319c:	fc442703          	lw	a4,-60(s0)
    31a0:	00f707b3          	add	a5,a4,a5
    31a4:	00001737          	lui	a4,0x1
    31a8:	00f707b3          	add	a5,a4,a5
    31ac:	8387c783          	lbu	a5,-1992(a5)
    31b0:	fef42223          	sw	a5,-28(s0)
    31b4:	fc842783          	lw	a5,-56(s0)
    31b8:	fe442703          	lw	a4,-28(s0)
    31bc:	00e7a023          	sw	a4,0(a5)

        sp->tx_out = (sp->tx_out + 1) % ALTERA_AVALON_JTAG_UART_BUF_LEN;
    31c0:	fc442783          	lw	a5,-60(s0)
    31c4:	0347a783          	lw	a5,52(a5)
    31c8:	00178793          	add	a5,a5,1
    31cc:	7ff7f713          	and	a4,a5,2047
    31d0:	fc442783          	lw	a5,-60(s0)
    31d4:	02e7aa23          	sw	a4,52(a5)
        
        /* indicate that the ALT_FLAG_POST routine must be called */
        postflag=1;
    31d8:	00100793          	li	a5,1
    31dc:	faf42c23          	sw	a5,-72(s0)

        space--;
    31e0:	fc042783          	lw	a5,-64(s0)
    31e4:	fff78793          	add	a5,a5,-1
    31e8:	fcf42023          	sw	a5,-64(s0)
      while (space > 0 && sp->tx_out != sp->tx_in)
    31ec:	fc042783          	lw	a5,-64(s0)
    31f0:	00078c63          	beqz	a5,3208 <altera_avalon_jtag_uart_irq+0x1d0>
    31f4:	fc442783          	lw	a5,-60(s0)
    31f8:	0347a703          	lw	a4,52(a5)
    31fc:	fc442783          	lw	a5,-60(s0)
    3200:	0307a783          	lw	a5,48(a5)
    3204:	f8f718e3          	bne	a4,a5,3194 <altera_avalon_jtag_uart_irq+0x15c>
      {
        /* Post an event to notify jtag_uart_write that a character has been written */
        ALT_FLAG_POST (sp->events, ALT_JTAG_UART_WRITE_RDY, ALT_FLAG_SET);
      }

      if (space > 0)
    3208:	fc042783          	lw	a5,-64(s0)
    320c:	e4078ae3          	beqz	a5,3060 <altera_avalon_jtag_uart_irq+0x28>
      {
        /* If we don't have any more data available then turn off the TX interrupt */
        sp->irq_enable &= ~ALTERA_AVALON_JTAG_UART_CONTROL_WE_MSK;
    3210:	fc442783          	lw	a5,-60(s0)
    3214:	0207a783          	lw	a5,32(a5)
    3218:	ffd7f713          	and	a4,a5,-3
    321c:	fc442783          	lw	a5,-60(s0)
    3220:	02e7a023          	sw	a4,32(a5)
        IOWR_ALTERA_AVALON_JTAG_UART_CONTROL(sp->base, sp->irq_enable);
    3224:	fc442783          	lw	a5,-60(s0)
    3228:	0207a783          	lw	a5,32(a5)
    322c:	fef42423          	sw	a5,-24(s0)
    3230:	fc442783          	lw	a5,-60(s0)
    3234:	0007a783          	lw	a5,0(a5)
    3238:	00478793          	add	a5,a5,4
    323c:	00078713          	mv	a4,a5
    3240:	fe842783          	lw	a5,-24(s0)
    3244:	00f72023          	sw	a5,0(a4) # 1000 <kf_bfly3+0x1c0>
        
        /* Dummy read to ensure IRQ is cleared prior to ISR completion */
        IORD_ALTERA_AVALON_JTAG_UART_CONTROL(base);
    3248:	fc842783          	lw	a5,-56(s0)
    324c:	00478793          	add	a5,a5,4
    3250:	0007a783          	lw	a5,0(a5)
    3254:	fef42623          	sw	a5,-20(s0)
  {
    3258:	e09ff06f          	j	3060 <altera_avalon_jtag_uart_irq+0x28>
      break;
    325c:	00000013          	nop
      }
    }
  }
}
    3260:	00000013          	nop
    3264:	05c12403          	lw	s0,92(sp)
    3268:	06010113          	add	sp,sp,96
    326c:	00008067          	ret

00003270 <altera_avalon_jtag_uart_timeout>:
 * Timeout routine is called every second
 */

static alt_u32 
altera_avalon_jtag_uart_timeout(void* context) 
{
    3270:	fd010113          	add	sp,sp,-48
    3274:	02812623          	sw	s0,44(sp)
    3278:	03010413          	add	s0,sp,48
    327c:	fca42e23          	sw	a0,-36(s0)
  altera_avalon_jtag_uart_state* sp = (altera_avalon_jtag_uart_state *) context;
    3280:	fdc42783          	lw	a5,-36(s0)
    3284:	fef42023          	sw	a5,-32(s0)

  unsigned int control = IORD_ALTERA_AVALON_JTAG_UART_CONTROL(sp->base);
    3288:	fe042783          	lw	a5,-32(s0)
    328c:	0007a783          	lw	a5,0(a5)
    3290:	00478793          	add	a5,a5,4
    3294:	0007a783          	lw	a5,0(a5)
    3298:	fef42223          	sw	a5,-28(s0)
    329c:	fe442783          	lw	a5,-28(s0)
    32a0:	fef42423          	sw	a5,-24(s0)

  if (control & ALTERA_AVALON_JTAG_UART_CONTROL_AC_MSK)
    32a4:	fe842783          	lw	a5,-24(s0)
    32a8:	4007f793          	and	a5,a5,1024
    32ac:	02078c63          	beqz	a5,32e4 <altera_avalon_jtag_uart_timeout+0x74>
  {
    IOWR_ALTERA_AVALON_JTAG_UART_CONTROL(sp->base, sp->irq_enable | ALTERA_AVALON_JTAG_UART_CONTROL_AC_MSK);
    32b0:	fe042783          	lw	a5,-32(s0)
    32b4:	0207a783          	lw	a5,32(a5)
    32b8:	4007e793          	or	a5,a5,1024
    32bc:	fef42623          	sw	a5,-20(s0)
    32c0:	fe042783          	lw	a5,-32(s0)
    32c4:	0007a783          	lw	a5,0(a5)
    32c8:	00478793          	add	a5,a5,4
    32cc:	00078713          	mv	a4,a5
    32d0:	fec42783          	lw	a5,-20(s0)
    32d4:	00f72023          	sw	a5,0(a4)
    sp->host_inactive = 0;
    32d8:	fe042783          	lw	a5,-32(s0)
    32dc:	0207a223          	sw	zero,36(a5)
    32e0:	0340006f          	j	3314 <altera_avalon_jtag_uart_timeout+0xa4>
  }
  else if (sp->host_inactive < INT_MAX - 2) {
    32e4:	fe042783          	lw	a5,-32(s0)
    32e8:	0247a703          	lw	a4,36(a5)
    32ec:	800007b7          	lui	a5,0x80000
    32f0:	ffc78793          	add	a5,a5,-4 # 7ffffffc <__alt_data_end+0x7ffc3ffc>
    32f4:	02e7e063          	bltu	a5,a4,3314 <altera_avalon_jtag_uart_timeout+0xa4>
    sp->host_inactive++;
    32f8:	fe042783          	lw	a5,-32(s0)
    32fc:	0247a783          	lw	a5,36(a5)
    3300:	00178713          	add	a4,a5,1
    3304:	fe042783          	lw	a5,-32(s0)
    3308:	02e7a223          	sw	a4,36(a5)
    
    if (sp->host_inactive >= sp->timeout) {
    330c:	fe042783          	lw	a5,-32(s0)
    3310:	0247a783          	lw	a5,36(a5)
    3314:	000207b7          	lui	a5,0x20
    3318:	c107a783          	lw	a5,-1008(a5) # 1fc10 <_alt_tick_rate>
      ALT_FLAG_POST (sp->events, ALT_JTAG_UART_TIMEOUT, ALT_FLAG_SET);
    }
  }

  return alt_ticks_per_second();
}
    331c:	00078513          	mv	a0,a5
    3320:	02c12403          	lw	s0,44(sp)
    3324:	03010113          	add	sp,sp,48
    3328:	00008067          	ret

0000332c <altera_avalon_jtag_uart_close>:
 * The close routine is not implemented for the small driver; instead it will
 * map to null. This is because the small driver simply waits while characters
 * are transmitted; there is no interrupt-serviced buffer to empty 
 */
int altera_avalon_jtag_uart_close(altera_avalon_jtag_uart_state* sp, int flags)
{
    332c:	fe010113          	add	sp,sp,-32
    3330:	00812e23          	sw	s0,28(sp)
    3334:	02010413          	add	s0,sp,32
    3338:	fea42623          	sw	a0,-20(s0)
    333c:	feb42423          	sw	a1,-24(s0)
  /* 
   * Wait for all transmit data to be emptied by the JTAG UART ISR, or
   * for a host-inactivity timeout, in which case transmit data will be lost
   */
  while ( (sp->tx_out != sp->tx_in) && (sp->host_inactive < sp->timeout) ) {
    3340:	01c0006f          	j	335c <altera_avalon_jtag_uart_close+0x30>
    if (flags & O_NONBLOCK) {
    3344:	fe842703          	lw	a4,-24(s0)
    3348:	000047b7          	lui	a5,0x4
    334c:	00f777b3          	and	a5,a4,a5
    3350:	00078663          	beqz	a5,335c <altera_avalon_jtag_uart_close+0x30>
      return -EWOULDBLOCK; 
    3354:	ff500793          	li	a5,-11
    3358:	0300006f          	j	3388 <altera_avalon_jtag_uart_close+0x5c>
  while ( (sp->tx_out != sp->tx_in) && (sp->host_inactive < sp->timeout) ) {
    335c:	fec42783          	lw	a5,-20(s0)
    3360:	0347a703          	lw	a4,52(a5) # 4034 <alt_iic_isr_register+0x44>
    3364:	fec42783          	lw	a5,-20(s0)
    3368:	0307a783          	lw	a5,48(a5)
    336c:	00f70c63          	beq	a4,a5,3384 <altera_avalon_jtag_uart_close+0x58>
    3370:	fec42783          	lw	a5,-20(s0)
    3374:	0247a703          	lw	a4,36(a5)
    3378:	fec42783          	lw	a5,-20(s0)
    337c:	0047a783          	lw	a5,4(a5)
    3380:	fcf762e3          	bltu	a4,a5,3344 <altera_avalon_jtag_uart_close+0x18>
    }
  }

  return 0;
    3384:	00000793          	li	a5,0
}
    3388:	00078513          	mv	a0,a5
    338c:	01c12403          	lw	s0,28(sp)
    3390:	02010113          	add	sp,sp,32
    3394:	00008067          	ret

00003398 <altera_avalon_jtag_uart_ioctl>:
/* ----------------------------------------------------------- */

int 
altera_avalon_jtag_uart_ioctl(altera_avalon_jtag_uart_state* sp, int req,
  void* arg)
{
    3398:	fd010113          	add	sp,sp,-48
    339c:	02812623          	sw	s0,44(sp)
    33a0:	03010413          	add	s0,sp,48
    33a4:	fca42e23          	sw	a0,-36(s0)
    33a8:	fcb42c23          	sw	a1,-40(s0)
    33ac:	fcc42a23          	sw	a2,-44(s0)
  int rc = -ENOTTY;
    33b0:	fe700793          	li	a5,-25
    33b4:	fef42423          	sw	a5,-24(s0)

  switch (req)
    33b8:	fd842703          	lw	a4,-40(s0)
    33bc:	000077b7          	lui	a5,0x7
    33c0:	a0178793          	add	a5,a5,-1535 # 6a01 <_puts_r+0x91>
    33c4:	00f70c63          	beq	a4,a5,33dc <altera_avalon_jtag_uart_ioctl+0x44>
    33c8:	fd842703          	lw	a4,-40(s0)
    33cc:	000077b7          	lui	a5,0x7
    33d0:	a0278793          	add	a5,a5,-1534 # 6a02 <_puts_r+0x92>
    33d4:	06f70263          	beq	a4,a5,3438 <altera_avalon_jtag_uart_ioctl+0xa0>
      rc = 0;
    }
    break;

  default:
    break;
    33d8:	0ac0006f          	j	3484 <altera_avalon_jtag_uart_ioctl+0xec>
    if (sp->timeout != INT_MAX)
    33dc:	fdc42783          	lw	a5,-36(s0)
    33e0:	0047a703          	lw	a4,4(a5)
    33e4:	800007b7          	lui	a5,0x80000
    33e8:	fff78793          	add	a5,a5,-1 # 7fffffff <__alt_data_end+0x7ffc3fff>
    33ec:	08f70663          	beq	a4,a5,3478 <altera_avalon_jtag_uart_ioctl+0xe0>
      int timeout = *((int *)arg);
    33f0:	fd442783          	lw	a5,-44(s0)
    33f4:	0007a783          	lw	a5,0(a5)
    33f8:	fef42623          	sw	a5,-20(s0)
      sp->timeout = (timeout >= 2 && timeout < INT_MAX) ? timeout : INT_MAX - 1;
    33fc:	fec42703          	lw	a4,-20(s0)
    3400:	00100793          	li	a5,1
    3404:	00e7de63          	bge	a5,a4,3420 <altera_avalon_jtag_uart_ioctl+0x88>
    3408:	fec42703          	lw	a4,-20(s0)
    340c:	800007b7          	lui	a5,0x80000
    3410:	fff78793          	add	a5,a5,-1 # 7fffffff <__alt_data_end+0x7ffc3fff>
    3414:	00f70663          	beq	a4,a5,3420 <altera_avalon_jtag_uart_ioctl+0x88>
    3418:	fec42783          	lw	a5,-20(s0)
    341c:	00c0006f          	j	3428 <altera_avalon_jtag_uart_ioctl+0x90>
    3420:	800007b7          	lui	a5,0x80000
    3424:	ffe78793          	add	a5,a5,-2 # 7ffffffe <__alt_data_end+0x7ffc3ffe>
    3428:	fdc42703          	lw	a4,-36(s0)
    342c:	00f72223          	sw	a5,4(a4)
      rc = 0;
    3430:	fe042423          	sw	zero,-24(s0)
    break;
    3434:	0440006f          	j	3478 <altera_avalon_jtag_uart_ioctl+0xe0>
    if (sp->timeout != INT_MAX)
    3438:	fdc42783          	lw	a5,-36(s0)
    343c:	0047a703          	lw	a4,4(a5)
    3440:	800007b7          	lui	a5,0x80000
    3444:	fff78793          	add	a5,a5,-1 # 7fffffff <__alt_data_end+0x7ffc3fff>
    3448:	02f70c63          	beq	a4,a5,3480 <altera_avalon_jtag_uart_ioctl+0xe8>
      *((int *)arg) = (sp->host_inactive < sp->timeout) ? 1 : 0;
    344c:	fdc42783          	lw	a5,-36(s0)
    3450:	0247a703          	lw	a4,36(a5)
    3454:	fdc42783          	lw	a5,-36(s0)
    3458:	0047a783          	lw	a5,4(a5)
    345c:	00f737b3          	sltu	a5,a4,a5
    3460:	0ff7f793          	zext.b	a5,a5
    3464:	00078713          	mv	a4,a5
    3468:	fd442783          	lw	a5,-44(s0)
    346c:	00e7a023          	sw	a4,0(a5)
      rc = 0;
    3470:	fe042423          	sw	zero,-24(s0)
    break;
    3474:	00c0006f          	j	3480 <altera_avalon_jtag_uart_ioctl+0xe8>
    break;
    3478:	00000013          	nop
    347c:	0080006f          	j	3484 <altera_avalon_jtag_uart_ioctl+0xec>
    break;
    3480:	00000013          	nop
  }

  return rc;
    3484:	fe842783          	lw	a5,-24(s0)
}
    3488:	00078513          	mv	a0,a5
    348c:	02c12403          	lw	s0,44(sp)
    3490:	03010113          	add	sp,sp,48
    3494:	00008067          	ret

00003498 <altera_avalon_jtag_uart_read>:
/* ----------------------------------------------------------- */

int 
altera_avalon_jtag_uart_read(altera_avalon_jtag_uart_state* sp, 
  char * buffer, int space, int flags)
{
    3498:	fc010113          	add	sp,sp,-64
    349c:	02112e23          	sw	ra,60(sp)
    34a0:	02812c23          	sw	s0,56(sp)
    34a4:	04010413          	add	s0,sp,64
    34a8:	fca42623          	sw	a0,-52(s0)
    34ac:	fcb42423          	sw	a1,-56(s0)
    34b0:	fcc42223          	sw	a2,-60(s0)
    34b4:	fcd42023          	sw	a3,-64(s0)
  char * ptr = buffer;
    34b8:	fc842783          	lw	a5,-56(s0)
    34bc:	fcf42823          	sw	a5,-48(s0)
   * When running in a multi threaded environment, obtain the "read_lock"
   * semaphore. This ensures that reading from the device is thread-safe.
   */
  ALT_SEM_PEND (sp->read_lock, 0);

  while (space > 0)
    34c0:	1280006f          	j	35e8 <altera_avalon_jtag_uart_read+0x150>
    unsigned int in, out;

    /* Read as much data as possible */
    do
    {
      in  = sp->rx_in;
    34c4:	fcc42783          	lw	a5,-52(s0)
    34c8:	0287a783          	lw	a5,40(a5)
    34cc:	fcf42c23          	sw	a5,-40(s0)
      out = sp->rx_out;
    34d0:	fcc42783          	lw	a5,-52(s0)
    34d4:	02c7a783          	lw	a5,44(a5)
    34d8:	fcf42e23          	sw	a5,-36(s0)

      if (in >= out)
    34dc:	fd842703          	lw	a4,-40(s0)
    34e0:	fdc42783          	lw	a5,-36(s0)
    34e4:	00f76c63          	bltu	a4,a5,34fc <altera_avalon_jtag_uart_read+0x64>
        n = in - out;
    34e8:	fd842703          	lw	a4,-40(s0)
    34ec:	fdc42783          	lw	a5,-36(s0)
    34f0:	40f707b3          	sub	a5,a4,a5
    34f4:	fcf42a23          	sw	a5,-44(s0)
    34f8:	0180006f          	j	3510 <altera_avalon_jtag_uart_read+0x78>
      else
        n = ALTERA_AVALON_JTAG_UART_BUF_LEN - out;
    34fc:	000017b7          	lui	a5,0x1
    3500:	80078713          	add	a4,a5,-2048 # 800 <kf_bfly4+0x98>
    3504:	fdc42783          	lw	a5,-36(s0)
    3508:	40f707b3          	sub	a5,a4,a5
    350c:	fcf42a23          	sw	a5,-44(s0)

      if (n == 0)
    3510:	fd442783          	lw	a5,-44(s0)
    3514:	06078e63          	beqz	a5,3590 <altera_avalon_jtag_uart_read+0xf8>
        break; /* No more data available */

      if (n > space)
    3518:	fc442783          	lw	a5,-60(s0)
    351c:	fd442703          	lw	a4,-44(s0)
    3520:	00e7f663          	bgeu	a5,a4,352c <altera_avalon_jtag_uart_read+0x94>
        n = space;
    3524:	fc442783          	lw	a5,-60(s0)
    3528:	fcf42a23          	sw	a5,-44(s0)

      memcpy(ptr, sp->rx_buf + out, n);
    352c:	fcc42783          	lw	a5,-52(s0)
    3530:	03878713          	add	a4,a5,56
    3534:	fdc42783          	lw	a5,-36(s0)
    3538:	00f707b3          	add	a5,a4,a5
    353c:	fd442603          	lw	a2,-44(s0)
    3540:	00078593          	mv	a1,a5
    3544:	fd042503          	lw	a0,-48(s0)
    3548:	76d020ef          	jal	64b4 <memcpy>
      ptr   += n;
    354c:	fd042703          	lw	a4,-48(s0)
    3550:	fd442783          	lw	a5,-44(s0)
    3554:	00f707b3          	add	a5,a4,a5
    3558:	fcf42823          	sw	a5,-48(s0)
      space -= n;
    355c:	fc442703          	lw	a4,-60(s0)
    3560:	fd442783          	lw	a5,-44(s0)
    3564:	40f707b3          	sub	a5,a4,a5
    3568:	fcf42223          	sw	a5,-60(s0)

      sp->rx_out = (out + n) % ALTERA_AVALON_JTAG_UART_BUF_LEN;
    356c:	fdc42703          	lw	a4,-36(s0)
    3570:	fd442783          	lw	a5,-44(s0)
    3574:	00f707b3          	add	a5,a4,a5
    3578:	7ff7f713          	and	a4,a5,2047
    357c:	fcc42783          	lw	a5,-52(s0)
    3580:	02e7a623          	sw	a4,44(a5)
    }
    while (space > 0);
    3584:	fc442783          	lw	a5,-60(s0)
    3588:	f2f04ee3          	bgtz	a5,34c4 <altera_avalon_jtag_uart_read+0x2c>
    358c:	0080006f          	j	3594 <altera_avalon_jtag_uart_read+0xfc>
        break; /* No more data available */
    3590:	00000013          	nop

    /* If we read any data then return it */
    if (ptr != buffer)
    3594:	fd042703          	lw	a4,-48(s0)
    3598:	fc842783          	lw	a5,-56(s0)
    359c:	04f71c63          	bne	a4,a5,35f4 <altera_avalon_jtag_uart_read+0x15c>
      break;

    /* If in non-blocking mode then return error */
    if (flags & O_NONBLOCK)
    35a0:	fc042703          	lw	a4,-64(s0)
    35a4:	000047b7          	lui	a5,0x4
    35a8:	00f777b3          	and	a5,a4,a5
    35ac:	04079863          	bnez	a5,35fc <altera_avalon_jtag_uart_read+0x164>
      while (in == sp->rx_in && sp->host_inactive < sp->timeout)
        ;
    }
#else
    /* No OS: Always spin */
    while (in == sp->rx_in && sp->host_inactive < sp->timeout)
    35b0:	00000013          	nop
    35b4:	fcc42783          	lw	a5,-52(s0)
    35b8:	0287a783          	lw	a5,40(a5) # 4028 <alt_iic_isr_register+0x38>
    35bc:	fd842703          	lw	a4,-40(s0)
    35c0:	00f71c63          	bne	a4,a5,35d8 <altera_avalon_jtag_uart_read+0x140>
    35c4:	fcc42783          	lw	a5,-52(s0)
    35c8:	0247a703          	lw	a4,36(a5)
    35cc:	fcc42783          	lw	a5,-52(s0)
    35d0:	0047a783          	lw	a5,4(a5)
    35d4:	fef760e3          	bltu	a4,a5,35b4 <altera_avalon_jtag_uart_read+0x11c>
      ;
#endif /* __ucosii__ */

    if (in == sp->rx_in)
    35d8:	fcc42783          	lw	a5,-52(s0)
    35dc:	0287a783          	lw	a5,40(a5)
    35e0:	fd842703          	lw	a4,-40(s0)
    35e4:	02f70063          	beq	a4,a5,3604 <altera_avalon_jtag_uart_read+0x16c>
  while (space > 0)
    35e8:	fc442783          	lw	a5,-60(s0)
    35ec:	ecf04ce3          	bgtz	a5,34c4 <altera_avalon_jtag_uart_read+0x2c>
    35f0:	0180006f          	j	3608 <altera_avalon_jtag_uart_read+0x170>
      break;
    35f4:	00000013          	nop
    35f8:	0100006f          	j	3608 <altera_avalon_jtag_uart_read+0x170>
      break;
    35fc:	00000013          	nop
    3600:	0080006f          	j	3608 <altera_avalon_jtag_uart_read+0x170>
      break;
    3604:	00000013          	nop
   * semaphore so that other threads can access the buffer.
   */

  ALT_SEM_POST (sp->read_lock);

  if (ptr != buffer)
    3608:	fd042703          	lw	a4,-48(s0)
    360c:	fc842783          	lw	a5,-56(s0)
    3610:	06f70463          	beq	a4,a5,3678 <altera_avalon_jtag_uart_read+0x1e0>
    NIOSV_READ_AND_CLR_CSR(NIOSV_MSTATUS_CSR, context, NIOSV_MSTATUS_MIE_MASK);
    3614:	00800793          	li	a5,8
    3618:	3007b7f3          	csrrc	a5,mstatus,a5
    361c:	fef42623          	sw	a5,-20(s0)
    return context;
    3620:	fec42783          	lw	a5,-20(s0)
  {
    /* If we read any data then there is space in the buffer so enable interrupts */
    context = alt_irq_disable_all();
    3624:	fef42023          	sw	a5,-32(s0)
    sp->irq_enable |= ALTERA_AVALON_JTAG_UART_CONTROL_RE_MSK;
    3628:	fcc42783          	lw	a5,-52(s0)
    362c:	0207a783          	lw	a5,32(a5)
    3630:	0017e713          	or	a4,a5,1
    3634:	fcc42783          	lw	a5,-52(s0)
    3638:	02e7a023          	sw	a4,32(a5)
    IOWR_ALTERA_AVALON_JTAG_UART_CONTROL(sp->base, sp->irq_enable);
    363c:	fcc42783          	lw	a5,-52(s0)
    3640:	0207a783          	lw	a5,32(a5)
    3644:	fef42223          	sw	a5,-28(s0)
    3648:	fcc42783          	lw	a5,-52(s0)
    364c:	0007a783          	lw	a5,0(a5)
    3650:	00478793          	add	a5,a5,4
    3654:	00078713          	mv	a4,a5
    3658:	fe442783          	lw	a5,-28(s0)
    365c:	00f72023          	sw	a5,0(a4)
    3660:	fe042783          	lw	a5,-32(s0)
    3664:	fef42423          	sw	a5,-24(s0)
    NIOSV_SET_CSR(NIOSV_MSTATUS_CSR, context & NIOSV_MSTATUS_MIE_MASK);
    3668:	fe842783          	lw	a5,-24(s0)
    366c:	0087f793          	and	a5,a5,8
    3670:	3007a073          	csrs	mstatus,a5
}
    3674:	00000013          	nop
    alt_irq_enable_all(context);
  }

  if (ptr != buffer)
    3678:	fd042703          	lw	a4,-48(s0)
    367c:	fc842783          	lw	a5,-56(s0)
    3680:	00f70a63          	beq	a4,a5,3694 <altera_avalon_jtag_uart_read+0x1fc>
    return ptr - buffer;
    3684:	fd042703          	lw	a4,-48(s0)
    3688:	fc842783          	lw	a5,-56(s0)
    368c:	40f707b3          	sub	a5,a4,a5
    3690:	0200006f          	j	36b0 <altera_avalon_jtag_uart_read+0x218>
  else if (flags & O_NONBLOCK)
    3694:	fc042703          	lw	a4,-64(s0)
    3698:	000047b7          	lui	a5,0x4
    369c:	00f777b3          	and	a5,a4,a5
    36a0:	00078663          	beqz	a5,36ac <altera_avalon_jtag_uart_read+0x214>
    return -EWOULDBLOCK;
    36a4:	ff500793          	li	a5,-11
    36a8:	0080006f          	j	36b0 <altera_avalon_jtag_uart_read+0x218>
  else
    return -EIO;
    36ac:	ffb00793          	li	a5,-5
}
    36b0:	00078513          	mv	a0,a5
    36b4:	03c12083          	lw	ra,60(sp)
    36b8:	03812403          	lw	s0,56(sp)
    36bc:	04010113          	add	sp,sp,64
    36c0:	00008067          	ret

000036c4 <altera_avalon_jtag_uart_write>:
/* ----------------------------------------------------------- */

int 
altera_avalon_jtag_uart_write(altera_avalon_jtag_uart_state* sp, 
  const char * ptr, int count, int flags)
{
    36c4:	fc010113          	add	sp,sp,-64
    36c8:	02112e23          	sw	ra,60(sp)
    36cc:	02812c23          	sw	s0,56(sp)
    36d0:	04010413          	add	s0,sp,64
    36d4:	fca42623          	sw	a0,-52(s0)
    36d8:	fcb42423          	sw	a1,-56(s0)
    36dc:	fcc42223          	sw	a2,-60(s0)
    36e0:	fcd42023          	sw	a3,-64(s0)
  /* Remove warning at optimisation level 03 by seting out to 0 */
  unsigned int in, out=0;
    36e4:	fc042823          	sw	zero,-48(s0)
  unsigned int n;
  alt_irq_context context;

  const char * start = ptr;
    36e8:	fc842783          	lw	a5,-56(s0)
    36ec:	fcf42c23          	sw	a5,-40(s0)
  ALT_SEM_PEND (sp->write_lock, 0);

  do
  {
    /* Copy as much as we can into the transmit buffer */
    while (count > 0)
    36f0:	0ec0006f          	j	37dc <altera_avalon_jtag_uart_write+0x118>
    {
      /* We need a stable value of the out pointer to calculate the space available */
      in  = sp->tx_in;
    36f4:	fcc42783          	lw	a5,-52(s0)
    36f8:	0307a783          	lw	a5,48(a5) # 4030 <alt_iic_isr_register+0x40>
    36fc:	fcf42e23          	sw	a5,-36(s0)
      out = sp->tx_out;
    3700:	fcc42783          	lw	a5,-52(s0)
    3704:	0347a783          	lw	a5,52(a5)
    3708:	fcf42823          	sw	a5,-48(s0)

      if (in < out)
    370c:	fdc42703          	lw	a4,-36(s0)
    3710:	fd042783          	lw	a5,-48(s0)
    3714:	00f77e63          	bgeu	a4,a5,3730 <altera_avalon_jtag_uart_write+0x6c>
        n = out - 1 - in;
    3718:	fd042703          	lw	a4,-48(s0)
    371c:	fdc42783          	lw	a5,-36(s0)
    3720:	40f707b3          	sub	a5,a4,a5
    3724:	fff78793          	add	a5,a5,-1
    3728:	fcf42a23          	sw	a5,-44(s0)
    372c:	0340006f          	j	3760 <altera_avalon_jtag_uart_write+0x9c>
      else if (out > 0)
    3730:	fd042783          	lw	a5,-48(s0)
    3734:	00078e63          	beqz	a5,3750 <altera_avalon_jtag_uart_write+0x8c>
        n = ALTERA_AVALON_JTAG_UART_BUF_LEN - in;
    3738:	000017b7          	lui	a5,0x1
    373c:	80078713          	add	a4,a5,-2048 # 800 <kf_bfly4+0x98>
    3740:	fdc42783          	lw	a5,-36(s0)
    3744:	40f707b3          	sub	a5,a4,a5
    3748:	fcf42a23          	sw	a5,-44(s0)
    374c:	0140006f          	j	3760 <altera_avalon_jtag_uart_write+0x9c>
      else
        n = ALTERA_AVALON_JTAG_UART_BUF_LEN - 1 - in;
    3750:	7ff00713          	li	a4,2047
    3754:	fdc42783          	lw	a5,-36(s0)
    3758:	40f707b3          	sub	a5,a4,a5
    375c:	fcf42a23          	sw	a5,-44(s0)

      if (n == 0)
    3760:	fd442783          	lw	a5,-44(s0)
    3764:	08078263          	beqz	a5,37e8 <altera_avalon_jtag_uart_write+0x124>
        break;

      if (n > count)
    3768:	fc442783          	lw	a5,-60(s0)
    376c:	fd442703          	lw	a4,-44(s0)
    3770:	00e7f663          	bgeu	a5,a4,377c <altera_avalon_jtag_uart_write+0xb8>
        n = count;
    3774:	fc442783          	lw	a5,-60(s0)
    3778:	fcf42a23          	sw	a5,-44(s0)

      memcpy(sp->tx_buf + in, ptr, n);
    377c:	fcc42703          	lw	a4,-52(s0)
    3780:	000017b7          	lui	a5,0x1
    3784:	83878793          	add	a5,a5,-1992 # 838 <kf_bfly4+0xd0>
    3788:	00f70733          	add	a4,a4,a5
    378c:	fdc42783          	lw	a5,-36(s0)
    3790:	00f707b3          	add	a5,a4,a5
    3794:	fd442603          	lw	a2,-44(s0)
    3798:	fc842583          	lw	a1,-56(s0)
    379c:	00078513          	mv	a0,a5
    37a0:	515020ef          	jal	64b4 <memcpy>
      ptr   += n;
    37a4:	fc842703          	lw	a4,-56(s0)
    37a8:	fd442783          	lw	a5,-44(s0)
    37ac:	00f707b3          	add	a5,a4,a5
    37b0:	fcf42423          	sw	a5,-56(s0)
      count -= n;
    37b4:	fc442703          	lw	a4,-60(s0)
    37b8:	fd442783          	lw	a5,-44(s0)
    37bc:	40f707b3          	sub	a5,a4,a5
    37c0:	fcf42223          	sw	a5,-60(s0)

      sp->tx_in = (in + n) % ALTERA_AVALON_JTAG_UART_BUF_LEN;
    37c4:	fdc42703          	lw	a4,-36(s0)
    37c8:	fd442783          	lw	a5,-44(s0)
    37cc:	00f707b3          	add	a5,a4,a5
    37d0:	7ff7f713          	and	a4,a5,2047
    37d4:	fcc42783          	lw	a5,-52(s0)
    37d8:	02e7a823          	sw	a4,48(a5)
    while (count > 0)
    37dc:	fc442783          	lw	a5,-60(s0)
    37e0:	f0f04ae3          	bgtz	a5,36f4 <altera_avalon_jtag_uart_write+0x30>
    37e4:	0080006f          	j	37ec <altera_avalon_jtag_uart_write+0x128>
        break;
    37e8:	00000013          	nop
    NIOSV_READ_AND_CLR_CSR(NIOSV_MSTATUS_CSR, context, NIOSV_MSTATUS_MIE_MASK);
    37ec:	00800793          	li	a5,8
    37f0:	3007b7f3          	csrrc	a5,mstatus,a5
    37f4:	fef42623          	sw	a5,-20(s0)
    return context;
    37f8:	fec42783          	lw	a5,-20(s0)
     * to enable interrupts if there is no space left in the FIFO
     *
     * For now kick the interrupt routine every time to make it transmit 
     * the data 
     */
    context = alt_irq_disable_all();
    37fc:	fef42023          	sw	a5,-32(s0)
    sp->irq_enable |= ALTERA_AVALON_JTAG_UART_CONTROL_WE_MSK;
    3800:	fcc42783          	lw	a5,-52(s0)
    3804:	0207a783          	lw	a5,32(a5)
    3808:	0027e713          	or	a4,a5,2
    380c:	fcc42783          	lw	a5,-52(s0)
    3810:	02e7a023          	sw	a4,32(a5)
    IOWR_ALTERA_AVALON_JTAG_UART_CONTROL(sp->base, sp->irq_enable);
    3814:	fcc42783          	lw	a5,-52(s0)
    3818:	0207a783          	lw	a5,32(a5)
    381c:	fef42223          	sw	a5,-28(s0)
    3820:	fcc42783          	lw	a5,-52(s0)
    3824:	0007a783          	lw	a5,0(a5)
    3828:	00478793          	add	a5,a5,4
    382c:	00078713          	mv	a4,a5
    3830:	fe442783          	lw	a5,-28(s0)
    3834:	00f72023          	sw	a5,0(a4)
    3838:	fe042783          	lw	a5,-32(s0)
    383c:	fef42423          	sw	a5,-24(s0)
    NIOSV_SET_CSR(NIOSV_MSTATUS_CSR, context & NIOSV_MSTATUS_MIE_MASK);
    3840:	fe842783          	lw	a5,-24(s0)
    3844:	0087f793          	and	a5,a5,8
    3848:	3007a073          	csrs	mstatus,a5
}
    384c:	00000013          	nop
    /* 
     * If there is any data left then either return now or block until 
     * some has been sent 
     */
    /* consider: test whether there is anything there while doing this and delay for at most 2s. */
    if (count > 0)
    3850:	fc442783          	lw	a5,-60(s0)
    3854:	04f05463          	blez	a5,389c <altera_avalon_jtag_uart_write+0x1d8>
    {
      if (flags & O_NONBLOCK)
    3858:	fc042703          	lw	a4,-64(s0)
    385c:	000047b7          	lui	a5,0x4
    3860:	00f777b3          	and	a5,a4,a5
    3864:	04079263          	bnez	a5,38a8 <altera_avalon_jtag_uart_write+0x1e4>
      /*
       * No OS present: Always wait for data to be removed from buffer.  Once
       * the interrupt routine has removed some data then we will be able to
       * insert some more.
       */
      while (out == sp->tx_out && sp->host_inactive < sp->timeout)
    3868:	00000013          	nop
    386c:	fcc42783          	lw	a5,-52(s0)
    3870:	0347a783          	lw	a5,52(a5) # 4034 <alt_iic_isr_register+0x44>
    3874:	fd042703          	lw	a4,-48(s0)
    3878:	00f71c63          	bne	a4,a5,3890 <altera_avalon_jtag_uart_write+0x1cc>
    387c:	fcc42783          	lw	a5,-52(s0)
    3880:	0247a703          	lw	a4,36(a5)
    3884:	fcc42783          	lw	a5,-52(s0)
    3888:	0047a783          	lw	a5,4(a5)
    388c:	fef760e3          	bltu	a4,a5,386c <altera_avalon_jtag_uart_write+0x1a8>
        ;
#endif /* __ucosii__ */

      if  (sp->host_inactive)
    3890:	fcc42783          	lw	a5,-52(s0)
    3894:	0247a783          	lw	a5,36(a5)
    3898:	00079c63          	bnez	a5,38b0 <altera_avalon_jtag_uart_write+0x1ec>
         break;
    }
  }
  while (count > 0);
    389c:	fc442783          	lw	a5,-60(s0)
    38a0:	f2f04ee3          	bgtz	a5,37dc <altera_avalon_jtag_uart_write+0x118>
    38a4:	0100006f          	j	38b4 <altera_avalon_jtag_uart_write+0x1f0>
        break;
    38a8:	00000013          	nop
    38ac:	0080006f          	j	38b4 <altera_avalon_jtag_uart_write+0x1f0>
         break;
    38b0:	00000013          	nop
   * Now that access to the circular buffer is complete, release the write
   * semaphore so that other threads can access the buffer.
   */
  ALT_SEM_POST (sp->write_lock);

  if (ptr != start)
    38b4:	fc842703          	lw	a4,-56(s0)
    38b8:	fd842783          	lw	a5,-40(s0)
    38bc:	00f70a63          	beq	a4,a5,38d0 <altera_avalon_jtag_uart_write+0x20c>
    return ptr - start;
    38c0:	fc842703          	lw	a4,-56(s0)
    38c4:	fd842783          	lw	a5,-40(s0)
    38c8:	40f707b3          	sub	a5,a4,a5
    38cc:	0200006f          	j	38ec <altera_avalon_jtag_uart_write+0x228>
  else if (flags & O_NONBLOCK)
    38d0:	fc042703          	lw	a4,-64(s0)
    38d4:	000047b7          	lui	a5,0x4
    38d8:	00f777b3          	and	a5,a4,a5
    38dc:	00078663          	beqz	a5,38e8 <altera_avalon_jtag_uart_write+0x224>
    return -EWOULDBLOCK;
    38e0:	ff500793          	li	a5,-11
    38e4:	0080006f          	j	38ec <altera_avalon_jtag_uart_write+0x228>
    sp->tx_out = sp->tx_in = 0;
    return ptr - start + count;
  }
#endif
  else
    return -EIO; /* Host not connected */
    38e8:	ffb00793          	li	a5,-5
}
    38ec:	00078513          	mv	a0,a5
    38f0:	03c12083          	lw	ra,60(sp)
    38f4:	03812403          	lw	s0,56(sp)
    38f8:	04010113          	add	sp,sp,64
    38fc:	00008067          	ret

00003900 <alt_avalon_timer_sc_irq>:
#ifdef ALT_ENHANCED_INTERRUPT_API_PRESENT
static void alt_avalon_timer_sc_irq (void* base)
#else
static void alt_avalon_timer_sc_irq (void* base, alt_u32 id)
#endif
{
    3900:	fc010113          	add	sp,sp,-64
    3904:	02112e23          	sw	ra,60(sp)
    3908:	02812c23          	sw	s0,56(sp)
    390c:	04010413          	add	s0,sp,64
    3910:	fca42623          	sw	a0,-52(s0)
  alt_irq_context cpu_sr;
  
  /* clear the interrupt */
  IOWR_ALTERA_AVALON_TIMER_STATUS (base, 0);
    3914:	fc042e23          	sw	zero,-36(s0)
    3918:	fcc42783          	lw	a5,-52(s0)
    391c:	fdc42703          	lw	a4,-36(s0)
    3920:	00e7a023          	sw	a4,0(a5) # 4000 <alt_iic_isr_register+0x10>
  /* 
   * Dummy read to ensure IRQ is negated before the ISR returns.
   * The control register is read because reading the status
   * register has side-effects per the register map documentation.
   */
  IORD_ALTERA_AVALON_TIMER_CONTROL (base);
    3924:	fcc42783          	lw	a5,-52(s0)
    3928:	00478793          	add	a5,a5,4
    392c:	0007a783          	lw	a5,0(a5)
    3930:	fef42023          	sw	a5,-32(s0)
    NIOSV_READ_AND_CLR_CSR(NIOSV_MSTATUS_CSR, context, NIOSV_MSTATUS_MIE_MASK);
    3934:	00800793          	li	a5,8
    3938:	3007b7f3          	csrrc	a5,mstatus,a5
    393c:	fef42623          	sw	a5,-20(s0)
    return context;
    3940:	fec42783          	lw	a5,-20(s0)

  /* 
   * Notify the system of a clock tick. disable interrupts 
   * during this time to safely support ISR preemption
   */
  cpu_sr = alt_irq_disable_all();
    3944:	fef42223          	sw	a5,-28(s0)
  alt_tick ();
    3948:	309000ef          	jal	4450 <alt_tick>
    394c:	fe442783          	lw	a5,-28(s0)
    3950:	fef42423          	sw	a5,-24(s0)
    NIOSV_SET_CSR(NIOSV_MSTATUS_CSR, context & NIOSV_MSTATUS_MIE_MASK);
    3954:	fe842783          	lw	a5,-24(s0)
    3958:	0087f793          	and	a5,a5,8
    395c:	3007a073          	csrs	mstatus,a5
}
    3960:	00000013          	nop
  alt_irq_enable_all(cpu_sr);
}
    3964:	00000013          	nop
    3968:	03c12083          	lw	ra,60(sp)
    396c:	03812403          	lw	s0,56(sp)
    3970:	04010113          	add	sp,sp,64
    3974:	00008067          	ret

00003978 <alt_avalon_timer_sc_init>:
 * auto-generated alt_sys_init() function.
 */

void alt_avalon_timer_sc_init (void* base, alt_u32 irq_controller_id, 
                                alt_u32 irq, alt_u32 freq)
{
    3978:	fd010113          	add	sp,sp,-48
    397c:	02112623          	sw	ra,44(sp)
    3980:	02812423          	sw	s0,40(sp)
    3984:	03010413          	add	s0,sp,48
    3988:	fca42e23          	sw	a0,-36(s0)
    398c:	fcb42c23          	sw	a1,-40(s0)
    3990:	fcc42a23          	sw	a2,-44(s0)
    3994:	fcd42823          	sw	a3,-48(s0)
    3998:	fd042783          	lw	a5,-48(s0)
    399c:	fef42623          	sw	a5,-20(s0)
 * in order to initialise the value of the clock frequency.
 */

static ALT_INLINE int ALT_ALWAYS_INLINE alt_sysclk_init (alt_u32 nticks)
{
  if (! _alt_tick_rate)
    39a0:	000207b7          	lui	a5,0x20
    39a4:	c107a783          	lw	a5,-1008(a5) # 1fc10 <_alt_tick_rate>
    39a8:	00079a63          	bnez	a5,39bc <alt_avalon_timer_sc_init+0x44>
  {
    _alt_tick_rate = nticks;
    39ac:	000207b7          	lui	a5,0x20
    39b0:	fec42703          	lw	a4,-20(s0)
    39b4:	c0e7a823          	sw	a4,-1008(a5) # 1fc10 <_alt_tick_rate>
    return 0;
    39b8:	0080006f          	j	39c0 <alt_avalon_timer_sc_init+0x48>
  }
  else
  {
    return -1;
    39bc:	00000013          	nop
  
  alt_sysclk_init (freq);
  
  /* set to free running mode */
  
  IOWR_ALTERA_AVALON_TIMER_CONTROL (base, 
    39c0:	00700793          	li	a5,7
    39c4:	fef42423          	sw	a5,-24(s0)
    39c8:	fdc42783          	lw	a5,-36(s0)
    39cc:	00478793          	add	a5,a5,4
    39d0:	fe842703          	lw	a4,-24(s0)
    39d4:	00e7a023          	sw	a4,0(a5)
            ALTERA_AVALON_TIMER_CONTROL_CONT_MSK |
            ALTERA_AVALON_TIMER_CONTROL_START_MSK);

  /* register the interrupt handler, and enable the interrupt */
#ifdef ALT_ENHANCED_INTERRUPT_API_PRESENT
  alt_ic_isr_register(irq_controller_id, irq, alt_avalon_timer_sc_irq, 
    39d8:	00000713          	li	a4,0
    39dc:	fdc42683          	lw	a3,-36(s0)
    39e0:	000047b7          	lui	a5,0x4
    39e4:	90078613          	add	a2,a5,-1792 # 3900 <alt_avalon_timer_sc_irq>
    39e8:	fd442583          	lw	a1,-44(s0)
    39ec:	fd842503          	lw	a0,-40(s0)
    39f0:	5ac000ef          	jal	3f9c <alt_ic_isr_register>
                      base, NULL);
#else
  alt_irq_register (irq, base, alt_avalon_timer_sc_irq);
#endif  
}
    39f4:	00000013          	nop
    39f8:	02c12083          	lw	ra,44(sp)
    39fc:	02812403          	lw	s0,40(sp)
    3a00:	03010113          	add	sp,sp,48
    3a04:	00008067          	ret

00003a08 <alt_timestamp_start>:
 * The return value of this function is 0 upon sucess and -1 if in timestamp
 * device has not been registered. 
 */

int alt_timestamp_start(void)
{
    3a08:	fd010113          	add	sp,sp,-48
    3a0c:	02812623          	sw	s0,44(sp)
    3a10:	03010413          	add	s0,sp,48
  void* base = altera_avalon_timer_ts_base;
    3a14:	000207b7          	lui	a5,0x20
    3a18:	c047a783          	lw	a5,-1020(a5) # 1fc04 <altera_avalon_timer_ts_base>
    3a1c:	fcf42e23          	sw	a5,-36(s0)

  if (!altera_avalon_timer_ts_freq)
    3a20:	000207b7          	lui	a5,0x20
    3a24:	c087a783          	lw	a5,-1016(a5) # 1fc08 <altera_avalon_timer_ts_freq>
    3a28:	00079663          	bnez	a5,3a34 <alt_timestamp_start+0x2c>
  {
    return -1;
    3a2c:	fff00793          	li	a5,-1
    3a30:	0700006f          	j	3aa0 <alt_timestamp_start+0x98>
        IOWR_ALTERA_AVALON_TIMER_PERIOD_1 (base, 0xFFFF);;
        IOWR_ALTERA_AVALON_TIMER_PERIOD_2 (base, 0xFFFF);
        IOWR_ALTERA_AVALON_TIMER_PERIOD_3 (base, 0xFFFF);
        IOWR_ALTERA_AVALON_TIMER_CONTROL (base, ALTERA_AVALON_TIMER_CONTROL_START_MSK);
    } else {
        IOWR_ALTERA_AVALON_TIMER_CONTROL (base,ALTERA_AVALON_TIMER_CONTROL_STOP_MSK);
    3a34:	00800793          	li	a5,8
    3a38:	fef42023          	sw	a5,-32(s0)
    3a3c:	fdc42783          	lw	a5,-36(s0)
    3a40:	00478793          	add	a5,a5,4
    3a44:	fe042703          	lw	a4,-32(s0)
    3a48:	00e7a023          	sw	a4,0(a5)
        IOWR_ALTERA_AVALON_TIMER_PERIODL (base, 0xFFFF);
    3a4c:	000107b7          	lui	a5,0x10
    3a50:	fff78793          	add	a5,a5,-1 # ffff <_vfiprintf_r+0xa6b>
    3a54:	fef42223          	sw	a5,-28(s0)
    3a58:	fdc42783          	lw	a5,-36(s0)
    3a5c:	00878793          	add	a5,a5,8
    3a60:	fe442703          	lw	a4,-28(s0)
    3a64:	00e7a023          	sw	a4,0(a5)
        IOWR_ALTERA_AVALON_TIMER_PERIODH (base, 0xFFFF);
    3a68:	000107b7          	lui	a5,0x10
    3a6c:	fff78793          	add	a5,a5,-1 # ffff <_vfiprintf_r+0xa6b>
    3a70:	fef42423          	sw	a5,-24(s0)
    3a74:	fdc42783          	lw	a5,-36(s0)
    3a78:	00c78793          	add	a5,a5,12
    3a7c:	fe842703          	lw	a4,-24(s0)
    3a80:	00e7a023          	sw	a4,0(a5)
        IOWR_ALTERA_AVALON_TIMER_CONTROL (base, ALTERA_AVALON_TIMER_CONTROL_START_MSK); 
    3a84:	00400793          	li	a5,4
    3a88:	fef42623          	sw	a5,-20(s0)
    3a8c:	fdc42783          	lw	a5,-36(s0)
    3a90:	00478793          	add	a5,a5,4
    3a94:	fec42703          	lw	a4,-20(s0)
    3a98:	00e7a023          	sw	a4,0(a5)
    } 
  }
  return 0;
    3a9c:	00000793          	li	a5,0
}
    3aa0:	00078513          	mv	a0,a5
    3aa4:	02c12403          	lw	s0,44(sp)
    3aa8:	03010113          	add	sp,sp,48
    3aac:	00008067          	ret

00003ab0 <alt_timestamp>:
 * The returned timestamp counts up from the last time the period register
 * was reset. 
 */

alt_timestamp_type alt_timestamp(void)
{
    3ab0:	fd010113          	add	sp,sp,-48
    3ab4:	02812623          	sw	s0,44(sp)
    3ab8:	03010413          	add	s0,sp,48

  void* base = altera_avalon_timer_ts_base;
    3abc:	00020337          	lui	t1,0x20
    3ac0:	c0432303          	lw	t1,-1020(t1) # 1fc04 <altera_avalon_timer_ts_base>
    3ac4:	fc642823          	sw	t1,-48(s0)

  if (!altera_avalon_timer_ts_freq)
    3ac8:	00020337          	lui	t1,0x20
    3acc:	c0832303          	lw	t1,-1016(t1) # 1fc08 <altera_avalon_timer_ts_freq>
    3ad0:	00031863          	bnez	t1,3ae0 <alt_timestamp+0x30>
  {
#if (ALT_TIMESTAMP_COUNTER_SIZE == 64)
        return 0xFFFFFFFFFFFFFFFFULL;
#else
        return 0xFFFFFFFF;
    3ad4:	fff00713          	li	a4,-1
    3ad8:	00000793          	li	a5,0
    3adc:	0d40006f          	j	3bb0 <alt_timestamp+0x100>
        alt_timestamp_type snap_2 = IORD_ALTERA_AVALON_TIMER_SNAP_2(base) & ALTERA_AVALON_TIMER_SNAP_2_MSK;
        alt_timestamp_type snap_3 = IORD_ALTERA_AVALON_TIMER_SNAP_3(base) & ALTERA_AVALON_TIMER_SNAP_3_MSK;
        
        return (0xFFFFFFFFFFFFFFFFULL - ( (snap_3 << 48) | (snap_2 << 32) | (snap_1 << 16) | (snap_0) ));
#else
        IOWR_ALTERA_AVALON_TIMER_SNAPL (base, 0);
    3ae0:	fc042a23          	sw	zero,-44(s0)
    3ae4:	fd042303          	lw	t1,-48(s0)
    3ae8:	01030313          	add	t1,t1,16
    3aec:	fd442e03          	lw	t3,-44(s0)
    3af0:	01c32023          	sw	t3,0(t1)
        alt_timestamp_type lower = IORD_ALTERA_AVALON_TIMER_SNAPL(base) & ALTERA_AVALON_TIMER_SNAPL_MSK;
    3af4:	fd042303          	lw	t1,-48(s0)
    3af8:	01030313          	add	t1,t1,16
    3afc:	00032303          	lw	t1,0(t1)
    3b00:	fc642c23          	sw	t1,-40(s0)
    3b04:	fd842303          	lw	t1,-40(s0)
    3b08:	00030813          	mv	a6,t1
    3b0c:	00000893          	li	a7,0
    3b10:	00010337          	lui	t1,0x10
    3b14:	fff30313          	add	t1,t1,-1 # ffff <_vfiprintf_r+0xa6b>
    3b18:	00687333          	and	t1,a6,t1
    3b1c:	fe642023          	sw	t1,-32(s0)
    3b20:	0008f813          	and	a6,a7,0
    3b24:	ff042223          	sw	a6,-28(s0)
        alt_timestamp_type upper = IORD_ALTERA_AVALON_TIMER_SNAPH(base) & ALTERA_AVALON_TIMER_SNAPH_MSK;
    3b28:	fd042803          	lw	a6,-48(s0)
    3b2c:	01480813          	add	a6,a6,20
    3b30:	00082803          	lw	a6,0(a6)
    3b34:	fd042e23          	sw	a6,-36(s0)
    3b38:	fdc42803          	lw	a6,-36(s0)
    3b3c:	00080513          	mv	a0,a6
    3b40:	00000593          	li	a1,0
    3b44:	00010837          	lui	a6,0x10
    3b48:	fff80813          	add	a6,a6,-1 # ffff <_vfiprintf_r+0xa6b>
    3b4c:	01057833          	and	a6,a0,a6
    3b50:	ff042423          	sw	a6,-24(s0)
    3b54:	0005f593          	and	a1,a1,0
    3b58:	feb42623          	sw	a1,-20(s0)
        
        return (0xFFFFFFFF - ((upper << 16) | lower)); 
    3b5c:	fe842583          	lw	a1,-24(s0)
    3b60:	0105d593          	srl	a1,a1,0x10
    3b64:	fec42503          	lw	a0,-20(s0)
    3b68:	01051793          	sll	a5,a0,0x10
    3b6c:	00f5e7b3          	or	a5,a1,a5
    3b70:	fe842583          	lw	a1,-24(s0)
    3b74:	01059713          	sll	a4,a1,0x10
    3b78:	fe042583          	lw	a1,-32(s0)
    3b7c:	00e5e633          	or	a2,a1,a4
    3b80:	fe442583          	lw	a1,-28(s0)
    3b84:	00f5e6b3          	or	a3,a1,a5
    3b88:	fff00713          	li	a4,-1
    3b8c:	00000793          	li	a5,0
    3b90:	40c70533          	sub	a0,a4,a2
    3b94:	00050813          	mv	a6,a0
    3b98:	01073833          	sltu	a6,a4,a6
    3b9c:	40d785b3          	sub	a1,a5,a3
    3ba0:	410587b3          	sub	a5,a1,a6
    3ba4:	00078593          	mv	a1,a5
    3ba8:	00050713          	mv	a4,a0
    3bac:	00058793          	mv	a5,a1
#endif
  }
}
    3bb0:	00070513          	mv	a0,a4
    3bb4:	00078593          	mv	a1,a5
    3bb8:	02c12403          	lw	s0,44(sp)
    3bbc:	03010113          	add	sp,sp,48
    3bc0:	00008067          	ret

00003bc4 <alt_timestamp_freq>:
 * Return the number of timestamp ticks per second. This will be 0 if no
 * timestamp device has been registered.
 */

alt_u32 alt_timestamp_freq(void)
{
    3bc4:	ff010113          	add	sp,sp,-16
    3bc8:	00812623          	sw	s0,12(sp)
    3bcc:	01010413          	add	s0,sp,16
  return altera_avalon_timer_ts_freq;
    3bd0:	000207b7          	lui	a5,0x20
    3bd4:	c087a783          	lw	a5,-1016(a5) # 1fc08 <altera_avalon_timer_ts_freq>
}
    3bd8:	00078513          	mv	a0,a5
    3bdc:	00c12403          	lw	s0,12(sp)
    3be0:	01010113          	add	sp,sp,16
    3be4:	00008067          	ret

00003be8 <alt_alarm_start>:
 */ 

int alt_alarm_start (alt_alarm* alarm, alt_u32 nticks,
                     alt_u32 (*callback) (void* context),
                     void* context)
{
    3be8:	fc010113          	add	sp,sp,-64
    3bec:	02812e23          	sw	s0,60(sp)
    3bf0:	04010413          	add	s0,sp,64
    3bf4:	fca42623          	sw	a0,-52(s0)
    3bf8:	fcb42423          	sw	a1,-56(s0)
    3bfc:	fcc42223          	sw	a2,-60(s0)
    3c00:	fcd42023          	sw	a3,-64(s0)
  alt_irq_context irq_context;
  alt_u64 current_nticks = 0;
    3c04:	00000713          	li	a4,0
    3c08:	00000793          	li	a5,0
    3c0c:	fee42423          	sw	a4,-24(s0)
    3c10:	fef42623          	sw	a5,-20(s0)
  return _alt_tick_rate;
    3c14:	000207b7          	lui	a5,0x20
    3c18:	c107a783          	lw	a5,-1008(a5) # 1fc10 <_alt_tick_rate>
  
  if (alt_ticks_per_second ())
    3c1c:	12078063          	beqz	a5,3d3c <alt_alarm_start+0x154>
  {
    if (alarm)
    3c20:	fcc42783          	lw	a5,-52(s0)
    3c24:	10078863          	beqz	a5,3d34 <alt_alarm_start+0x14c>
    {
      alarm->callback = callback;
    3c28:	fcc42783          	lw	a5,-52(s0)
    3c2c:	fc442703          	lw	a4,-60(s0)
    3c30:	00e7a823          	sw	a4,16(a5)
      alarm->context  = context;
    3c34:	fcc42783          	lw	a5,-52(s0)
    3c38:	fc042703          	lw	a4,-64(s0)
    3c3c:	00e7aa23          	sw	a4,20(a5)
    NIOSV_READ_AND_CLR_CSR(NIOSV_MSTATUS_CSR, context, NIOSV_MSTATUS_MIE_MASK);
    3c40:	00800793          	li	a5,8
    3c44:	3007b7f3          	csrrc	a5,mstatus,a5
    3c48:	fef42223          	sw	a5,-28(s0)
    return context;
    3c4c:	fe442783          	lw	a5,-28(s0)
 
      irq_context = alt_irq_disable_all ();
    3c50:	fcf42a23          	sw	a5,-44(s0)
 * alt_nticks() returns the elapsed number of system clock ticks since reset.
 */

static ALT_INLINE alt_u64 ALT_ALWAYS_INLINE alt_nticks (void)
{
  return _alt_nticks;
    3c54:	000207b7          	lui	a5,0x20
    3c58:	c187a703          	lw	a4,-1000(a5) # 1fc18 <_alt_nticks>
    3c5c:	c1c7a783          	lw	a5,-996(a5)
      
      current_nticks = alt_nticks();
    3c60:	fee42423          	sw	a4,-24(s0)
    3c64:	fef42623          	sw	a5,-20(s0)
      
      alarm->time = (alt_u64)nticks + current_nticks + 1; 
    3c68:	fc842783          	lw	a5,-56(s0)
    3c6c:	00078813          	mv	a6,a5
    3c70:	00000893          	li	a7,0
    3c74:	fe842603          	lw	a2,-24(s0)
    3c78:	fec42683          	lw	a3,-20(s0)
    3c7c:	00c80733          	add	a4,a6,a2
    3c80:	00070593          	mv	a1,a4
    3c84:	0105b5b3          	sltu	a1,a1,a6
    3c88:	00d887b3          	add	a5,a7,a3
    3c8c:	00f586b3          	add	a3,a1,a5
    3c90:	00068793          	mv	a5,a3
    3c94:	00070613          	mv	a2,a4
    3c98:	00078693          	mv	a3,a5
    3c9c:	00100513          	li	a0,1
    3ca0:	00000593          	li	a1,0
    3ca4:	00a60733          	add	a4,a2,a0
    3ca8:	00070813          	mv	a6,a4
    3cac:	00c83833          	sltu	a6,a6,a2
    3cb0:	00b687b3          	add	a5,a3,a1
    3cb4:	00f806b3          	add	a3,a6,a5
    3cb8:	00068793          	mv	a5,a3
    3cbc:	fcc42683          	lw	a3,-52(s0)
    3cc0:	00e6a423          	sw	a4,8(a3)
    3cc4:	00f6a623          	sw	a5,12(a3)
          
      alt_llist_insert (&alt_alarm_list, &alarm->llist);
    3cc8:	fcc42783          	lw	a5,-52(s0)
    3ccc:	81818713          	add	a4,gp,-2024 # 1e2f8 <alt_alarm_list>
    3cd0:	fce42e23          	sw	a4,-36(s0)
    3cd4:	fef42023          	sw	a5,-32(s0)
 */

static ALT_INLINE void ALT_ALWAYS_INLINE alt_llist_insert(alt_llist* list, 
                alt_llist* entry)
{
  entry->previous = list;
    3cd8:	fe042783          	lw	a5,-32(s0)
    3cdc:	fdc42703          	lw	a4,-36(s0)
    3ce0:	00e7a223          	sw	a4,4(a5)
  entry->next     = list->next;
    3ce4:	fdc42783          	lw	a5,-36(s0)
    3ce8:	0007a703          	lw	a4,0(a5)
    3cec:	fe042783          	lw	a5,-32(s0)
    3cf0:	00e7a023          	sw	a4,0(a5)

  list->next->previous = entry;
    3cf4:	fdc42783          	lw	a5,-36(s0)
    3cf8:	0007a783          	lw	a5,0(a5)
    3cfc:	fe042703          	lw	a4,-32(s0)
    3d00:	00e7a223          	sw	a4,4(a5)
  list->next           = entry;
    3d04:	fdc42783          	lw	a5,-36(s0)
    3d08:	fe042703          	lw	a4,-32(s0)
    3d0c:	00e7a023          	sw	a4,0(a5)
}
    3d10:	00000013          	nop
    3d14:	fd442783          	lw	a5,-44(s0)
    3d18:	fcf42c23          	sw	a5,-40(s0)
    NIOSV_SET_CSR(NIOSV_MSTATUS_CSR, context & NIOSV_MSTATUS_MIE_MASK);
    3d1c:	fd842783          	lw	a5,-40(s0)
    3d20:	0087f793          	and	a5,a5,8
    3d24:	3007a073          	csrs	mstatus,a5
}
    3d28:	00000013          	nop
      alt_irq_enable_all (irq_context);

      return 0;
    3d2c:	00000793          	li	a5,0
    3d30:	0100006f          	j	3d40 <alt_alarm_start+0x158>
    }
    else
    {
      return -EINVAL;
    3d34:	fea00793          	li	a5,-22
    3d38:	0080006f          	j	3d40 <alt_alarm_start+0x158>
    }
  }
  else
  {
    return -ENOTSUP;
    3d3c:	f7a00793          	li	a5,-134
  }
}
    3d40:	00078513          	mv	a0,a5
    3d44:	03c12403          	lw	s0,60(sp)
    3d48:	04010113          	add	sp,sp,64
    3d4c:	00008067          	ret

00003d50 <alt_dcache_flush_all>:

/*
 * alt_dcache_flush_all() is called to flush the entire data cache.
 */
void alt_dcache_flush_all (void)
{
    3d50:	ff010113          	add	sp,sp,-16
    3d54:	00812623          	sw	s0,12(sp)
    3d58:	01010413          	add	s0,sp,16
    for (i = (char*)0; i < (char*) ALT_CPU_DCACHE_SIZE; i+= ALT_CPU_DCACHE_LINE_SIZE)
    { 
      DCACHE_CLEAN_BY_INDEX_VAL(i); 
    }
#endif
}
    3d5c:	00000013          	nop
    3d60:	00c12403          	lw	s0,12(sp)
    3d64:	01010113          	add	sp,sp,16
    3d68:	00008067          	ret

00003d6c <alt_dev_null_write>:
 * by the alt_dev_null device. It simple discards all data passed to it, and
 * indicates that the data has been successfully transmitted.
 */

static int alt_dev_null_write (alt_fd* fd, const char* ptr, int len)
{
    3d6c:	fe010113          	add	sp,sp,-32
    3d70:	00812e23          	sw	s0,28(sp)
    3d74:	02010413          	add	s0,sp,32
    3d78:	fea42623          	sw	a0,-20(s0)
    3d7c:	feb42423          	sw	a1,-24(s0)
    3d80:	fec42223          	sw	a2,-28(s0)
  return len;
    3d84:	fe442783          	lw	a5,-28(s0)
}
    3d88:	00078513          	mv	a0,a5
    3d8c:	01c12403          	lw	s0,28(sp)
    3d90:	02010113          	add	sp,sp,32
    3d94:	00008067          	ret

00003d98 <alt_dev_reg>:
    }
    /* all other elements are set to zero */
  };
  
int alt_dev_reg (alt_dev* dev)
{
    3d98:	fe010113          	add	sp,sp,-32
    3d9c:	00112e23          	sw	ra,28(sp)
    3da0:	00812c23          	sw	s0,24(sp)
    3da4:	02010413          	add	s0,sp,32
    3da8:	fea42623          	sw	a0,-20(s0)
    return alt_dev_llist_insert ((alt_dev_llist*) dev, &alt_dev_list);
    3dac:	0001e7b7          	lui	a5,0x1e
    3db0:	2e878593          	add	a1,a5,744 # 1e2e8 <alt_dev_list>
    3db4:	fec42503          	lw	a0,-20(s0)
    3db8:	060000ef          	jal	3e18 <alt_dev_llist_insert>
    3dbc:	00050793          	mv	a5,a0
}
    3dc0:	00078513          	mv	a0,a5
    3dc4:	01c12083          	lw	ra,28(sp)
    3dc8:	01812403          	lw	s0,24(sp)
    3dcc:	02010113          	add	sp,sp,32
    3dd0:	00008067          	ret

00003dd4 <alt_get_errno>:
    3dd4:	ff010113          	add	sp,sp,-16
    3dd8:	00112623          	sw	ra,12(sp)
    3ddc:	00812423          	sw	s0,8(sp)
    3de0:	01010413          	add	s0,sp,16
    3de4:	8141a783          	lw	a5,-2028(gp) # 1e2f4 <alt_errno>
    3de8:	00078a63          	beqz	a5,3dfc <alt_get_errno+0x28>
    3dec:	8141a783          	lw	a5,-2028(gp) # 1e2f4 <alt_errno>
    3df0:	000780e7          	jalr	a5
    3df4:	00050793          	mv	a5,a0
    3df8:	00c0006f          	j	3e04 <alt_get_errno+0x30>
    3dfc:	000207b7          	lui	a5,0x20
    3e00:	c2078793          	add	a5,a5,-992 # 1fc20 <errno>
    3e04:	00078513          	mv	a0,a5
    3e08:	00c12083          	lw	ra,12(sp)
    3e0c:	00812403          	lw	s0,8(sp)
    3e10:	01010113          	add	sp,sp,16
    3e14:	00008067          	ret

00003e18 <alt_dev_llist_insert>:
{
    3e18:	fd010113          	add	sp,sp,-48
    3e1c:	02112623          	sw	ra,44(sp)
    3e20:	02812423          	sw	s0,40(sp)
    3e24:	03010413          	add	s0,sp,48
    3e28:	fca42e23          	sw	a0,-36(s0)
    3e2c:	fcb42c23          	sw	a1,-40(s0)
  if (!dev || !dev->name)
    3e30:	fdc42783          	lw	a5,-36(s0)
    3e34:	00078863          	beqz	a5,3e44 <alt_dev_llist_insert+0x2c>
    3e38:	fdc42783          	lw	a5,-36(s0)
    3e3c:	0087a783          	lw	a5,8(a5)
    3e40:	00079e63          	bnez	a5,3e5c <alt_dev_llist_insert+0x44>
    ALT_ERRNO = EINVAL;
    3e44:	f91ff0ef          	jal	3dd4 <alt_get_errno>
    3e48:	00050713          	mv	a4,a0
    3e4c:	01600793          	li	a5,22
    3e50:	00f72023          	sw	a5,0(a4)
    return -EINVAL;
    3e54:	fea00793          	li	a5,-22
    3e58:	0540006f          	j	3eac <alt_dev_llist_insert+0x94>
  alt_llist_insert(list, &dev->llist);
    3e5c:	fdc42783          	lw	a5,-36(s0)
    3e60:	fd842703          	lw	a4,-40(s0)
    3e64:	fee42423          	sw	a4,-24(s0)
    3e68:	fef42623          	sw	a5,-20(s0)
  entry->previous = list;
    3e6c:	fec42783          	lw	a5,-20(s0)
    3e70:	fe842703          	lw	a4,-24(s0)
    3e74:	00e7a223          	sw	a4,4(a5)
  entry->next     = list->next;
    3e78:	fe842783          	lw	a5,-24(s0)
    3e7c:	0007a703          	lw	a4,0(a5)
    3e80:	fec42783          	lw	a5,-20(s0)
    3e84:	00e7a023          	sw	a4,0(a5)
  list->next->previous = entry;
    3e88:	fe842783          	lw	a5,-24(s0)
    3e8c:	0007a783          	lw	a5,0(a5)
    3e90:	fec42703          	lw	a4,-20(s0)
    3e94:	00e7a223          	sw	a4,4(a5)
  list->next           = entry;
    3e98:	fe842783          	lw	a5,-24(s0)
    3e9c:	fec42703          	lw	a4,-20(s0)
    3ea0:	00e7a023          	sw	a4,0(a5)
}
    3ea4:	00000013          	nop
  return 0;  
    3ea8:	00000793          	li	a5,0
}
    3eac:	00078513          	mv	a0,a5
    3eb0:	02c12083          	lw	ra,44(sp)
    3eb4:	02812403          	lw	s0,40(sp)
    3eb8:	03010113          	add	sp,sp,48
    3ebc:	00008067          	ret

00003ec0 <_do_ctors>:
/*
 * Run the C++ static constructors.
 */

void _do_ctors(void)
{
    3ec0:	fe010113          	add	sp,sp,-32
    3ec4:	00112e23          	sw	ra,28(sp)
    3ec8:	00812c23          	sw	s0,24(sp)
    3ecc:	02010413          	add	s0,sp,32
  constructor* ctor;

  for (ctor = __init_array_start; ctor < __init_array_end; ctor++)
    3ed0:	0001c7b7          	lui	a5,0x1c
    3ed4:	9bc78793          	add	a5,a5,-1604 # 1b9bc <__init_array_start>
    3ed8:	fef42623          	sw	a5,-20(s0)
    3edc:	01c0006f          	j	3ef8 <_do_ctors+0x38>
        (*ctor) (); 
    3ee0:	fec42783          	lw	a5,-20(s0)
    3ee4:	0007a783          	lw	a5,0(a5)
    3ee8:	000780e7          	jalr	a5
  for (ctor = __init_array_start; ctor < __init_array_end; ctor++)
    3eec:	fec42783          	lw	a5,-20(s0)
    3ef0:	00478793          	add	a5,a5,4
    3ef4:	fef42623          	sw	a5,-20(s0)
    3ef8:	fec42703          	lw	a4,-20(s0)
    3efc:	0001c7b7          	lui	a5,0x1c
    3f00:	9c478793          	add	a5,a5,-1596 # 1b9c4 <__fini_array_end>
    3f04:	fcf76ee3          	bltu	a4,a5,3ee0 <_do_ctors+0x20>
}
    3f08:	00000013          	nop
    3f0c:	00000013          	nop
    3f10:	01c12083          	lw	ra,28(sp)
    3f14:	01812403          	lw	s0,24(sp)
    3f18:	02010113          	add	sp,sp,32
    3f1c:	00008067          	ret

00003f20 <_do_dtors>:
/*
 * Run the C++ static destructors.
 */

void _do_dtors(void)
{
    3f20:	fe010113          	add	sp,sp,-32
    3f24:	00112e23          	sw	ra,28(sp)
    3f28:	00812c23          	sw	s0,24(sp)
    3f2c:	02010413          	add	s0,sp,32
  destructor* dtor;

  for (dtor = &__fini_array_end[-1]; dtor >= __fini_array_start; dtor--)
    3f30:	0001c7b7          	lui	a5,0x1c
    3f34:	9c078793          	add	a5,a5,-1600 # 1b9c0 <__init_array_start+0x4>
    3f38:	fef42623          	sw	a5,-20(s0)
    3f3c:	01c0006f          	j	3f58 <_do_dtors+0x38>
        (*dtor) (); 
    3f40:	fec42783          	lw	a5,-20(s0)
    3f44:	0007a783          	lw	a5,0(a5)
    3f48:	000780e7          	jalr	a5
  for (dtor = &__fini_array_end[-1]; dtor >= __fini_array_start; dtor--)
    3f4c:	fec42783          	lw	a5,-20(s0)
    3f50:	ffc78793          	add	a5,a5,-4
    3f54:	fef42623          	sw	a5,-20(s0)
    3f58:	fec42703          	lw	a4,-20(s0)
    3f5c:	0001c7b7          	lui	a5,0x1c
    3f60:	9c478793          	add	a5,a5,-1596 # 1b9c4 <__fini_array_end>
    3f64:	fcf77ee3          	bgeu	a4,a5,3f40 <_do_dtors+0x20>
}
    3f68:	00000013          	nop
    3f6c:	00000013          	nop
    3f70:	01c12083          	lw	ra,28(sp)
    3f74:	01812403          	lw	s0,24(sp)
    3f78:	02010113          	add	sp,sp,32
    3f7c:	00008067          	ret

00003f80 <alt_icache_flush_all>:
/*
 * alt_icache_flush_all() is called to flush the entire instruction cache.
 */

void alt_icache_flush_all (void)
{
    3f80:	ff010113          	add	sp,sp,-16
    3f84:	00812623          	sw	s0,12(sp)
    3f88:	01010413          	add	s0,sp,16
#if ALT_CPU_ICACHE_SIZE > 0
    __asm__ volatile("fence.i" ::: "memory");
#endif
}
    3f8c:	00000013          	nop
    3f90:	00c12403          	lw	s0,12(sp)
    3f94:	01010113          	add	sp,sp,16
    3f98:	00008067          	ret

00003f9c <alt_ic_isr_register>:
  * @return                 0 if successful, else error (-1)
  */
int 
alt_ic_isr_register(alt_u32 ic_id, alt_u32 irq, alt_isr_func isr, 
  void *isr_context, void *flags)
{
    3f9c:	fd010113          	add	sp,sp,-48
    3fa0:	02112623          	sw	ra,44(sp)
    3fa4:	02812423          	sw	s0,40(sp)
    3fa8:	03010413          	add	s0,sp,48
    3fac:	fea42623          	sw	a0,-20(s0)
    3fb0:	feb42423          	sw	a1,-24(s0)
    3fb4:	fec42223          	sw	a2,-28(s0)
    3fb8:	fed42023          	sw	a3,-32(s0)
    3fbc:	fce42e23          	sw	a4,-36(s0)
