
main.elf:     file format elf32-littleriscv
main.elf
architecture: riscv:rv32, flags 0x00000112:
EXEC_P, HAS_SYMS, D_PAGED
start address 0x00000314

Program Header:
0x70000003 off    0x00017b3e vaddr 0x00000000 paddr 0x00000000 align 2**0
         filesz 0x00000020 memsz 0x00000000 flags r--
    LOAD off    0x00001000 vaddr 0x00000000 paddr 0x00000000 align 2**12
         filesz 0x00000020 memsz 0x00000020 flags r-x
    LOAD off    0x00001020 vaddr 0x00000020 paddr 0x00000020 align 2**12
         filesz 0x00015220 memsz 0x00015220 flags r-x
    LOAD off    0x00016240 vaddr 0x00015240 paddr 0x00016b2c align 2**12
         filesz 0x000018ec memsz 0x000018ec flags rw-
    LOAD off    0x00000418 vaddr 0x00018418 paddr 0x00018418 align 2**12
         filesz 0x00000000 memsz 0x000003e8 flags rw-

Sections:
Idx Name          Size      VMA       LMA       File off  Algn
  0 .entry        00000020  00000000  00000000  00001000  2**5
                  CONTENTS, ALLOC, LOAD, READONLY, CODE
  1 .exceptions   000001bc  00000020  00000020  00001020  2**2
                  CONTENTS, ALLOC, LOAD, READONLY, CODE
  2 .text         000145f8  000001dc  000001dc  000011dc  2**2
                  CONTENTS, ALLOC, LOAD, READONLY, CODE
  3 .rodata       00000a60  000147e0  000147e0  000157e0  2**4
                  CONTENTS, ALLOC, LOAD, READONLY, DATA
  4 .rwdata       000018ec  00015240  00016b2c  00016240  2**3
                  CONTENTS, ALLOC, LOAD, DATA
  5 .bss          000003e8  00018418  00018418  00018418  2**3
                  ALLOC
  6 .SDRAM        00000000  00018800  00018800  00017b2c  2**0
                  CONTENTS
  7 .RAM          00000000  04000000  04000000  00017b2c  2**0
                  CONTENTS
  8 .comment      00000012  00000000  00000000  00017b2c  2**0
                  CONTENTS, READONLY
  9 .riscv.attributes 00000020  00000000  00000000  00017b3e  2**0
                  CONTENTS, READONLY
 10 .debug_aranges 00000898  00000000  00000000  00017b60  2**3
                  CONTENTS, READONLY, DEBUGGING, OCTETS
 11 .debug_info   0000f84e  00000000  00000000  000183f8  2**0
                  CONTENTS, READONLY, DEBUGGING, OCTETS
 12 .debug_abbrev 000057a6  00000000  00000000  00027c46  2**0
                  CONTENTS, READONLY, DEBUGGING, OCTETS
 13 .debug_line   0001695a  00000000  00000000  0002d3ec  2**0
                  CONTENTS, READONLY, DEBUGGING, OCTETS
 14 .debug_frame  00000e98  00000000  00000000  00043d48  2**2
                  CONTENTS, READONLY, DEBUGGING, OCTETS
 15 .debug_str    00001d41  00000000  00000000  00044be0  2**0
                  CONTENTS, READONLY, DEBUGGING, OCTETS
 16 .debug_loclists 0000b9d8  00000000  00000000  00046921  2**0
                  CONTENTS, READONLY, DEBUGGING, OCTETS
 17 .debug_rnglists 00001ace  00000000  00000000  000522f9  2**0
                  CONTENTS, READONLY, DEBUGGING, OCTETS
 18 .debug_line_str 00001b9e  00000000  00000000  00053dc7  2**0
                  CONTENTS, READONLY, DEBUGGING, OCTETS
 19 .debug_ranges 00000020  00000000  00000000  00055968  2**3
                  CONTENTS, READONLY, DEBUGGING, OCTETS
SYMBOL TABLE:
00000000 l    d  .entry	00000000 .entry
00000020 l    d  .exceptions	00000000 .exceptions
000001dc l    d  .text	00000000 .text
000147e0 l    d  .rodata	00000000 .rodata
00015240 l    d  .rwdata	00000000 .rwdata
00018418 l    d  .bss	00000000 .bss
00018800 l    d  .SDRAM	00000000 .SDRAM
04000000 l    d  .RAM	00000000 .RAM
00000000 l    d  .comment	00000000 .comment
00000000 l    d  .riscv.attributes	00000000 .riscv.attributes
00000000 l    d  .debug_aranges	00000000 .debug_aranges
00000000 l    d  .debug_info	00000000 .debug_info
00000000 l    d  .debug_abbrev	00000000 .debug_abbrev
00000000 l    d  .debug_line	00000000 .debug_line
00000000 l    d  .debug_frame	00000000 .debug_frame
00000000 l    d  .debug_str	00000000 .debug_str
00000000 l    d  .debug_loclists	00000000 .debug_loclists
00000000 l    d  .debug_rnglists	00000000 .debug_rnglists
00000000 l    d  .debug_line_str	00000000 .debug_line_str
00000000 l    d  .debug_ranges	00000000 .debug_ranges
00000000 l    df *ABS*	00000000 crt0.S.obj
000003bc l       .text	00000000 alt_after_alt_main
00000000 l    df *ABS*	00000000 machine_trap.S.obj
00000020 l       .exceptions	00000000 save_registers
00000000 l    df *ABS*	00000000 alt_irq_handler.c
00000000 l    df *ABS*	00000000 main.c
00000000 l    df *ABS*	00000000 alt_load.c
00000000 l    df *ABS*	00000000 alt_main.c
00000000 l    df *ABS*	00000000 alt_sys_init.c
00015250 l     O .rwdata	00001060 JTAG_UART
00000000 l    df *ABS*	00000000 altera_avalon_jtag_uart_fd.c
00000000 l    df *ABS*	00000000 altera_avalon_jtag_uart_init.c
0000057c l     F .text	00000110 altera_avalon_jtag_uart_irq
0000068c l     F .text	0000005c altera_avalon_jtag_uart_timeout
00000000 l    df *ABS*	00000000 altera_avalon_jtag_uart_ioctl.c
00000000 l    df *ABS*	00000000 altera_avalon_jtag_uart_read.c
00000000 l    df *ABS*	00000000 altera_avalon_jtag_uart_write.c
00000000 l    df *ABS*	00000000 alt_alarm_start.c
00000000 l    df *ABS*	00000000 alt_dcache_flush_all.c
00000000 l    df *ABS*	00000000 alt_dev.c
00000ba0 l     F .text	00000008 alt_dev_null_write
00000000 l    df *ABS*	00000000 alt_dev_llist_insert.c
00000000 l    df *ABS*	00000000 alt_do_ctors.c
00000000 l    df *ABS*	00000000 alt_do_dtors.c
00000000 l    df *ABS*	00000000 alt_errno.c
00000000 l    df *ABS*	00000000 alt_icache_flush_all.c
00000000 l    df *ABS*	00000000 alt_iic.c
00000000 l    df *ABS*	00000000 alt_iic_isr_register.c
00000000 l    df *ABS*	00000000 alt_io_redirect.c
00000000 l    df *ABS*	00000000 alt_release_fd.c
00000000 l    df *ABS*	00000000 alt_tick.c
00000000 l    df *ABS*	00000000 intel_niosv_irq.c
00000000 l    df *ABS*	00000000 mtimer.c
00000000 l    df *ABS*	00000000 libc_a-exit.o
00000000 l    df *ABS*	00000000 libc_a-sysopen.o
00000000 l    df *ABS*	00000000 libc_a-reent.o
00000000 l    df *ABS*	00000000 libc_a-findfp.o
00001354 l     F .text	0000001c stdio_exit_handler
00001370 l     F .text	00000070 cleanup_stdio
000013e0 l     F .text	00000040 __fp_lock
00001420 l     F .text	00000040 __fp_unlock
00001460 l     F .text	00000190 global_stdio_init.part.0
00000000 l    df *ABS*	00000000 libc_a-setvbuf.o
00000000 l    df *ABS*	00000000 libc_a-openr.o
00000000 l    df *ABS*	00000000 libc_a-fwalk.o
00000000 l    df *ABS*	00000000 libc_a-stdio.o
00000000 l    df *ABS*	00000000 libc_a-malloc.o
00000000 l    df *ABS*	00000000 libc_a-mallocr.o
00000000 l    df *ABS*	00000000 libc_a-__call_atexit.o
0000269c l     F .text	00000018 register_fini
00000000 l    df *ABS*	00000000 libc_a-sbrkr.o
00000000 l    df *ABS*	00000000 libc_a-writer.o
00000000 l    df *ABS*	00000000 libc_a-makebuf.o
00000000 l    df *ABS*	00000000 libc_a-mlock.o
00000000 l    df *ABS*	00000000 libc_a-atexit.o
00000000 l    df *ABS*	00000000 libc_a-fini.o
00000000 l    df *ABS*	00000000 libc_a-lock.o
00000000 l    df *ABS*	00000000 libc_a-sysclose.o
00000000 l    df *ABS*	00000000 libc_a-fclose.o
00000000 l    df *ABS*	00000000 libc_a-memset.o
00000000 l    df *ABS*	00000000 libc_a-memcpy.o
00000000 l    df *ABS*	00000000 libc_a-printf.o
00000000 l    df *ABS*	00000000 libc_a-freer.o
00000000 l    df *ABS*	00000000 libc_a-fflush.o
00000000 l    df *ABS*	00000000 libc_a-closer.o
00000000 l    df *ABS*	00000000 libc_a-fstatr.o
00000000 l    df *ABS*	00000000 libc_a-isattyr.o
00000000 l    df *ABS*	00000000 libc_a-lseekr.o
00000000 l    df *ABS*	00000000 libc_a-readr.o
00000000 l    df *ABS*	00000000 libc_a-vfprintf.o
000062ec l     F .text	000000f8 __sbprintf
00014ba0 l     O .rodata	00000010 blanks.1
00014bb0 l     O .rodata	00000010 zeroes.0
00000000 l    df *ABS*	00000000 libc_a-__atexit.o
00000000 l    df *ABS*	00000000 libc_a-wsetup.o
00000000 l    df *ABS*	00000000 libc_a-memchr.o
00000000 l    df *ABS*	00000000 libc_a-localeconv.o
00000000 l    df *ABS*	00000000 libc_a-sprint_r.o
00000000 l    df *ABS*	00000000 libc_a-strlen.o
00000000 l    df *ABS*	00000000 libm_a-frexpl.o
00000000 l    df *ABS*	00000000 libc_a-gdtoa-ldtoa.o
00000000 l    df *ABS*	00000000 libc_a-gdtoa-gdtoa.o
00000000 l    df *ABS*	00000000 libc_a-gdtoa-dmisc.o
000089cc l     F .text	00000024 __rv_alloc_D2A.part.0
00000000 l    df *ABS*	00000000 libc_a-strncpy.o
00000000 l    df *ABS*	00000000 libc_a-gdtoa-gmisc.o
00000000 l    df *ABS*	00000000 libc_a-fvwrite.o
00000000 l    df *ABS*	00000000 libc_a-assert.o
00000000 l    df *ABS*	00000000 libc_a-mprec.o
00014c38 l     O .rodata	0000000c p05.0
00000000 l    df *ABS*	00000000 libc_a-callocr.o
00000000 l    df *ABS*	00000000 libc_a-locale.o
00000000 l    df *ABS*	00000000 libc_a-memmove-stub.o
00000000 l    df *ABS*	00000000 libc_a-strcmp.o
00000000 l    df *ABS*	00000000 libc_a-reallocr.o
00000000 l    df *ABS*	00000000 libc_a-fiprintf.o
00000000 l    df *ABS*	00000000 libc_a-wctomb_r.o
00000000 l    df *ABS*	00000000 libc_a-vfiprintf.o
0000c5cc l     F .text	000000f8 __sbprintf
00014ecc l     O .rodata	00000010 blanks.1
00014edc l     O .rodata	00000010 zeroes.0
00000000 l    df *ABS*	00000000 libc_a-abort.o
00000000 l    df *ABS*	00000000 libc_a-mbtowc_r.o
00000000 l    df *ABS*	00000000 libc_a-errno.o
00000000 l    df *ABS*	00000000 libc_a-signal.o
00000000 l    df *ABS*	00000000 libc_a-signalr.o
00000000 l    df *ABS*	00000000 libgcc2.c
00000000 l    df *ABS*	00000000 libgcc2.c
00000000 l    df *ABS*	00000000 adddf3.c
00000000 l    df *ABS*	00000000 divdf3.c
00000000 l    df *ABS*	00000000 eqdf2.c
00000000 l    df *ABS*	00000000 gedf2.c
00000000 l    df *ABS*	00000000 ledf2.c
00000000 l    df *ABS*	00000000 muldf3.c
00000000 l    df *ABS*	00000000 subdf3.c
00000000 l    df *ABS*	00000000 fixdfsi.c
00000000 l    df *ABS*	00000000 floatsidf.c
00000000 l    df *ABS*	00000000 eqtf2.c
00000000 l    df *ABS*	00000000 getf2.c
00000000 l    df *ABS*	00000000 letf2.c
00000000 l    df *ABS*	00000000 multf3.c
00000000 l    df *ABS*	00000000 subtf3.c
00000000 l    df *ABS*	00000000 unordtf2.c
00000000 l    df *ABS*	00000000 fixtfsi.c
00000000 l    df *ABS*	00000000 floatsitf.c
00000000 l    df *ABS*	00000000 divsf3.c
00000000 l    df *ABS*	00000000 floatunsisf.c
00000000 l    df *ABS*	00000000 extendsfdf2.c
00000000 l    df *ABS*	00000000 extenddftf2.c
00000000 l    df *ABS*	00000000 muldi3.o
00000000 l    df *ABS*	00000000 div.o
00000000 l    df *ABS*	00000000 libgcc2.c
00000000 l    df *ABS*	00000000 libgcc2.c
00000000 l    df *ABS*	00000000 alt_close.c
00000000 l    df *ABS*	00000000 alt_exit.c
00000000 l    df *ABS*	00000000 alt_fstat.c
00000000 l    df *ABS*	00000000 alt_getpid.c
00000000 l    df *ABS*	00000000 alt_isatty.c
00000000 l    df *ABS*	00000000 alt_kill.c
00000000 l    df *ABS*	00000000 alt_lseek.c
00000000 l    df *ABS*	00000000 alt_open.c
00000000 l    df *ABS*	00000000 alt_read.c
00000000 l    df *ABS*	00000000 alt_sbrk.c
00016b28 l     O .rwdata	00000004 heap_end
00000000 l    df *ABS*	00000000 alt_write.c
00000000 l    df *ABS*	00000000 alt_find_dev.c
00000000 l    df *ABS*	00000000 alt_find_file.c
00000000 l    df *ABS*	00000000 alt_get_fd.c
00000000 l    df *ABS*	00000000 libc_a-stack_protector.o
00000000 l    df *ABS*	00000000 libc_a-sysfstat.o
00000000 l    df *ABS*	00000000 libc_a-syswrite.o
000089f0 g     F .text	0000006c __rv_alloc_D2A
000145c4 g     F .text	0000000c .hidden __stack_chk_fail_local
0000a690 g     F .text	000000a4 _mprec_log10
0000a79c g     F .text	00000064 __any_on
00003828 g     F .text	00000058 _isatty_r
00014d10 g     O .rodata	00000028 __mprec_tinytens
0000045c g     F .text	0000006c alt_main
00013e68 g     F .text	00000008 _getpid
00018490 g     O .bss	00000080 alt_irq
00003880 g     F .text	00000064 _lseek_r
00016b2c g       *ABS*	00000000 __flash_rwdata_start
00010048 g     F .text	00000160 .hidden __getf2
0000eb10 g     F .text	0000008c .hidden __eqdf2
00018800 g       *ABS*	00000000 __alt_heap_start
0000cc98 g     F .text	00000060 _kill_r
0000ff78 g     F .text	000000d0 .hidden __eqtf2
00002ee0 g     F .text	0000004c printf
000172f8 g       *ABS*	00000000 __global_pointer$
00018480 g     O .bss	00000001 __lock___atexit_recursive_mutex
0000c7b4 g     F .text	0000009c _signal_r
00001cd4 g     F .text	00000078 __sseek
00001748 g     F .text	00000070 __sinit
0000a9bc g     F .text	0000007c _setlocale_r
00015240 g       *ABS*	00000000 __tls_base
000029ec g     F .text	0000000c __malloc_unlock
0001315c g     F .text	00000198 .hidden __floatsitf
000132f4 g     F .text	00000464 .hidden __divsf3
00018468 g     O .bss	00000001 __lock___arc4random_mutex
0000aac0 g     F .text	0000010c memmove
000000c0 g     F .exceptions	00000008 is_ecc_handler_present
0000950c g     F .text	000000b4 _Balloc
0001848c g     O .bss	00000004 __stack_chk_guard
0000eb9c g     F .text	00000100 .hidden __gtdf2
00016b24 g     O .rwdata	00000004 __atexit_recursive_mutex
0000c750 g     F .text	00000008 __errno
00002a70 g     F .text	00000004 __retarget_lock_close
00000000 g     F .entry	00000004 __reset
000066d4 g     F .text	00000008 __localeconv_l
00018454 g     O .bss	00000004 __stdio_exit_handler
00000020 g       *ABS*	00000000 __flash_exceptions_start
000037c8 g     F .text	00000060 _fstat_r
00018450 g     O .bss	00000004 errno
00001c44 g     F .text	00000008 __seofread
00018428 g     O .bss	00000004 alt_argv
000162b0 g     O .rwdata	00000180 alt_fd_list
000143dc g     F .text	00000080 alt_find_dev
00002cfc g     F .text	000001a4 memcpy
00001838 g     F .text	00000298 setvbuf
0000fec0 g     F .text	000000b8 .hidden __floatsidf
0000110c g     F .text	00000088 alt_niosv_timer_sc_isr
00000d48 g     F .text	00000188 alt_io_redirect
0000ec9c g     F .text	00000108 .hidden __ltdf2
00014618 g       *ABS*	00000000 __fini_array_end
00013bdc g     F .text	00000048 .hidden __hidden___udivsi3
0000a5e8 g     F .text	000000a8 __ratio
0000081c g     F .text	00000164 altera_avalon_jtag_uart_read
00001d54 g     F .text	0000000c malloc
00002ea0 g     F .text	00000040 _printf_r
000101a8 g     F .text	00000160 .hidden __letf2
00013bdc g     F .text	00000048 .hidden __udivsi3
0000c850 g     F .text	000000c4 _raise_r
00013de8 g     F .text	00000080 _fstat
000094a4 g     F .text	00000054 __assert_func
00014c48 g     O .rodata	000000c8 __mprec_tens
00000150 g     F .exceptions	0000008c handle_trap
00018460 g     O .bss	00000004 __malloc_top_pad
0000ccf8 g     F .text	00000004 _getpid_r
00018430 g     O .bss	00000004 __dso_handle
000066dc g     F .text	0000000c _localeconv_r
000099fc g     F .text	000000b0 __i2b
00008f90 g     F .text	00000514 __sfvwrite_r
0000c914 g     F .text	000000e0 __sigtramp_r
000026b4 g     F .text	00000058 _sbrk_r
000038e4 g     F .text	00000064 _read_r
00016af8 g     O .rwdata	00000004 alt_max_fd
00002aa4 g     F .text	00000170 _fclose_r
000036a0 g     F .text	000000d0 fflush
0001845c g     O .bss	00000004 __malloc_max_sbrked_mem
00013870 g     F .text	000000f8 .hidden __extendsfdf2
0000d9a0 g     F .text	000008c8 .hidden __adddf3
000145d0 g     F .text	0000001c __stack_chk_init
0000a374 g     F .text	0000011c __b2d
00018474 g     O .bss	00000001 __lock___env_recursive_mutex
0000d388 g     F .text	00000618 .hidden __umoddi3
00013e70 g     F .text	000000bc _isatty
0000ad48 g     F .text	00000570 _realloc_r
00018800 g       *ABS*	00000000 __bss_end
00000cc4 g     F .text	00000084 alt_iic_isr_register
00000f28 g     F .text	000000ec alt_tick
0000ccfc g     F .text	0000068c .hidden __udivdi3
00014d38 g     O .rodata	00000028 __mprec_bigtens
00009768 g     F .text	0000013c __s2b
0000c6c4 g     F .text	00000018 abort
00014068 g     F .text	00000174 _open
000142b8 g     F .text	0000004c _sbrk
0000a054 g     F .text	00000058 __mcmp
0001452c g     F .text	00000098 __stack_chk_fail
00015240 g       *ABS*	00000000 __tbss_start
00001194 g     F .text	00000064 alt_niosv_mtimecmp_interrupt_init
00012fc8 g     F .text	00000094 .hidden __unordtf2
000017d0 g     F .text	00000034 __fp_lock_all
00000efc g     F .text	0000002c alt_alarm_stop
00008a5c g     F .text	000000b8 __nrv_alloc_D2A
000000d0 g     F .exceptions	00000080 alt_irq_handler
00016430 g     O .rwdata	00000028 alt_dev_null
00002a0c g     F .text	0000005c __libc_fini_array
000010a0 g     F .text	00000024 alt_niosv_mtime_get
00001270 g     F .text	000000e4 _reclaim_reent
00000b9c g     F .text	00000004 alt_dcache_flush_all
000098a4 g     F .text	00000078 __hi0bits
000000c8 g     F .exceptions	00000008 break_operation
0000fe3c g     F .text	00000084 .hidden __fixdfsi
00018478 g     O .bss	00000001 __lock___malloc_recursive_mutex
00016b2c g       *ABS*	00000000 __ram_rwdata_end
00018510 g     O .bss	00000138 __sf
00016afc g     O .rwdata	00000008 alt_dev_list
000145fc g     F .text	00000014 write
00001094 g     F .text	0000000c alt_timestamp_freq
00015240 g       *ABS*	00000000 __ram_rodata_end
000145ec g     F .text	00000010 fstat
00000000 g       *ABS*	00000000 __alt_mem_SDRAM
0000ec9c g     F .text	00000108 .hidden __ledf2
0001305c g     F .text	00000100 .hidden __fixtfsi
00009d74 g     F .text	00000150 __pow5mult
00013c24 g     F .text	00000010 .hidden __umodsi3
00006d50 g     F .text	00001c7c __gdtoa
00018800 g       *ABS*	00000000 end
00000ba8 g     F .text	0000000c alt_dev_reg
00002a94 g     F .text	00000004 __retarget_lock_release_recursive
00002a88 g     F .text	00000008 __retarget_lock_try_acquire_recursive
000006e8 g     F .text	00000078 altera_avalon_jtag_uart_init
04000000 g       *ABS*	00000000 __alt_stack_pointer
00013c88 g     F .text	00000088 .hidden __clzsi2
00000980 g     F .text	00000198 altera_avalon_jtag_uart_write
000017b8 g     F .text	0000000c __sfp_lock_acquire
00006610 g     F .text	000000c4 memchr
0000306c g     F .text	00000308 _free_r
0000aa38 g     F .text	0000000c __locale_mb_cur_max
00002548 g     F .text	00000154 __call_exitprocs
00018670 g     O .bss	00000190 __atexit0
00015240 g     O .rwdata	00000010 HEX_TBL
00016b1c g     O .rwdata	00000004 __malloc_sbrk_base
00000314 g     F .text	000000ac _start
00018440 g     O .bss	00000004 _alt_tick_rate
00008b2c g     F .text	00000270 __quorem_D2A
00002a80 g     F .text	00000008 __retarget_lock_try_acquire
00013fdc g     F .text	0000008c _lseek
00009ec4 g     F .text	00000190 __lshift
000101a8 g     F .text	00000160 .hidden __lttf2
00018438 g     O .bss	00000008 _alt_nticks
0000cab4 g     F .text	000000a4 signal
0000ff78 g     F .text	000000d0 .hidden __netf2
000010ec g     F .text	00000020 alt_niosv_mtimecmp_get
000004e8 g     F .text	00000058 alt_sys_init
00001ad0 g     F .text	00000064 _open_r
00015240 g       *ABS*	00000000 __tdata_source
000063e4 g     F .text	000000ec __register_exitproc
00006c30 g     F .text	00000120 _ldcheck
00009aac g     F .text	000002c8 __multiply
00000760 g     F .text	00000038 altera_avalon_jtag_uart_close
00013bb0 g     F .text	00000024 .hidden __mulsi3
00015240 g       *ABS*	00000000 __ram_rwdata_start
00008d9c g     F .text	000000ac strncpy
000147e0 g       *ABS*	00000000 __ram_rodata_start
00018648 g     O .bss	00000028 __malloc_current_mallinfo
0000a490 g     F .text	00000158 __d2b
00018448 g     O .bss	00000008 alt_niosv_timestamp_offset
0001841c g     O .bss	00000004 alt_niosv_timer_interrupt_handler
00000540 g     F .text	00000010 altera_avalon_jtag_uart_read_fd
000144cc g     F .text	00000060 alt_get_fd
00013968 g     F .text	00000248 .hidden __extenddftf2
00003770 g     F .text	00000058 _close_r
00000560 g     F .text	00000010 altera_avalon_jtag_uart_close_fd
00018800 g       *ABS*	00000000 __alt_stack_base
00000570 g     F .text	0000000c altera_avalon_jtag_uart_ioctl_fd
00002a74 g     F .text	00000004 __retarget_lock_close_recursive
000064d0 g     F .text	00000140 __swsetup_r
0000e268 g     F .text	000008a8 .hidden __divdf3
000015f0 g     F .text	00000158 __sfp
0000a734 g     F .text	00000068 __copybits
00016584 g     O .rwdata	00000408 __malloc_av_
00018464 g     O .bss	00000004 __atexit
0000eda4 g     F .text	00000790 .hidden __muldf3
00001be8 g     F .text	0000005c __sread
0001445c g     F .text	00000070 alt_find_file
00000bb4 g     F .text	00000070 alt_dev_llist_insert
000029e0 g     F .text	0000000c __malloc_lock
00014618 g       *ABS*	00000000 __fini_array_start
000035c0 g     F .text	000000e0 _fflush_r
0000a800 g     F .text	000001bc _calloc_r
00002a7c g     F .text	00000004 __retarget_lock_acquire_recursive
00018418 g       *ABS*	00000000 __bss_start
00015240 g       *ABS*	00000000 __tdata_start
00015240 g       *ABS*	00000000 __tdata_end
00002c20 g     F .text	000000dc memset
00000204 g     F .text	00000110 main
04000000 g       *ABS*	00000000 __alt_mem_RAM
00018424 g     O .bss	00000004 alt_envp
00018458 g     O .bss	00000004 __malloc_max_total_mem
00000550 g     F .text	00000010 altera_avalon_jtag_uart_write_fd
00002a6c g     F .text	00000004 __retarget_lock_init_recursive
00001d4c g     F .text	00000008 __sclose
04000000 g       *ABS*	00000000 __alt_heap_limit
00002c14 g     F .text	0000000c fclose
00001020 g     F .text	00000034 alt_timestamp_start
00014618 g       *ABS*	00000000 __init_array_end
00001d6c g     F .text	000007dc _malloc_r
0000b344 g     F .text	00000030 __ascii_wctomb
00016b0c g     O .rwdata	00000004 alt_errno
0000b2b8 g     F .text	00000038 _fiprintf_r
0000cb58 g     F .text	0000005c _init_signal
0000c6dc g     F .text	0000000c _mbtowc_r
00013bd4 g     F .text	00000084 .hidden __divsi3
00002f2c g     F .text	00000140 _malloc_trim_r
00008b14 g     F .text	00000018 __freedtoa
0000abcc g     F .text	0000017c strcmp
000147e0 g       *ABS*	00000000 __flash_rodata_start
0000c5b8 g     F .text	00000014 vfiprintf
00002a68 g     F .text	00000004 __retarget_lock_init
00010308 g     F .text	0000151c .hidden __multf3
0000eb10 g     F .text	0000008c .hidden __nedf2
000004c8 g     F .text	00000020 alt_irq_init
00000ed0 g     F .text	0000002c alt_release_fd
000150d8 g     O .rodata	00000100 .hidden __clz_tab
00018488 g     O .bss	00000004 _PathLocale
000029f8 g     F .text	00000014 atexit
0000270c g     F .text	00000064 _write_r
0000aa44 g     F .text	0000007c setlocale
00016b18 g     O .rwdata	00000004 _impure_ptr
0001842c g     O .bss	00000004 alt_argc
00003374 g     F .text	0000024c __sflush_r
00000c70 g     F .text	0000004c _do_dtors
00001b34 g     F .text	000000b4 _fwalk_sglue
00010048 g     F .text	00000160 .hidden __gttf2
0000c6e8 g     F .text	00000068 __ascii_mbtowc
00011824 g     F .text	000017a4 .hidden __subtf3
0000a30c g     F .text	00000068 __ulp
00001804 g     F .text	00000034 __fp_unlock_all
00016b04 g     O .rwdata	00000008 alt_fs_list
00000020 g       *ABS*	00000000 __ram_exceptions_start
000066e8 g     F .text	0000000c localeconv
00001054 g     F .text	00000040 alt_timestamp
00002908 g     F .text	000000d8 __swhatbuf_r
00018418 g     O .bss	00000004 dummy
00000cc0 g     F .text	00000004 alt_ic_isr_register
00016578 g     O .rwdata	0000000c __sglue
00000020 g     F .exceptions	00000000 trap_vector
00014304 g     F .text	000000d8 _write
00016b2c g       *ABS*	00000000 _edata
00018800 g       *ABS*	00000000 _end
000001dc g       *ABS*	00000000 __ram_exceptions_end
0001847c g     O .bss	00000001 __lock___at_quick_exit_mutex
00000798 g     F .text	00000084 altera_avalon_jtag_uart_ioctl
00001014 g     F .text	0000000c intel_niosv_irq_init
00001c4c g     F .text	00000088 __swrite
00016b20 g     O .rwdata	00000004 __malloc_trim_threshold
000011f8 g     F .text	00000030 exit
0000b2f0 g     F .text	00000048 fiprintf
0000b374 g     F .text	00001244 _vfiprintf_r
00008e48 g     F .text	000000e4 __rshift_D2A
00013758 g     F .text	00000118 .hidden __floatunsisf
0000a0ac g     F .text	00000260 __mdiff
00013c58 g     F .text	00000030 .hidden __modsi3
00013f2c g     F .text	000000b0 _kill
00016458 g     O .rwdata	00000120 _impure_data
000067cc g     F .text	00000198 frexpl
04000000 g       *ABS*	00000000 __alt_data_end
00015240 g       *ABS*	00000000 __tbss_end
000017c4 g     F .text	0000000c __sfp_lock_release
00006964 g     F .text	000002cc _ldtoa_r
00014eec g     O .rodata	00000101 _ctype_
000141dc g     F .text	000000dc _read
00014610 g       *ABS*	00000000 __init_array_start
00002a78 g     F .text	00000004 __retarget_lock_acquire
00002a90 g     F .text	00000004 __retarget_lock_release
00013dd4 g     F .text	00000014 _exit
00000b18 g     F .text	00000084 alt_alarm_start
0001846c g     O .bss	00000001 __lock___dd_hash_mutex
00002770 g     F .text	00000198 __smakebuf_r
00018470 g     O .bss	00000001 __lock___tz_mutex
00006740 g     F .text	0000008c strlen
0000c758 g     F .text	0000005c _init_signal_r
00001228 g     F .text	00000048 open
0000eb9c g     F .text	00000100 .hidden __gedf2
000094f8 g     F .text	00000014 __assert
000066f4 g     F .text	0000004c __sprint_r
00000cbc g     F .text	00000004 alt_icache_flush_all
000010c4 g     F .text	00000028 alt_niosv_mtimecmp_set
0000b338 g     F .text	0000000c _wctomb_r
0000f534 g     F .text	00000908 .hidden __subdf3
00003948 g     F .text	00002990 _vfprintf_r
0000991c g     F .text	000000e0 __lo0bits
00016b10 g     O .rwdata	00000008 alt_alarm_list
00000c24 g     F .text	0000004c _do_ctors
0000cbb4 g     F .text	000000e4 __sigtramp
000001dc g     F .text	00000028 Task
00002a98 g     F .text	0000000c close
0001698c g     O .rwdata	0000016c __global_locale
000003c0 g     F .text	0000009c alt_load
000062d8 g     F .text	00000014 vfprintf
00018420 g     O .bss	00000004 alt_niosv_software_interrupt_handler
00018484 g     O .bss	00000001 __lock___sfp_recursive_mutex
00008f2c g     F .text	00000064 __trailz_D2A
0000c9f4 g     F .text	000000c0 raise
00013d10 g     F .text	000000c4 _close
00001d60 g     F .text	0000000c free
000095e4 g     F .text	00000184 __multadd
000095c0 g     F .text	00000024 _Bfree



Disassembly of section .entry:

00000000 <__reset>:
 * Jump to the _start entry point in the .text section if reset code
 * is allowed or if optimizing for RTL simulation.
 */

    /* Jump to the _start entry point in the .text section. */
    tail _start
   0:	3140006f          	j	314 <_start>
	...

Disassembly of section .exceptions:

00000020 <trap_vector>:
    /* Save caller-saved registers on the stack */

#if __riscv_flen == 32 // rv32if
    addi sp, sp, -36 * 4
#elif ALT_CPU_NUM_GPR == 32 // rv32i
	addi sp, sp, -16 * 4
  20:	fc010113          	add	sp,sp,-64
#else // rv32e (16-bit)
	addi sp, sp, -10 * 4
#endif

    /* rv32e (16-bit), rv32i and rv32if */
    sw ra,  0 * 4(sp)
  24:	00112023          	sw	ra,0(sp)
    sw t0,  1 * 4(sp)
  28:	00512223          	sw	t0,4(sp)
    sw t1,  2 * 4(sp)
  2c:	00612423          	sw	t1,8(sp)
    sw t2,  3 * 4(sp)
  30:	00712623          	sw	t2,12(sp)
    sw a0,  4 * 4(sp)
  34:	00a12823          	sw	a0,16(sp)
    sw a1,  5 * 4(sp)
  38:	00b12a23          	sw	a1,20(sp)
    sw a2,  6 * 4(sp)
  3c:	00c12c23          	sw	a2,24(sp)
    sw a3,  7 * 4(sp)
  40:	00d12e23          	sw	a3,28(sp)
    sw a4,  8 * 4(sp)
  44:	02e12023          	sw	a4,32(sp)
    sw a5,  9 * 4(sp)
  48:	02f12223          	sw	a5,36(sp)

    /* rv32i and rv32if */
#if ALT_CPU_NUM_GPR == 32 
    sw a6, 10 * 4(sp)
  4c:	03012423          	sw	a6,40(sp)
    sw a7, 11 * 4(sp)
  50:	03112623          	sw	a7,44(sp)
    sw t3, 12 * 4(sp)
  54:	03c12823          	sw	t3,48(sp)
    sw t4, 13 * 4(sp)
  58:	03d12a23          	sw	t4,52(sp)
    sw t5, 14 * 4(sp)
  5c:	03e12c23          	sw	t5,56(sp)
    sw t6, 15 * 4(sp)
  60:	03f12e23          	sw	t6,60(sp)
    fsw fa6, 34 * 4(sp)
    fsw fa7, 35 * 4(sp)
#endif
   
    /* Call handle_trap to dispatch the correct handler, if available */
    csrr a0, mcause
  64:	34202573          	csrr	a0,mcause
    csrr a1, mepc
  68:	341025f3          	csrr	a1,mepc
    csrr a2, mtval
  6c:	34302673          	csrr	a2,mtval
    jal handle_trap
  70:	0e0000ef          	jal	150 <handle_trap>
    csrw mepc, a0
  74:	34151073          	csrw	mepc,a0

    /* Restore caller-saved registers */

    /* rv32e (16-bit), rv32i and rv32if */
    lw ra,  0 * 4(sp)
  78:	00012083          	lw	ra,0(sp)
    lw t0,  1 * 4(sp)
  7c:	00412283          	lw	t0,4(sp)
    lw t1,  2 * 4(sp)
  80:	00812303          	lw	t1,8(sp)
    lw t2,  3 * 4(sp)
  84:	00c12383          	lw	t2,12(sp)
    lw a0,  4 * 4(sp)
  88:	01012503          	lw	a0,16(sp)
    lw a1,  5 * 4(sp)
  8c:	01412583          	lw	a1,20(sp)
    lw a2,  6 * 4(sp)
  90:	01812603          	lw	a2,24(sp)
    lw a3,  7 * 4(sp)
  94:	01c12683          	lw	a3,28(sp)
    lw a4,  8 * 4(sp)
  98:	02012703          	lw	a4,32(sp)
    lw a5,  9 * 4(sp)
  9c:	02412783          	lw	a5,36(sp)

    /* rv32i and rv32if */
#if ALT_CPU_NUM_GPR == 32	
    lw a6, 10 * 4(sp)
  a0:	02812803          	lw	a6,40(sp)
    lw a7, 11 * 4(sp)
  a4:	02c12883          	lw	a7,44(sp)
    lw t3, 12 * 4(sp)
  a8:	03012e03          	lw	t3,48(sp)
    lw t4, 13 * 4(sp)
  ac:	03412e83          	lw	t4,52(sp)
    lw t5, 14 * 4(sp)
  b0:	03812f03          	lw	t5,56(sp)
    lw t6, 15 * 4(sp)
  b4:	03c12f83          	lw	t6,60(sp)
#endif

#if __riscv_flen == 32 // rv32if
    addi sp, sp, 36 * 4
#elif ALT_CPU_NUM_GPR == 32 // rv32i
	addi sp, sp, 16 * 4
  b8:	04010113          	add	sp,sp,64
    lw s0, 0(sp)
    lw s1, 4(sp)
    addi sp, sp, 8
#endif

    mret
  bc:	30200073          	mret

000000c0 <is_ecc_handler_present>:
    alt_u32 present = (e_code == NIOSV_ECC_EXCEPTION && alt_ecc_exception_handler);
#else
    alt_u32 present = 0;
#endif
    return present;
} 
  c0:	00000513          	li	a0,0
  c4:	00008067          	ret

000000c8 <break_operation>:

void break_operation (void)
{
#ifdef ALT_CPU_HAS_DEBUG_STUB
            NIOSV_EBREAK();
  c8:	00100073          	ebreak
#else  // ALT_CPU_HAS_DEBUG_STUB
            while(1)
                ;
#endif // ALT_CPU_HAS_DEBUG_STUB  
}
  cc:	00008067          	ret

000000d0 <alt_irq_handler>:
 * This means that if there is never a call to alt_irq_register() then
 * this function will not get linked in to the executable. This is acceptable
 * since if no handler is ever registered, then an interrupt can never occur.
 */
void alt_irq_handler (void)
{
  d0:	ff010113          	add	sp,sp,-16
  d4:	00112623          	sw	ra,12(sp)
  d8:	00812423          	sw	s0,8(sp)
{
#if ALT_HAS_IRQ_SUPPORT
    alt_u32 active;
    alt_u32 enabled;

    NIOSV_READ_CSR(NIOSV_MIP_CSR, active);
  dc:	34402673          	csrr	a2,mip
    NIOSV_READ_CSR(NIOSV_MIE_CSR, enabled);
  e0:	304027f3          	csrr	a5,mie

    // Since this is used by alt_irq_handler, we want to only process the upper 16-bits
    // --> the interrupt lines connected via Platform Designer...
    return (active & enabled) >> 16;
  e4:	00018437          	lui	s0,0x18
  e8:	00f67633          	and	a2,a2,a5
  ec:	01065613          	srl	a2,a2,0x10
  f0:	49040413          	add	s0,s0,1168 # 18490 <alt_irq>
         * called to clear the interrupt condition.
         */

        do
        {
            if (active & mask)
  f4:	00167713          	and	a4,a2,1
        mask = 1;
  f8:	00100793          	li	a5,1
            if (active & mask)
  fc:	04071663          	bnez	a4,148 <alt_irq_handler+0x78>
            {
                alt_irq[i].handler(alt_irq[i].context); 
                break;
            }
            
            mask <<= 1;
 100:	00179793          	sll	a5,a5,0x1
            if (active & mask)
 104:	00f676b3          	and	a3,a2,a5
            i++;
 108:	00170713          	add	a4,a4,1
            if (active & mask)
 10c:	fe068ae3          	beqz	a3,100 <alt_irq_handler+0x30>
                alt_irq[i].handler(alt_irq[i].context); 
 110:	00371713          	sll	a4,a4,0x3
 114:	00e40733          	add	a4,s0,a4
 118:	00072783          	lw	a5,0(a4)
 11c:	00472503          	lw	a0,4(a4)
 120:	000780e7          	jalr	a5
    NIOSV_READ_CSR(NIOSV_MIP_CSR, active);
 124:	34402673          	csrr	a2,mip
    NIOSV_READ_CSR(NIOSV_MIE_CSR, enabled);
 128:	304027f3          	csrr	a5,mie
    return (active & enabled) >> 16;
 12c:	00f67633          	and	a2,a2,a5
 130:	01065613          	srl	a2,a2,0x10
            
        } while (1);

        active = alt_irq_pending();
    
    } while (active);
 134:	fc0610e3          	bnez	a2,f4 <alt_irq_handler+0x24>
    /*
     * Notify the operating system that interrupt processing is complete.
     */ 

    ALT_OS_INT_EXIT();
}
 138:	00c12083          	lw	ra,12(sp)
 13c:	00812403          	lw	s0,8(sp)
 140:	01010113          	add	sp,sp,16
 144:	00008067          	ret
        i = 0;
 148:	00000713          	li	a4,0
 14c:	fc5ff06f          	j	110 <alt_irq_handler+0x40>

00000150 <handle_trap>:
{
 150:	ff010113          	add	sp,sp,-16
 154:	00812423          	sw	s0,8(sp)
 158:	00112623          	sw	ra,12(sp)
 15c:	00058413          	mv	s0,a1
    if (is_irq) {
 160:	00054e63          	bltz	a0,17c <handle_trap+0x2c>
            NIOSV_EBREAK();
 164:	00100073          	ebreak
}
 168:	00c12083          	lw	ra,12(sp)
 16c:	00040513          	mv	a0,s0
 170:	00812403          	lw	s0,8(sp)
 174:	01010113          	add	sp,sp,16
 178:	00008067          	ret
    exception_code = (cause & ~NIOSV_MCAUSE_INTERRUPT_MASK);
 17c:	00151713          	sll	a4,a0,0x1
 180:	00175713          	srl	a4,a4,0x1
        switch (exception_code) {
 184:	00300693          	li	a3,3
 188:	04d70263          	beq	a4,a3,1cc <handle_trap+0x7c>
 18c:	00700693          	li	a3,7
 190:	02d71463          	bne	a4,a3,1b8 <handle_trap+0x68>
                if (alt_niosv_timer_interrupt_handler) {
 194:	000187b7          	lui	a5,0x18
 198:	41c7a783          	lw	a5,1052(a5) # 1841c <alt_niosv_timer_interrupt_handler>
 19c:	fc0786e3          	beqz	a5,168 <handle_trap+0x18>
                    alt_niosv_software_interrupt_handler(cause, epc, tval);
 1a0:	000780e7          	jalr	a5
}
 1a4:	00c12083          	lw	ra,12(sp)
 1a8:	00040513          	mv	a0,s0
 1ac:	00812403          	lw	s0,8(sp)
 1b0:	01010113          	add	sp,sp,16
 1b4:	00008067          	ret
                if (exception_code >= 16) {
 1b8:	00151713          	sll	a4,a0,0x1
 1bc:	00575713          	srl	a4,a4,0x5
 1c0:	fa0704e3          	beqz	a4,168 <handle_trap+0x18>
                    alt_irq_handler();
 1c4:	f0dff0ef          	jal	d0 <alt_irq_handler>
 1c8:	fa1ff06f          	j	168 <handle_trap+0x18>
                if (alt_niosv_software_interrupt_handler) {
 1cc:	000187b7          	lui	a5,0x18
 1d0:	4207a783          	lw	a5,1056(a5) # 18420 <alt_niosv_software_interrupt_handler>
 1d4:	fc0796e3          	bnez	a5,1a0 <handle_trap+0x50>
 1d8:	f91ff06f          	j	168 <handle_trap+0x18>

Disassembly of section .text:

000001dc <Task>:
#define Lab2
#define LOOP 1000000
volatile uint32_t dummy;  // 全域變數
void Task(){
	uint32_t sum = 0;
	for(uint32_t i=0;i<LOOP;++i){
     1dc:	000f46b7          	lui	a3,0xf4
     1e0:	00000793          	li	a5,0
	uint32_t sum = 0;
     1e4:	00000713          	li	a4,0
	for(uint32_t i=0;i<LOOP;++i){
     1e8:	24068693          	add	a3,a3,576 # f4240 <__alt_heap_start+0xdba40>
		sum += i;
     1ec:	00f70733          	add	a4,a4,a5
	for(uint32_t i=0;i<LOOP;++i){
     1f0:	00178793          	add	a5,a5,1
     1f4:	fed79ce3          	bne	a5,a3,1ec <Task+0x10>
	}
	dummy = sum;
     1f8:	000187b7          	lui	a5,0x18
     1fc:	40e7ac23          	sw	a4,1048(a5) # 18418 <dummy>
}
     200:	00008067          	ret

00000204 <main>:

int main()
{
     204:	ff010113          	add	sp,sp,-16
			}
			i++;
		 }
    }
#elif defined(Lab2)
	TIMER->periodl = 0xFFFF;
     208:	00010737          	lui	a4,0x10
     20c:	040907b7          	lui	a5,0x4090
{
     210:	00812423          	sw	s0,8(sp)
     214:	00112623          	sw	ra,12(sp)
     218:	00912223          	sw	s1,4(sp)
     21c:	01212023          	sw	s2,0(sp)
	TIMER->periodl = 0xFFFF;
     220:	fff70713          	add	a4,a4,-1 # ffff <__eqtf2+0x87>
     224:	00e7a423          	sw	a4,8(a5) # 4090008 <__alt_data_end+0x90008>
	TIMER->periodh = 0xFFFF;
     228:	00e7a623          	sw	a4,12(a5)
	TIMER->control = 0x06;
     22c:	00600713          	li	a4,6
     230:	00e7a223          	sw	a4,4(a5)

	// 量測 start
	TIMER->snapl = 0;
     234:	0007a823          	sw	zero,16(a5)
	uint32_t sl = TIMER->snapl;
     238:	0107a703          	lw	a4,16(a5)
	uint32_t sh = TIMER->snaph;
     23c:	0147a403          	lw	s0,20(a5)
	uint32_t start = (sh << 16) | sl;
	printf("periodl: %lu\n", TIMER->periodl);
     240:	0087a583          	lw	a1,8(a5)
     244:	00014537          	lui	a0,0x14
	uint32_t start = (sh << 16) | sl;
     248:	01041413          	sll	s0,s0,0x10
	printf("periodl: %lu\n", TIMER->periodl);
     24c:	7e050513          	add	a0,a0,2016 # 147e0 <__flash_rodata_start>
	uint32_t start = (sh << 16) | sl;
     250:	00e46433          	or	s0,s0,a4
	printf("periodl: %lu\n", TIMER->periodl);
     254:	48d020ef          	jal	2ee0 <printf>
	for(uint32_t i=0;i<LOOP;++i){
     258:	000f46b7          	lui	a3,0xf4
     25c:	00000793          	li	a5,0
	uint32_t sum = 0;
     260:	00000713          	li	a4,0
	for(uint32_t i=0;i<LOOP;++i){
     264:	24068693          	add	a3,a3,576 # f4240 <__alt_heap_start+0xdba40>
		sum += i;
     268:	00f70733          	add	a4,a4,a5
	for(uint32_t i=0;i<LOOP;++i){
     26c:	00178793          	add	a5,a5,1
     270:	fed79ce3          	bne	a5,a3,268 <main+0x64>
	dummy = sum;
     274:	000187b7          	lui	a5,0x18
     278:	40e7ac23          	sw	a4,1048(a5) # 18418 <dummy>

	Task();

	// 量測 end
	TIMER->snapl = 0;
     27c:	040907b7          	lui	a5,0x4090
     280:	0007a823          	sw	zero,16(a5) # 4090010 <__alt_data_end+0x90010>
	uint32_t el = TIMER->snapl;
     284:	0107a903          	lw	s2,16(a5)
	uint32_t eh = TIMER->snaph;
     288:	0147a483          	lw	s1,20(a5)
	uint32_t end = (eh << 16) | el;
	printf("periodh: %lu\n", TIMER->periodh);
     28c:	00c7a583          	lw	a1,12(a5)
     290:	00014537          	lui	a0,0x14
     294:	7f050513          	add	a0,a0,2032 # 147f0 <__flash_rodata_start+0x10>
     298:	449020ef          	jal	2ee0 <printf>
	uint32_t end = (eh << 16) | el;
     29c:	01049793          	sll	a5,s1,0x10
     2a0:	0127e7b3          	or	a5,a5,s2

	uint32_t cycles = start - end;  // down counter
     2a4:	40f40433          	sub	s0,s0,a5
	uint32_t instr_count = LOOP * 3;
	float cpi = (float)cycles / instr_count;

	printf("Cycles: %lu\n", cycles);
     2a8:	00015537          	lui	a0,0x15
     2ac:	00040593          	mv	a1,s0
     2b0:	80050513          	add	a0,a0,-2048 # 14800 <__flash_rodata_start+0x20>
     2b4:	42d020ef          	jal	2ee0 <printf>
	printf("Instruction count: %lu\n", instr_count);
     2b8:	002dc5b7          	lui	a1,0x2dc
     2bc:	00015537          	lui	a0,0x15
     2c0:	6c058593          	add	a1,a1,1728 # 2dc6c0 <__alt_heap_start+0x2c3ec0>
     2c4:	81050513          	add	a0,a0,-2032 # 14810 <__flash_rodata_start+0x30>
     2c8:	419020ef          	jal	2ee0 <printf>
	float cpi = (float)cycles / instr_count;
     2cc:	00040513          	mv	a0,s0
     2d0:	488130ef          	jal	13758 <__floatunsisf>
     2d4:	000157b7          	lui	a5,0x15
     2d8:	1d87a583          	lw	a1,472(a5) # 151d8 <__clz_tab+0x100>
     2dc:	018130ef          	jal	132f4 <__divsf3>
	printf("CPI: %.2f\n", cpi);
     2e0:	590130ef          	jal	13870 <__extendsfdf2>
     2e4:	00050613          	mv	a2,a0
     2e8:	00015537          	lui	a0,0x15
     2ec:	00058693          	mv	a3,a1
     2f0:	82850513          	add	a0,a0,-2008 # 14828 <__flash_rodata_start+0x48>
     2f4:	3ed020ef          	jal	2ee0 <printf>
#endif
    return 0;
}
     2f8:	00c12083          	lw	ra,12(sp)
     2fc:	00812403          	lw	s0,8(sp)
     300:	00412483          	lw	s1,4(sp)
     304:	00012903          	lw	s2,0(sp)
     308:	00000513          	li	a0,0
     30c:	01010113          	add	sp,sp,16
     310:	00008067          	ret

00000314 <_start>:
    .type _start, @function
_start:
#if ALT_CPU_HAS_CSR_SUPPORT
    /* assume that we are in machine mode on startup */
    /* setup trap to catch anything that goes wrong early in the boot process */
    la t0, trap_vector
     314:	00000297          	auipc	t0,0x0
     318:	d0c28293          	add	t0,t0,-756 # 20 <trap_vector>
    csrw mtvec, t0
     31c:	30529073          	csrw	mtvec,t0

    /* disable all interrupt */
    li t0, 0x88
     320:	08800293          	li	t0,136
    csrc mstatus, t0
     324:	3002b073          	csrc	mstatus,t0
    csrw mie, zero
     328:	30401073          	csrw	mie,zero
    csrw mip, zero
     32c:	34401073          	csrw	mip,zero
#endif /* Initialize Data Cache */
#endif /* ALT_SIM_OPTIMIZE */

    .option push
    .option norelax
    la gp, __global_pointer$
     330:	00017197          	auipc	gp,0x17
     334:	fc818193          	add	gp,gp,-56 # 172f8 <__global_pointer$>

    /*
     * Now that the caches are initialized, set up the stack pointer and global pointer.
     * The values provided by the linker are assumed to be correctly aligned.
     */
    la sp, __alt_stack_pointer
     338:	04000117          	auipc	sp,0x4000
     33c:	cc810113          	add	sp,sp,-824 # 4000000 <__alt_data_end>
    /* Log that the BSS is about to be cleared. */
#ifdef ALT_LOG_ENABLE
    ALT_LOG_PUTS(alt_log_msg_bss)
#endif /* ALT_LOG_ENABLE */

    la t1, __bss_start
     340:	00018317          	auipc	t1,0x18
     344:	0d830313          	add	t1,t1,216 # 18418 <dummy>
    la t2, __bss_end
     348:	00018397          	auipc	t2,0x18
     34c:	4b838393          	add	t2,t2,1208 # 18800 <__alt_heap_start>
0:
    sw zero, (t1)
     350:	00032023          	sw	zero,0(t1)
    addi t1, t1, 4
     354:	00430313          	add	t1,t1,4
    bltu t1, t2, 0b
     358:	fe736ce3          	bltu	t1,t2,350 <_start+0x3c>
/*
 * The alt_load() facility is normally used when there is no bootloader.
 * It copies some sections into RAM so it acts like a mini-bootloader.
 */
#ifdef CALL_ALT_LOAD
    call alt_load
     35c:	064000ef          	jal	3c0 <alt_load>
 */
#ifndef ALT_SIM_OPTIMIZE
.globl __tbss_start
.globl __tbss_end

    la t1, __tbss_start
     360:	00015317          	auipc	t1,0x15
     364:	ee030313          	add	t1,t1,-288 # 15240 <HEX_TBL>
    la t2, __tbss_end
     368:	00015397          	auipc	t2,0x15
     36c:	ed838393          	add	t2,t2,-296 # 15240 <HEX_TBL>
    
    // Check if we need to skip this (if .tbss is empty)
    bgeu t1, t2, 1f
     370:	00737863          	bgeu	t1,t2,380 <_start+0x6c>
0:
    sw zero, (t1)
     374:	00032023          	sw	zero,0(t1)
    addi t1, t1, 4
     378:	00430313          	add	t1,t1,4
    bltu t1, t2, 0b
     37c:	fe736ce3          	bltu	t1,t2,374 <_start+0x60>
// Copy tdata to tdata golden source location
.globl __tdata_start
.globl __tdata_end
.globl __tdata_source

    la t0, __tdata_start
     380:	00015297          	auipc	t0,0x15
     384:	ec028293          	add	t0,t0,-320 # 15240 <HEX_TBL>
    la t1, __tdata_end
     388:	00015317          	auipc	t1,0x15
     38c:	eb830313          	add	t1,t1,-328 # 15240 <HEX_TBL>
    la t2, __tdata_source
     390:	00015397          	auipc	t2,0x15
     394:	eb038393          	add	t2,t2,-336 # 15240 <HEX_TBL>

    // Check if we need to skip this (if .tdata is empty)
    bgeu t0, t1, 1f
     398:	0062fc63          	bgeu	t0,t1,3b0 <_start+0x9c>
0:
    lw s1, (t0)
     39c:	0002a483          	lw	s1,0(t0)
    sw s1, (t2)
     3a0:	0093a023          	sw	s1,0(t2)
    addi t0, t0, 4
     3a4:	00428293          	add	t0,t0,4
    addi t2, t2, 4
     3a8:	00438393          	add	t2,t2,4
    bltu t0, t1, 0b
     3ac:	fe62e8e3          	bltu	t0,t1,39c <_start+0x88>
1:

// Assign thread pointer register (tp) to main thread tls base
.globl __tls_base
    la tp, __tls_base
     3b0:	00015217          	auipc	tp,0x15
     3b4:	e9020213          	add	tp,tp,-368 # 15240 <HEX_TBL>
#ifdef ALT_LOG_ENABLE
    ALT_LOG_PUTS(alt_log_msg_alt_main)
#endif /* ALT_LOG_ENABLE */

    /* Call the C entry point. It should never return. */
    call alt_main
     3b8:	0a4000ef          	jal	45c <alt_main>

000003bc <alt_after_alt_main>:

    /* Wait in infinite loop in case alt_main does return. */
alt_after_alt_main:
    j alt_after_alt_main
     3bc:	0000006f          	j	3bc <alt_after_alt_main>

000003c0 <alt_load>:
     3c0:	ff010113          	add	sp,sp,-16
     3c4:	00015537          	lui	a0,0x15

static void ALT_INLINE alt_load_section (alt_u32* from, 
                                         alt_u32* to, 
                                         alt_u32* end)
{
  if (to != from)
     3c8:	000175b7          	lui	a1,0x17
 * there is no bootloader, so this application is responsible for loading to
 * RAM any sections that are required.
 */  

void alt_load (void)
{
     3cc:	00112623          	sw	ra,12(sp)
     3d0:	24050613          	add	a2,a0,576 # 15240 <HEX_TBL>
     3d4:	b2c58793          	add	a5,a1,-1236 # 16b2c <__flash_rwdata_start>
     3d8:	02f60063          	beq	a2,a5,3f8 <alt_load+0x38>
  {
    while( to != end )
     3dc:	000177b7          	lui	a5,0x17
     3e0:	b2c78793          	add	a5,a5,-1236 # 16b2c <__flash_rwdata_start>
     3e4:	00f60a63          	beq	a2,a5,3f8 <alt_load+0x38>
    {
      *to++ = *from++;
     3e8:	40c78633          	sub	a2,a5,a2
     3ec:	b2c58593          	add	a1,a1,-1236
     3f0:	24050513          	add	a0,a0,576
     3f4:	109020ef          	jal	2cfc <memcpy>
  if (to != from)
     3f8:	02000613          	li	a2,32
     3fc:	02000793          	li	a5,32
     400:	00f60e63          	beq	a2,a5,41c <alt_load+0x5c>
    while( to != end )
     404:	1dc00793          	li	a5,476
     408:	00f60a63          	beq	a2,a5,41c <alt_load+0x5c>
      *to++ = *from++;
     40c:	40c78633          	sub	a2,a5,a2
     410:	02000593          	li	a1,32
     414:	02000513          	li	a0,32
     418:	0e5020ef          	jal	2cfc <memcpy>
  if (to != from)
     41c:	00014537          	lui	a0,0x14
     420:	000145b7          	lui	a1,0x14
     424:	7e050613          	add	a2,a0,2016 # 147e0 <__flash_rodata_start>
     428:	7e058793          	add	a5,a1,2016 # 147e0 <__flash_rodata_start>
     42c:	02f60063          	beq	a2,a5,44c <alt_load+0x8c>
    while( to != end )
     430:	000157b7          	lui	a5,0x15
     434:	24078793          	add	a5,a5,576 # 15240 <HEX_TBL>
     438:	00f60a63          	beq	a2,a5,44c <alt_load+0x8c>
      *to++ = *from++;
     43c:	40c78633          	sub	a2,a5,a2
     440:	7e058593          	add	a1,a1,2016
     444:	7e050513          	add	a0,a0,2016
     448:	0b5020ef          	jal	2cfc <memcpy>
  
  /*
   * Now ensure that the caches are in synch.
   */
  
  alt_dcache_flush_all();
     44c:	750000ef          	jal	b9c <alt_dcache_flush_all>
  alt_icache_flush_all();
}
     450:	00c12083          	lw	ra,12(sp)
     454:	01010113          	add	sp,sp,16
  alt_icache_flush_all();
     458:	0650006f          	j	cbc <alt_icache_flush_all>

0000045c <alt_main>:
 * devices/filesystems/components in the system; and call the entry point for
 * the users application, i.e. main().
 */

void alt_main (void)
{
     45c:	ff010113          	add	sp,sp,-16
#endif

  /* ALT LOG - please see HAL/sys/alt_log_printf.h for details */
  ALT_LOG_PRINT_BOOT("[alt_main.c] Entering alt_main, calling alt_irq_init.\r\n");
  /* Initialize the interrupt controller. */
  alt_irq_init (NULL);
     460:	00000513          	li	a0,0
{
     464:	00112623          	sw	ra,12(sp)
     468:	00812423          	sw	s0,8(sp)
  alt_irq_init (NULL);
     46c:	05c000ef          	jal	4c8 <alt_irq_init>
  ALT_LOG_PRINT_BOOT("[alt_main.c] Done OS Init, calling alt_sem_create.\r\n");
  ALT_SEM_CREATE (&alt_fd_list_lock, 1);

  /* Initialize the device drivers/software components. */
  ALT_LOG_PRINT_BOOT("[alt_main.c] Calling alt_sys_init.\r\n");
  alt_sys_init();
     470:	078000ef          	jal	4e8 <alt_sys_init>
   * devices be present (not equal to /dev/null) and if direct drivers
   * aren't being used.
   */

    ALT_LOG_PRINT_BOOT("[alt_main.c] Redirecting IO.\r\n");
    alt_io_redirect(ALT_STDOUT, ALT_STDIN, ALT_STDERR);
     474:	00015537          	lui	a0,0x15
     478:	83450613          	add	a2,a0,-1996 # 14834 <__flash_rodata_start+0x54>
     47c:	83450593          	add	a1,a0,-1996
     480:	83450513          	add	a0,a0,-1996
     484:	0c5000ef          	jal	d48 <alt_io_redirect>
  /* 
   * Call the C++ constructors 
   */

  ALT_LOG_PRINT_BOOT("[alt_main.c] Calling C++ constructors.\r\n");
  _do_ctors ();
     488:	79c000ef          	jal	c24 <_do_ctors>
   * redefined as _exit()). This is in the interest of reducing code footprint,
   * in that the atexit() overhead is removed when it's not needed.
   */

  ALT_LOG_PRINT_BOOT("[alt_main.c] Calling atexit.\r\n");
  atexit (_do_dtors);
     48c:	00001537          	lui	a0,0x1
     490:	c7050513          	add	a0,a0,-912 # c70 <_do_dtors>
     494:	564020ef          	jal	29f8 <atexit>
  ALT_LOG_PRINT_BOOT("[alt_main.c] Calling main.\r\n");

#ifdef ALT_NO_EXIT
  main (alt_argc, alt_argv, alt_envp);
#else
  result = main (alt_argc, alt_argv, alt_envp);
     498:	000187b7          	lui	a5,0x18
     49c:	4247a603          	lw	a2,1060(a5) # 18424 <alt_envp>
     4a0:	000187b7          	lui	a5,0x18
     4a4:	4287a583          	lw	a1,1064(a5) # 18428 <alt_argv>
     4a8:	000187b7          	lui	a5,0x18
     4ac:	42c7a503          	lw	a0,1068(a5) # 1842c <alt_argc>
     4b0:	d55ff0ef          	jal	204 <main>
     4b4:	00050413          	mv	s0,a0
  close(STDOUT_FILENO);
     4b8:	00100513          	li	a0,1
     4bc:	5dc020ef          	jal	2a98 <close>
  exit (result);
     4c0:	00040513          	mv	a0,s0
     4c4:	535000ef          	jal	11f8 <exit>

000004c8 <alt_irq_init>:
 * The "base" parameter is ignored and only
 * present for backwards-compatibility.
 */

void alt_irq_init ( const void* base )
{
     4c8:	ff010113          	add	sp,sp,-16
     4cc:	00112623          	sw	ra,12(sp)
    INTEL_NIOSV_M_IRQ_INIT ( NIOSV, NiosV);
     4d0:	345000ef          	jal	1014 <intel_niosv_irq_init>
    NIOSV_SET_CSR(NIOSV_MSTATUS_CSR, NIOSV_MSTATUS_MIE_MASK);
     4d4:	00800793          	li	a5,8
     4d8:	3007a073          	csrs	mstatus,a5
    alt_irq_cpu_enable_interrupts();
}
     4dc:	00c12083          	lw	ra,12(sp)
     4e0:	01010113          	add	sp,sp,16
     4e4:	00008067          	ret

000004e8 <alt_sys_init>:
 */

void alt_sys_init( void )
{
    ALTERA_AVALON_TIMER_INIT ( SYS_CLK_TIMER, sys_clk_timer);
    ALTERA_AVALON_JTAG_UART_INIT ( JTAG_UART, JTAG_UART);
     4e8:	00015537          	lui	a0,0x15
{
     4ec:	ff010113          	add	sp,sp,-16
    ALTERA_AVALON_JTAG_UART_INIT ( JTAG_UART, JTAG_UART);
     4f0:	00000613          	li	a2,0
     4f4:	00000593          	li	a1,0
     4f8:	27850513          	add	a0,a0,632 # 15278 <JTAG_UART+0x28>
{
     4fc:	00112623          	sw	ra,12(sp)
    ALTERA_AVALON_JTAG_UART_INIT ( JTAG_UART, JTAG_UART);
     500:	1e8000ef          	jal	6e8 <altera_avalon_jtag_uart_init>
     504:	00015537          	lui	a0,0x15
     508:	25050513          	add	a0,a0,592 # 15250 <JTAG_UART>
     50c:	69c000ef          	jal	ba8 <alt_dev_reg>
 * in order to initialise the value of the clock frequency.
 */

static ALT_INLINE int ALT_ALWAYS_INLINE alt_sysclk_init (alt_u32 nticks)
{
  if (! _alt_tick_rate)
     510:	000187b7          	lui	a5,0x18
     514:	4407a703          	lw	a4,1088(a5) # 18440 <_alt_tick_rate>
     518:	00071663          	bnez	a4,524 <alt_sys_init+0x3c>
  {
    _alt_tick_rate = nticks;
     51c:	3e800713          	li	a4,1000
     520:	44e7a023          	sw	a4,1088(a5)
alt_u64 alt_niosv_mtimecmp_get();
void alt_niosv_mtimecmp_interrupt_init();
extern alt_niosv_timer_isr_t alt_niosv_timer_interrupt_handler;

static ALT_INLINE void ALT_ALWAYS_INLINE alt_niosv_register_mtimecmp_interrupt_handle(alt_niosv_timer_isr_t handle) {
    alt_niosv_timer_interrupt_handler = handle;
     524:	000017b7          	lui	a5,0x1
    ALTERA_AVALON_SYSID_QSYS_INIT ( SYSID_QSYS_0, sysid_qsys_0);
    INTEL_NIOSV_M_INIT ( NIOSV, NiosV);
}
     528:	00c12083          	lw	ra,12(sp)
     52c:	00018737          	lui	a4,0x18
     530:	10c78793          	add	a5,a5,268 # 110c <alt_niosv_timer_sc_isr>
     534:	40f72e23          	sw	a5,1052(a4) # 1841c <alt_niosv_timer_interrupt_handler>
     538:	01010113          	add	sp,sp,16
    INTEL_NIOSV_M_INIT ( NIOSV, NiosV);
     53c:	4590006f          	j	1194 <alt_niosv_mtimecmp_interrupt_init>

00000540 <altera_avalon_jtag_uart_read_fd>:
int 
altera_avalon_jtag_uart_read_fd(alt_fd* fd, char* buffer, int space)
{
    altera_avalon_jtag_uart_dev* dev = (altera_avalon_jtag_uart_dev*) fd->dev; 

    return altera_avalon_jtag_uart_read(&dev->state, buffer, space,
     540:	00052783          	lw	a5,0(a0)
     544:	00852683          	lw	a3,8(a0)
     548:	02878513          	add	a0,a5,40
     54c:	2d00006f          	j	81c <altera_avalon_jtag_uart_read>

00000550 <altera_avalon_jtag_uart_write_fd>:
int 
altera_avalon_jtag_uart_write_fd(alt_fd* fd, const char* buffer, int space)
{
    altera_avalon_jtag_uart_dev* dev = (altera_avalon_jtag_uart_dev*) fd->dev; 

    return altera_avalon_jtag_uart_write(&dev->state, buffer, space,
     550:	00052783          	lw	a5,0(a0)
     554:	00852683          	lw	a3,8(a0)
     558:	02878513          	add	a0,a5,40
     55c:	4240006f          	j	980 <altera_avalon_jtag_uart_write>

00000560 <altera_avalon_jtag_uart_close_fd>:
int 
altera_avalon_jtag_uart_close_fd(alt_fd* fd)
{
    altera_avalon_jtag_uart_dev* dev = (altera_avalon_jtag_uart_dev*) fd->dev; 

    return altera_avalon_jtag_uart_close(&dev->state, fd->fd_flags);
     560:	00052783          	lw	a5,0(a0)
     564:	00852583          	lw	a1,8(a0)
     568:	02878513          	add	a0,a5,40
     56c:	1f40006f          	j	760 <altera_avalon_jtag_uart_close>

00000570 <altera_avalon_jtag_uart_ioctl_fd>:
int 
altera_avalon_jtag_uart_ioctl_fd(alt_fd* fd, int req, void* arg)
{
    altera_avalon_jtag_uart_dev* dev = (altera_avalon_jtag_uart_dev*) fd->dev;

    return altera_avalon_jtag_uart_ioctl(&dev->state, req, arg);
     570:	00052503          	lw	a0,0(a0)
     574:	02850513          	add	a0,a0,40
     578:	2200006f          	j	798 <altera_avalon_jtag_uart_ioctl>

0000057c <altera_avalon_jtag_uart_irq>:
#else
static void altera_avalon_jtag_uart_irq(void* context, alt_u32 id)
#endif
{
  altera_avalon_jtag_uart_state* sp = (altera_avalon_jtag_uart_state*) context;
  unsigned int base = sp->base;
     57c:	00052603          	lw	a2,0(a0)

        /* Post an event to notify jtag_uart_read that a character has been read */
        ALT_FLAG_POST (sp->events, ALT_JTAG_UART_READ_RDY, ALT_FLAG_SET);
      }

      if (data & ALTERA_AVALON_JTAG_UART_DATA_RAVAIL_MSK)
     580:	000108b7          	lui	a7,0x10
    unsigned int control = IORD_ALTERA_AVALON_JTAG_UART_CONTROL(base);
     584:	00460813          	add	a6,a2,4
     588:	00c0006f          	j	594 <altera_avalon_jtag_uart_irq+0x18>
        /* Dummy read to ensure IRQ is cleared prior to ISR completion */
        IORD_ALTERA_AVALON_JTAG_UART_CONTROL(base);
      }
    }

    if (control & ALTERA_AVALON_JTAG_UART_CONTROL_WI_MSK)
     58c:	2006f793          	and	a5,a3,512
     590:	08079463          	bnez	a5,618 <altera_avalon_jtag_uart_irq+0x9c>
    unsigned int control = IORD_ALTERA_AVALON_JTAG_UART_CONTROL(base);
     594:	00082683          	lw	a3,0(a6)
    if ((control & (ALTERA_AVALON_JTAG_UART_CONTROL_RI_MSK | ALTERA_AVALON_JTAG_UART_CONTROL_WI_MSK)) == 0)
     598:	3006f793          	and	a5,a3,768
     59c:	0e078663          	beqz	a5,688 <altera_avalon_jtag_uart_irq+0x10c>
    if (control & ALTERA_AVALON_JTAG_UART_CONTROL_RI_MSK)
     5a0:	1006f793          	and	a5,a3,256
     5a4:	fe0784e3          	beqz	a5,58c <altera_avalon_jtag_uart_irq+0x10>
        unsigned int next = (sp->rx_in + 1) % ALTERA_AVALON_JTAG_UART_BUF_LEN;
     5a8:	02852783          	lw	a5,40(a0)
        if (next == sp->rx_out)
     5ac:	02c52583          	lw	a1,44(a0)
        unsigned int next = (sp->rx_in + 1) % ALTERA_AVALON_JTAG_UART_BUF_LEN;
     5b0:	00178793          	add	a5,a5,1
     5b4:	7ff7f793          	and	a5,a5,2047
        if (next == sp->rx_out)
     5b8:	02b79a63          	bne	a5,a1,5ec <altera_avalon_jtag_uart_irq+0x70>
     5bc:	0400006f          	j	5fc <altera_avalon_jtag_uart_irq+0x80>
        sp->rx_buf[sp->rx_in] = (data & ALTERA_AVALON_JTAG_UART_DATA_DATA_MSK) >> ALTERA_AVALON_JTAG_UART_DATA_DATA_OFST;
     5c0:	02852783          	lw	a5,40(a0)
     5c4:	00f507b3          	add	a5,a0,a5
     5c8:	02e78c23          	sb	a4,56(a5)
        sp->rx_in = (sp->rx_in + 1) % ALTERA_AVALON_JTAG_UART_BUF_LEN;
     5cc:	02852783          	lw	a5,40(a0)
     5d0:	00178793          	add	a5,a5,1
     5d4:	7ff7f793          	and	a5,a5,2047
     5d8:	02f52423          	sw	a5,40(a0)
        unsigned int next = (sp->rx_in + 1) % ALTERA_AVALON_JTAG_UART_BUF_LEN;
     5dc:	02852783          	lw	a5,40(a0)
     5e0:	00178793          	add	a5,a5,1
     5e4:	7ff7f793          	and	a5,a5,2047
        if (next == sp->rx_out)
     5e8:	00b78863          	beq	a5,a1,5f8 <altera_avalon_jtag_uart_irq+0x7c>
        data = IORD_ALTERA_AVALON_JTAG_UART_DATA(base);
     5ec:	00062703          	lw	a4,0(a2)
        if ((data & ALTERA_AVALON_JTAG_UART_DATA_RVALID_MSK) == 0)
     5f0:	01071793          	sll	a5,a4,0x10
     5f4:	fc07c6e3          	bltz	a5,5c0 <altera_avalon_jtag_uart_irq+0x44>
      if (data & ALTERA_AVALON_JTAG_UART_DATA_RAVAIL_MSK)
     5f8:	f9176ae3          	bltu	a4,a7,58c <altera_avalon_jtag_uart_irq+0x10>
        sp->irq_enable &= ~ALTERA_AVALON_JTAG_UART_CONTROL_RE_MSK;
     5fc:	02052783          	lw	a5,32(a0)
     600:	ffe7f793          	and	a5,a5,-2
     604:	02f52023          	sw	a5,32(a0)
        IOWR_ALTERA_AVALON_JTAG_UART_CONTROL(base, sp->irq_enable);
     608:	00f82023          	sw	a5,0(a6)
        IORD_ALTERA_AVALON_JTAG_UART_CONTROL(base);
     60c:	00082783          	lw	a5,0(a6)
    if (control & ALTERA_AVALON_JTAG_UART_CONTROL_WI_MSK)
     610:	2006f793          	and	a5,a3,512
     614:	f80780e3          	beqz	a5,594 <altera_avalon_jtag_uart_irq+0x18>
    {
      /* process a write irq */
      unsigned int space = (control & ALTERA_AVALON_JTAG_UART_CONTROL_WSPACE_MSK) >> ALTERA_AVALON_JTAG_UART_CONTROL_WSPACE_OFST;
     618:	0106d693          	srl	a3,a3,0x10

      while (space > 0 && sp->tx_out != sp->tx_in)
      {
        IOWR_ALTERA_AVALON_JTAG_UART_DATA(base, sp->tx_buf[sp->tx_out]);
     61c:	000015b7          	lui	a1,0x1
      while (space > 0 && sp->tx_out != sp->tx_in)
     620:	02069a63          	bnez	a3,654 <altera_avalon_jtag_uart_irq+0xd8>
     624:	f71ff06f          	j	594 <altera_avalon_jtag_uart_irq+0x18>
        IOWR_ALTERA_AVALON_JTAG_UART_DATA(base, sp->tx_buf[sp->tx_out]);
     628:	03452783          	lw	a5,52(a0)
     62c:	00f507b3          	add	a5,a0,a5
     630:	00f587b3          	add	a5,a1,a5
     634:	8387c783          	lbu	a5,-1992(a5)
     638:	00f62023          	sw	a5,0(a2)

        sp->tx_out = (sp->tx_out + 1) % ALTERA_AVALON_JTAG_UART_BUF_LEN;
     63c:	03452783          	lw	a5,52(a0)
        
        /* indicate that the ALT_FLAG_POST routine must be called */
        postflag=1;

        space--;
     640:	fff68693          	add	a3,a3,-1
        sp->tx_out = (sp->tx_out + 1) % ALTERA_AVALON_JTAG_UART_BUF_LEN;
     644:	00178793          	add	a5,a5,1
     648:	7ff7f793          	and	a5,a5,2047
     64c:	02f52a23          	sw	a5,52(a0)
      while (space > 0 && sp->tx_out != sp->tx_in)
     650:	f40682e3          	beqz	a3,594 <altera_avalon_jtag_uart_irq+0x18>
     654:	03452703          	lw	a4,52(a0)
     658:	03052783          	lw	a5,48(a0)
     65c:	fcf716e3          	bne	a4,a5,628 <altera_avalon_jtag_uart_irq+0xac>
      }

      if (space > 0)
      {
        /* If we don't have any more data available then turn off the TX interrupt */
        sp->irq_enable &= ~ALTERA_AVALON_JTAG_UART_CONTROL_WE_MSK;
     660:	02052783          	lw	a5,32(a0)
        IOWR_ALTERA_AVALON_JTAG_UART_CONTROL(sp->base, sp->irq_enable);
     664:	00052703          	lw	a4,0(a0)
        sp->irq_enable &= ~ALTERA_AVALON_JTAG_UART_CONTROL_WE_MSK;
     668:	ffd7f793          	and	a5,a5,-3
     66c:	02f52023          	sw	a5,32(a0)
        IOWR_ALTERA_AVALON_JTAG_UART_CONTROL(sp->base, sp->irq_enable);
     670:	00470713          	add	a4,a4,4
     674:	00f72023          	sw	a5,0(a4)
        
        /* Dummy read to ensure IRQ is cleared prior to ISR completion */
        IORD_ALTERA_AVALON_JTAG_UART_CONTROL(base);
     678:	00082783          	lw	a5,0(a6)
    unsigned int control = IORD_ALTERA_AVALON_JTAG_UART_CONTROL(base);
     67c:	00082683          	lw	a3,0(a6)
    if ((control & (ALTERA_AVALON_JTAG_UART_CONTROL_RI_MSK | ALTERA_AVALON_JTAG_UART_CONTROL_WI_MSK)) == 0)
     680:	3006f793          	and	a5,a3,768
     684:	f0079ee3          	bnez	a5,5a0 <altera_avalon_jtag_uart_irq+0x24>
      }
    }
  }
}
     688:	00008067          	ret

0000068c <altera_avalon_jtag_uart_timeout>:
static alt_u32 
altera_avalon_jtag_uart_timeout(void* context) 
{
  altera_avalon_jtag_uart_state* sp = (altera_avalon_jtag_uart_state *) context;

  unsigned int control = IORD_ALTERA_AVALON_JTAG_UART_CONTROL(sp->base);
     68c:	00052783          	lw	a5,0(a0)
     690:	00478793          	add	a5,a5,4
     694:	0007a703          	lw	a4,0(a5)

  if (control & ALTERA_AVALON_JTAG_UART_CONTROL_AC_MSK)
     698:	40077713          	and	a4,a4,1024
     69c:	02070063          	beqz	a4,6bc <altera_avalon_jtag_uart_timeout+0x30>
  {
    IOWR_ALTERA_AVALON_JTAG_UART_CONTROL(sp->base, sp->irq_enable | ALTERA_AVALON_JTAG_UART_CONTROL_AC_MSK);
     6a0:	02052703          	lw	a4,32(a0)
     6a4:	40076713          	or	a4,a4,1024
     6a8:	00e7a023          	sw	a4,0(a5)
    sp->host_inactive = 0;
     6ac:	02052223          	sw	zero,36(a0)
  return _alt_tick_rate;
     6b0:	000187b7          	lui	a5,0x18
      ALT_FLAG_POST (sp->events, ALT_JTAG_UART_TIMEOUT, ALT_FLAG_SET);
    }
  }

  return alt_ticks_per_second();
}
     6b4:	4407a503          	lw	a0,1088(a5) # 18440 <_alt_tick_rate>
     6b8:	00008067          	ret
  else if (sp->host_inactive < INT_MAX - 2) {
     6bc:	02452703          	lw	a4,36(a0)
     6c0:	800007b7          	lui	a5,0x80000
     6c4:	ffc78793          	add	a5,a5,-4 # 7ffffffc <__alt_data_end+0x7bfffffc>
     6c8:	fee7e4e3          	bltu	a5,a4,6b0 <altera_avalon_jtag_uart_timeout+0x24>
    sp->host_inactive++;
     6cc:	02452783          	lw	a5,36(a0)
     6d0:	00178793          	add	a5,a5,1
     6d4:	02f52223          	sw	a5,36(a0)
    if (sp->host_inactive >= sp->timeout) {
     6d8:	02452783          	lw	a5,36(a0)
     6dc:	000187b7          	lui	a5,0x18
}
     6e0:	4407a503          	lw	a0,1088(a5) # 18440 <_alt_tick_rate>
     6e4:	00008067          	ret

000006e8 <altera_avalon_jtag_uart_init>:
  IOWR_ALTERA_AVALON_JTAG_UART_CONTROL(sp->base, sp->irq_enable); 
     6e8:	00052783          	lw	a5,0(a0)
{
     6ec:	ff010113          	add	sp,sp,-16
     6f0:	00812423          	sw	s0,8(sp)
     6f4:	00112623          	sw	ra,12(sp)
     6f8:	00050413          	mv	s0,a0
  sp->irq_enable = ALTERA_AVALON_JTAG_UART_CONTROL_RE_MSK;
     6fc:	00100713          	li	a4,1
{
     700:	00058513          	mv	a0,a1
  sp->irq_enable = ALTERA_AVALON_JTAG_UART_CONTROL_RE_MSK;
     704:	02e42023          	sw	a4,32(s0)
{
     708:	00060593          	mv	a1,a2
  IOWR_ALTERA_AVALON_JTAG_UART_CONTROL(sp->base, sp->irq_enable); 
     70c:	00478793          	add	a5,a5,4
     710:	00e7a023          	sw	a4,0(a5)
  alt_ic_isr_register(irq_controller_id, irq, altera_avalon_jtag_uart_irq, 
     714:	00040693          	mv	a3,s0
     718:	57c00613          	li	a2,1404
     71c:	00000713          	li	a4,0
     720:	5a0000ef          	jal	cc0 <alt_ic_isr_register>
     724:	000187b7          	lui	a5,0x18
  if (alt_alarm_start(&sp->alarm, alt_ticks_per_second(), 
     728:	4407a583          	lw	a1,1088(a5) # 18440 <_alt_tick_rate>
  sp->host_inactive = 0;
     72c:	02042223          	sw	zero,36(s0)
  if (alt_alarm_start(&sp->alarm, alt_ticks_per_second(), 
     730:	00040693          	mv	a3,s0
     734:	68c00613          	li	a2,1676
     738:	00840513          	add	a0,s0,8
     73c:	3dc000ef          	jal	b18 <alt_alarm_start>
     740:	00055863          	bgez	a0,750 <altera_avalon_jtag_uart_init+0x68>
    sp->timeout = INT_MAX;
     744:	800007b7          	lui	a5,0x80000
     748:	fff78793          	add	a5,a5,-1 # 7fffffff <__alt_data_end+0x7bffffff>
     74c:	00f42223          	sw	a5,4(s0)
}
     750:	00c12083          	lw	ra,12(sp)
     754:	00812403          	lw	s0,8(sp)
     758:	01010113          	add	sp,sp,16
     75c:	00008067          	ret

00000760 <altera_avalon_jtag_uart_close>:
  /* 
   * Wait for all transmit data to be emptied by the JTAG UART ISR, or
   * for a host-inactivity timeout, in which case transmit data will be lost
   */
  while ( (sp->tx_out != sp->tx_in) && (sp->host_inactive < sp->timeout) ) {
    if (flags & O_NONBLOCK) {
     760:	000047b7          	lui	a5,0x4
  while ( (sp->tx_out != sp->tx_in) && (sp->host_inactive < sp->timeout) ) {
     764:	03052683          	lw	a3,48(a0)
    if (flags & O_NONBLOCK) {
     768:	00f5f5b3          	and	a1,a1,a5
  while ( (sp->tx_out != sp->tx_in) && (sp->host_inactive < sp->timeout) ) {
     76c:	0140006f          	j	780 <altera_avalon_jtag_uart_close+0x20>
     770:	02452703          	lw	a4,36(a0)
     774:	00452783          	lw	a5,4(a0)
     778:	00f77863          	bgeu	a4,a5,788 <altera_avalon_jtag_uart_close+0x28>
    if (flags & O_NONBLOCK) {
     77c:	00059a63          	bnez	a1,790 <altera_avalon_jtag_uart_close+0x30>
  while ( (sp->tx_out != sp->tx_in) && (sp->host_inactive < sp->timeout) ) {
     780:	03452783          	lw	a5,52(a0)
     784:	fed796e3          	bne	a5,a3,770 <altera_avalon_jtag_uart_close+0x10>
      return -EWOULDBLOCK; 
    }
  }

  return 0;
     788:	00000513          	li	a0,0
}
     78c:	00008067          	ret
      return -EWOULDBLOCK; 
     790:	ff500513          	li	a0,-11
     794:	00008067          	ret

00000798 <altera_avalon_jtag_uart_ioctl>:
altera_avalon_jtag_uart_ioctl(altera_avalon_jtag_uart_state* sp, int req,
  void* arg)
{
  int rc = -ENOTTY;

  switch (req)
     798:	000077b7          	lui	a5,0x7
     79c:	a0178793          	add	a5,a5,-1535 # 6a01 <_ldtoa_r+0x9d>
     7a0:	02f58e63          	beq	a1,a5,7dc <altera_avalon_jtag_uart_ioctl+0x44>
     7a4:	000077b7          	lui	a5,0x7
     7a8:	a0278793          	add	a5,a5,-1534 # 6a02 <_ldtoa_r+0x9e>
     7ac:	02f59463          	bne	a1,a5,7d4 <altera_avalon_jtag_uart_ioctl+0x3c>
    }
    break;

  case TIOCGCONNECTED:
    /* Find out whether host is connected */
    if (sp->timeout != INT_MAX)
     7b0:	00452783          	lw	a5,4(a0)
     7b4:	80000737          	lui	a4,0x80000
     7b8:	fff70713          	add	a4,a4,-1 # 7fffffff <__alt_data_end+0x7bffffff>
     7bc:	00e78c63          	beq	a5,a4,7d4 <altera_avalon_jtag_uart_ioctl+0x3c>
    {
      *((int *)arg) = (sp->host_inactive < sp->timeout) ? 1 : 0;
     7c0:	02452703          	lw	a4,36(a0)
      rc = 0;
     7c4:	00000513          	li	a0,0
      *((int *)arg) = (sp->host_inactive < sp->timeout) ? 1 : 0;
     7c8:	00f737b3          	sltu	a5,a4,a5
     7cc:	00f62023          	sw	a5,0(a2)
      rc = 0;
     7d0:	00008067          	ret
  int rc = -ENOTTY;
     7d4:	fe700513          	li	a0,-25
  default:
    break;
  }

  return rc;
}
     7d8:	00008067          	ret
    if (sp->timeout != INT_MAX)
     7dc:	00452703          	lw	a4,4(a0)
     7e0:	800007b7          	lui	a5,0x80000
     7e4:	fff78793          	add	a5,a5,-1 # 7fffffff <__alt_data_end+0x7bffffff>
     7e8:	fef706e3          	beq	a4,a5,7d4 <altera_avalon_jtag_uart_ioctl+0x3c>
      sp->timeout = (timeout >= 2 && timeout < INT_MAX) ? timeout : INT_MAX - 1;
     7ec:	00062783          	lw	a5,0(a2)
     7f0:	80000737          	lui	a4,0x80000
     7f4:	ffc70713          	add	a4,a4,-4 # 7ffffffc <__alt_data_end+0x7bfffffc>
     7f8:	ffe78693          	add	a3,a5,-2
     7fc:	00d76863          	bltu	a4,a3,80c <altera_avalon_jtag_uart_ioctl+0x74>
     800:	00f52223          	sw	a5,4(a0)
      rc = 0;
     804:	00000513          	li	a0,0
     808:	00008067          	ret
      sp->timeout = (timeout >= 2 && timeout < INT_MAX) ? timeout : INT_MAX - 1;
     80c:	800007b7          	lui	a5,0x80000
     810:	ffe78793          	add	a5,a5,-2 # 7ffffffe <__alt_data_end+0x7bfffffe>
     814:	00f52223          	sw	a5,4(a0)
      rc = 0;
     818:	fedff06f          	j	804 <altera_avalon_jtag_uart_ioctl+0x6c>

0000081c <altera_avalon_jtag_uart_read>:
/* ----------------------------------------------------------- */

int 
altera_avalon_jtag_uart_read(altera_avalon_jtag_uart_state* sp, 
  char * buffer, int space, int flags)
{
     81c:	fd010113          	add	sp,sp,-48
     820:	01512a23          	sw	s5,20(sp)
     824:	01912223          	sw	s9,4(sp)
      out = sp->rx_out;

      if (in >= out)
        n = in - out;
      else
        n = ALTERA_AVALON_JTAG_UART_BUF_LEN - out;
     828:	00001ab7          	lui	s5,0x1
    /* If we read any data then return it */
    if (ptr != buffer)
      break;

    /* If in non-blocking mode then return error */
    if (flags & O_NONBLOCK)
     82c:	00004cb7          	lui	s9,0x4
{
     830:	03212023          	sw	s2,32(sp)
     834:	01312e23          	sw	s3,28(sp)
     838:	01612823          	sw	s6,16(sp)
     83c:	01712623          	sw	s7,12(sp)
     840:	01812423          	sw	s8,8(sp)
     844:	01a12023          	sw	s10,0(sp)
     848:	02112623          	sw	ra,44(sp)
     84c:	02812423          	sw	s0,40(sp)
     850:	02912223          	sw	s1,36(sp)
     854:	01412c23          	sw	s4,24(sp)
     858:	00050913          	mv	s2,a0
     85c:	00058b93          	mv	s7,a1
     860:	00068c13          	mv	s8,a3
     864:	00060993          	mv	s3,a2
  char * ptr = buffer;
     868:	00058d13          	mv	s10,a1
        n = ALTERA_AVALON_JTAG_UART_BUF_LEN - out;
     86c:	800a8a93          	add	s5,s5,-2048 # 800 <altera_avalon_jtag_uart_ioctl+0x68>
     870:	03850b13          	add	s6,a0,56
    if (flags & O_NONBLOCK)
     874:	0196fcb3          	and	s9,a3,s9
  while (space > 0)
     878:	09305863          	blez	s3,908 <altera_avalon_jtag_uart_read+0xec>
      out = sp->rx_out;
     87c:	02c92403          	lw	s0,44(s2)
      in  = sp->rx_in;
     880:	02892a03          	lw	s4,40(s2)
        n = ALTERA_AVALON_JTAG_UART_BUF_LEN - out;
     884:	408a87b3          	sub	a5,s5,s0
      if (in >= out)
     888:	048a7463          	bgeu	s4,s0,8d0 <altera_avalon_jtag_uart_read+0xb4>
      if (n == 0)
     88c:	04078663          	beqz	a5,8d8 <altera_avalon_jtag_uart_read+0xbc>
      memcpy(ptr, sp->rx_buf + out, n);
     890:	008b05b3          	add	a1,s6,s0
     894:	000d0513          	mv	a0,s10
      if (n > space)
     898:	00098493          	mv	s1,s3
     89c:	0137f463          	bgeu	a5,s3,8a4 <altera_avalon_jtag_uart_read+0x88>
     8a0:	00078493          	mv	s1,a5
      sp->rx_out = (out + n) % ALTERA_AVALON_JTAG_UART_BUF_LEN;
     8a4:	00848433          	add	s0,s1,s0
      memcpy(ptr, sp->rx_buf + out, n);
     8a8:	00048613          	mv	a2,s1
      sp->rx_out = (out + n) % ALTERA_AVALON_JTAG_UART_BUF_LEN;
     8ac:	7ff47413          	and	s0,s0,2047
      memcpy(ptr, sp->rx_buf + out, n);
     8b0:	44c020ef          	jal	2cfc <memcpy>
      space -= n;
     8b4:	409989b3          	sub	s3,s3,s1
      sp->rx_out = (out + n) % ALTERA_AVALON_JTAG_UART_BUF_LEN;
     8b8:	02892623          	sw	s0,44(s2)
      ptr   += n;
     8bc:	009d0d33          	add	s10,s10,s1
    while (space > 0);
     8c0:	01305c63          	blez	s3,8d8 <altera_avalon_jtag_uart_read+0xbc>
      in  = sp->rx_in;
     8c4:	02892a03          	lw	s4,40(s2)
        n = ALTERA_AVALON_JTAG_UART_BUF_LEN - out;
     8c8:	408a87b3          	sub	a5,s5,s0
      if (in >= out)
     8cc:	fc8a62e3          	bltu	s4,s0,890 <altera_avalon_jtag_uart_read+0x74>
        n = in - out;
     8d0:	408a07b3          	sub	a5,s4,s0
      if (n == 0)
     8d4:	fa079ee3          	bnez	a5,890 <altera_avalon_jtag_uart_read+0x74>
    if (ptr != buffer)
     8d8:	037d1a63          	bne	s10,s7,90c <altera_avalon_jtag_uart_read+0xf0>
    if (flags & O_NONBLOCK)
     8dc:	000c8a63          	beqz	s9,8f0 <altera_avalon_jtag_uart_read+0xd4>
     8e0:	0900006f          	j	970 <altera_avalon_jtag_uart_read+0x154>
      while (in == sp->rx_in && sp->host_inactive < sp->timeout)
        ;
    }
#else
    /* No OS: Always spin */
    while (in == sp->rx_in && sp->host_inactive < sp->timeout)
     8e4:	02492703          	lw	a4,36(s2)
     8e8:	00492783          	lw	a5,4(s2)
     8ec:	00f77663          	bgeu	a4,a5,8f8 <altera_avalon_jtag_uart_read+0xdc>
     8f0:	02892783          	lw	a5,40(s2)
     8f4:	ff4788e3          	beq	a5,s4,8e4 <altera_avalon_jtag_uart_read+0xc8>
      ;
#endif /* __ucosii__ */

    if (in == sp->rx_in)
     8f8:	02892783          	lw	a5,40(s2)
     8fc:	f7479ee3          	bne	a5,s4,878 <altera_avalon_jtag_uart_read+0x5c>
  if (ptr != buffer)
    return ptr - buffer;
  else if (flags & O_NONBLOCK)
    return -EWOULDBLOCK;
  else
    return -EIO;
     900:	ffb00513          	li	a0,-5
     904:	0340006f          	j	938 <altera_avalon_jtag_uart_read+0x11c>
  if (ptr != buffer)
     908:	077d0463          	beq	s10,s7,970 <altera_avalon_jtag_uart_read+0x154>
    NIOSV_READ_AND_CLR_CSR(NIOSV_MSTATUS_CSR, context, NIOSV_MSTATUS_MIE_MASK);
     90c:	00800793          	li	a5,8
     910:	3007b7f3          	csrrc	a5,mstatus,a5
    sp->irq_enable |= ALTERA_AVALON_JTAG_UART_CONTROL_RE_MSK;
     914:	02092703          	lw	a4,32(s2)
    IOWR_ALTERA_AVALON_JTAG_UART_CONTROL(sp->base, sp->irq_enable);
     918:	00092683          	lw	a3,0(s2)
    sp->irq_enable |= ALTERA_AVALON_JTAG_UART_CONTROL_RE_MSK;
     91c:	00176713          	or	a4,a4,1
     920:	02e92023          	sw	a4,32(s2)
    IOWR_ALTERA_AVALON_JTAG_UART_CONTROL(sp->base, sp->irq_enable);
     924:	00468693          	add	a3,a3,4
     928:	00e6a023          	sw	a4,0(a3)
    NIOSV_SET_CSR(NIOSV_MSTATUS_CSR, context & NIOSV_MSTATUS_MIE_MASK);
     92c:	0087f793          	and	a5,a5,8
     930:	3007a073          	csrs	mstatus,a5
    return ptr - buffer;
     934:	417d0533          	sub	a0,s10,s7
}
     938:	02c12083          	lw	ra,44(sp)
     93c:	02812403          	lw	s0,40(sp)
     940:	02412483          	lw	s1,36(sp)
     944:	02012903          	lw	s2,32(sp)
     948:	01c12983          	lw	s3,28(sp)
     94c:	01812a03          	lw	s4,24(sp)
     950:	01412a83          	lw	s5,20(sp)
     954:	01012b03          	lw	s6,16(sp)
     958:	00c12b83          	lw	s7,12(sp)
     95c:	00812c03          	lw	s8,8(sp)
     960:	00412c83          	lw	s9,4(sp)
     964:	00012d03          	lw	s10,0(sp)
     968:	03010113          	add	sp,sp,48
     96c:	00008067          	ret
  else if (flags & O_NONBLOCK)
     970:	011c1793          	sll	a5,s8,0x11
    return -EWOULDBLOCK;
     974:	ff500513          	li	a0,-11
  else if (flags & O_NONBLOCK)
     978:	fc07c0e3          	bltz	a5,938 <altera_avalon_jtag_uart_read+0x11c>
     97c:	f85ff06f          	j	900 <altera_avalon_jtag_uart_read+0xe4>

00000980 <altera_avalon_jtag_uart_write>:
/* ----------------------------------------------------------- */

int 
altera_avalon_jtag_uart_write(altera_avalon_jtag_uart_state* sp, 
  const char * ptr, int count, int flags)
{
     980:	fb010113          	add	sp,sp,-80
     984:	05212023          	sw	s2,64(sp)
        break;

      if (n > count)
        n = count;

      memcpy(sp->tx_buf + in, ptr, n);
     988:	00001937          	lui	s2,0x1
{
     98c:	03712623          	sw	s7,44(sp)
     990:	03912223          	sw	s9,36(sp)
      memcpy(sp->tx_buf + in, ptr, n);
     994:	83890913          	add	s2,s2,-1992 # 838 <altera_avalon_jtag_uart_read+0x1c>
        n = ALTERA_AVALON_JTAG_UART_BUF_LEN - in;
     998:	00001cb7          	lui	s9,0x1
     * some has been sent 
     */
    /* consider: test whether there is anything there while doing this and delay for at most 2s. */
    if (count > 0)
    {
      if (flags & O_NONBLOCK)
     99c:	00004bb7          	lui	s7,0x4
{
     9a0:	04812423          	sw	s0,72(sp)
     9a4:	04912223          	sw	s1,68(sp)
     9a8:	03412c23          	sw	s4,56(sp)
     9ac:	03612823          	sw	s6,48(sp)
     9b0:	03812423          	sw	s8,40(sp)
     9b4:	03a12023          	sw	s10,32(sp)
     9b8:	01b12e23          	sw	s11,28(sp)
     9bc:	04112623          	sw	ra,76(sp)
     9c0:	03312e23          	sw	s3,60(sp)
     9c4:	03512a23          	sw	s5,52(sp)
     9c8:	00050413          	mv	s0,a0
     9cc:	00058a13          	mv	s4,a1
     9d0:	00d12623          	sw	a3,12(sp)
     9d4:	00060b13          	mv	s6,a2
 * HAL.
 */

static ALT_INLINE int ALT_ALWAYS_INLINE alt_no_error (void)
{
  return 0;
     9d8:	00058d93          	mv	s11,a1
  unsigned int in, out=0;
     9dc:	00000493          	li	s1,0
    NIOSV_READ_AND_CLR_CSR(NIOSV_MSTATUS_CSR, context, NIOSV_MSTATUS_MIE_MASK);
     9e0:	00800c13          	li	s8,8
      if (flags & O_NONBLOCK)
     9e4:	0176fbb3          	and	s7,a3,s7
        n = ALTERA_AVALON_JTAG_UART_BUF_LEN - 1 - in;
     9e8:	7ff00d13          	li	s10,2047
        n = ALTERA_AVALON_JTAG_UART_BUF_LEN - in;
     9ec:	800c8c93          	add	s9,s9,-2048 # 800 <altera_avalon_jtag_uart_ioctl+0x68>
      memcpy(sp->tx_buf + in, ptr, n);
     9f0:	01250933          	add	s2,a0,s2
    while (count > 0)
     9f4:	05604863          	bgtz	s6,a44 <altera_avalon_jtag_uart_write+0xc4>
     9f8:	300c3773          	csrrc	a4,mstatus,s8
    sp->irq_enable |= ALTERA_AVALON_JTAG_UART_CONTROL_WE_MSK;
     9fc:	02042783          	lw	a5,32(s0)
    IOWR_ALTERA_AVALON_JTAG_UART_CONTROL(sp->base, sp->irq_enable);
     a00:	00042683          	lw	a3,0(s0)
    sp->irq_enable |= ALTERA_AVALON_JTAG_UART_CONTROL_WE_MSK;
     a04:	0027e793          	or	a5,a5,2
     a08:	02f42023          	sw	a5,32(s0)
    IOWR_ALTERA_AVALON_JTAG_UART_CONTROL(sp->base, sp->irq_enable);
     a0c:	00468693          	add	a3,a3,4
     a10:	00f6a023          	sw	a5,0(a3)
    NIOSV_SET_CSR(NIOSV_MSTATUS_CSR, context & NIOSV_MSTATUS_MIE_MASK);
     a14:	00877793          	and	a5,a4,8
     a18:	3007a073          	csrs	mstatus,a5
    if (count > 0)
     a1c:	0d605663          	blez	s6,ae8 <altera_avalon_jtag_uart_write+0x168>
      if (flags & O_NONBLOCK)
     a20:	000b8a63          	beqz	s7,a34 <altera_avalon_jtag_uart_write+0xb4>
     a24:	0e00006f          	j	b04 <altera_avalon_jtag_uart_write+0x184>
      /*
       * No OS present: Always wait for data to be removed from buffer.  Once
       * the interrupt routine has removed some data then we will be able to
       * insert some more.
       */
      while (out == sp->tx_out && sp->host_inactive < sp->timeout)
     a28:	02442703          	lw	a4,36(s0)
     a2c:	00442783          	lw	a5,4(s0)
     a30:	00f77663          	bgeu	a4,a5,a3c <altera_avalon_jtag_uart_write+0xbc>
     a34:	03442783          	lw	a5,52(s0)
     a38:	fe9788e3          	beq	a5,s1,a28 <altera_avalon_jtag_uart_write+0xa8>
        ;
#endif /* __ucosii__ */

      if  (sp->host_inactive)
     a3c:	02442783          	lw	a5,36(s0)
     a40:	06079263          	bnez	a5,aa4 <altera_avalon_jtag_uart_write+0x124>
      in  = sp->tx_in;
     a44:	03042a83          	lw	s5,48(s0)
      out = sp->tx_out;
     a48:	03442483          	lw	s1,52(s0)
      if (in < out)
     a4c:	049af263          	bgeu	s5,s1,a90 <altera_avalon_jtag_uart_write+0x110>
        n = out - 1 - in;
     a50:	fff48793          	add	a5,s1,-1
     a54:	415787b3          	sub	a5,a5,s5
      if (n == 0)
     a58:	fa0780e3          	beqz	a5,9f8 <altera_avalon_jtag_uart_write+0x78>
      if (n > count)
     a5c:	000b0993          	mv	s3,s6
     a60:	0167f463          	bgeu	a5,s6,a68 <altera_avalon_jtag_uart_write+0xe8>
     a64:	00078993          	mv	s3,a5
      memcpy(sp->tx_buf + in, ptr, n);
     a68:	01590533          	add	a0,s2,s5
      sp->tx_in = (in + n) % ALTERA_AVALON_JTAG_UART_BUF_LEN;
     a6c:	013a8ab3          	add	s5,s5,s3
      memcpy(sp->tx_buf + in, ptr, n);
     a70:	000d8593          	mv	a1,s11
     a74:	00098613          	mv	a2,s3
      sp->tx_in = (in + n) % ALTERA_AVALON_JTAG_UART_BUF_LEN;
     a78:	7ffafa93          	and	s5,s5,2047
      memcpy(sp->tx_buf + in, ptr, n);
     a7c:	280020ef          	jal	2cfc <memcpy>
      ptr   += n;
     a80:	013d8db3          	add	s11,s11,s3
      count -= n;
     a84:	413b0b33          	sub	s6,s6,s3
      sp->tx_in = (in + n) % ALTERA_AVALON_JTAG_UART_BUF_LEN;
     a88:	03542823          	sw	s5,48(s0)
     a8c:	f69ff06f          	j	9f4 <altera_avalon_jtag_uart_write+0x74>
        n = ALTERA_AVALON_JTAG_UART_BUF_LEN - 1 - in;
     a90:	415d07b3          	sub	a5,s10,s5
      else if (out > 0)
     a94:	fc0482e3          	beqz	s1,a58 <altera_avalon_jtag_uart_write+0xd8>
        n = ALTERA_AVALON_JTAG_UART_BUF_LEN - in;
     a98:	415c87b3          	sub	a5,s9,s5
      if (n == 0)
     a9c:	f4078ee3          	beqz	a5,9f8 <altera_avalon_jtag_uart_write+0x78>
     aa0:	fbdff06f          	j	a5c <altera_avalon_jtag_uart_write+0xdc>
   * Now that access to the circular buffer is complete, release the write
   * semaphore so that other threads can access the buffer.
   */
  ALT_SEM_POST (sp->write_lock);

  if (ptr != start)
     aa4:	07ba0663          	beq	s4,s11,b10 <altera_avalon_jtag_uart_write+0x190>
    return ptr - start;
     aa8:	414d8533          	sub	a0,s11,s4
    return ptr - start + count;
  }
#endif
  else
    return -EIO; /* Host not connected */
}
     aac:	04c12083          	lw	ra,76(sp)
     ab0:	04812403          	lw	s0,72(sp)
     ab4:	04412483          	lw	s1,68(sp)
     ab8:	04012903          	lw	s2,64(sp)
     abc:	03c12983          	lw	s3,60(sp)
     ac0:	03812a03          	lw	s4,56(sp)
     ac4:	03412a83          	lw	s5,52(sp)
     ac8:	03012b03          	lw	s6,48(sp)
     acc:	02c12b83          	lw	s7,44(sp)
     ad0:	02812c03          	lw	s8,40(sp)
     ad4:	02412c83          	lw	s9,36(sp)
     ad8:	02012d03          	lw	s10,32(sp)
     adc:	01c12d83          	lw	s11,28(sp)
     ae0:	05010113          	add	sp,sp,80
     ae4:	00008067          	ret
  if (ptr != start)
     ae8:	fdba10e3          	bne	s4,s11,aa8 <altera_avalon_jtag_uart_write+0x128>
    return -EIO; /* Host not connected */
     aec:	00c12783          	lw	a5,12(sp)
     af0:	01179513          	sll	a0,a5,0x11
     af4:	41f55513          	sra	a0,a0,0x1f
     af8:	ffa57513          	and	a0,a0,-6
     afc:	ffb50513          	add	a0,a0,-5
     b00:	fadff06f          	j	aac <altera_avalon_jtag_uart_write+0x12c>
    return -EWOULDBLOCK;
     b04:	ff500513          	li	a0,-11
  if (ptr != start)
     b08:	fbba10e3          	bne	s4,s11,aa8 <altera_avalon_jtag_uart_write+0x128>
     b0c:	fa1ff06f          	j	aac <altera_avalon_jtag_uart_write+0x12c>
    return -EIO; /* Host not connected */
     b10:	ffb00513          	li	a0,-5
     b14:	f99ff06f          	j	aac <altera_avalon_jtag_uart_write+0x12c>

00000b18 <alt_alarm_start>:
     b18:	000187b7          	lui	a5,0x18
                     void* context)
{
  alt_irq_context irq_context;
  alt_u64 current_nticks = 0;
  
  if (alt_ticks_per_second ())
     b1c:	4407a783          	lw	a5,1088(a5) # 18440 <_alt_tick_rate>
     b20:	06078663          	beqz	a5,b8c <alt_alarm_start+0x74>
  {
    if (alarm)
     b24:	06050863          	beqz	a0,b94 <alt_alarm_start+0x7c>
    {
      alarm->callback = callback;
     b28:	00c52823          	sw	a2,16(a0)
      alarm->context  = context;
     b2c:	00d52a23          	sw	a3,20(a0)
    NIOSV_READ_AND_CLR_CSR(NIOSV_MSTATUS_CSR, context, NIOSV_MSTATUS_MIE_MASK);
     b30:	00800793          	li	a5,8
     b34:	3007b773          	csrrc	a4,mstatus,a5
 * alt_nticks() returns the elapsed number of system clock ticks since reset.
 */

static ALT_INLINE alt_u64 ALT_ALWAYS_INLINE alt_nticks (void)
{
  return _alt_nticks;
     b38:	000187b7          	lui	a5,0x18
     b3c:	4387a803          	lw	a6,1080(a5) # 18438 <_alt_nticks>
     b40:	43c7a883          	lw	a7,1084(a5)
 */

static ALT_INLINE void ALT_ALWAYS_INLINE alt_llist_insert(alt_llist* list, 
                alt_llist* entry)
{
  entry->previous = list;
     b44:	81818693          	add	a3,gp,-2024 # 16b10 <alt_alarm_list>
 
      irq_context = alt_irq_disable_all ();
      
      current_nticks = alt_nticks();
      
      alarm->time = (alt_u64)nticks + current_nticks + 1; 
     b48:	00180793          	add	a5,a6,1
  entry->next     = list->next;
     b4c:	0006a303          	lw	t1,0(a3)
     b50:	00b785b3          	add	a1,a5,a1
     b54:	0107b633          	sltu	a2,a5,a6
     b58:	01160633          	add	a2,a2,a7
     b5c:	00f5b7b3          	sltu	a5,a1,a5
     b60:	00c787b3          	add	a5,a5,a2
     b64:	00652023          	sw	t1,0(a0)
     b68:	00f52623          	sw	a5,12(a0)
     b6c:	00b52423          	sw	a1,8(a0)
  entry->previous = list;
     b70:	00d52223          	sw	a3,4(a0)

  list->next->previous = entry;
     b74:	00a32223          	sw	a0,4(t1)
  list->next           = entry;
     b78:	00a6a023          	sw	a0,0(a3)
    NIOSV_SET_CSR(NIOSV_MSTATUS_CSR, context & NIOSV_MSTATUS_MIE_MASK);
     b7c:	00877793          	and	a5,a4,8
     b80:	3007a073          	csrs	mstatus,a5
          
      alt_llist_insert (&alt_alarm_list, &alarm->llist);
      alt_irq_enable_all (irq_context);

      return 0;
     b84:	00000513          	li	a0,0
     b88:	00008067          	ret
      return -EINVAL;
    }
  }
  else
  {
    return -ENOTSUP;
     b8c:	f7a00513          	li	a0,-134
     b90:	00008067          	ret
      return -EINVAL;
     b94:	fea00513          	li	a0,-22
  }
}
     b98:	00008067          	ret

00000b9c <alt_dcache_flush_all>:
    for (i = (char*)0; i < (char*) ALT_CPU_DCACHE_SIZE; i+= ALT_CPU_DCACHE_LINE_SIZE)
    { 
      DCACHE_CLEAN_BY_INDEX_VAL(i); 
    }
#endif
}
     b9c:	00008067          	ret

00000ba0 <alt_dev_null_write>:
 */

static int alt_dev_null_write (alt_fd* fd, const char* ptr, int len)
{
  return len;
}
     ba0:	00060513          	mv	a0,a2
     ba4:	00008067          	ret

00000ba8 <alt_dev_reg>:
    /* all other elements are set to zero */
  };
  
int alt_dev_reg (alt_dev* dev)
{
    return alt_dev_llist_insert ((alt_dev_llist*) dev, &alt_dev_list);
     ba8:	000175b7          	lui	a1,0x17
     bac:	afc58593          	add	a1,a1,-1284 # 16afc <alt_dev_list>
     bb0:	0040006f          	j	bb4 <alt_dev_llist_insert>

00000bb4 <alt_dev_llist_insert>:
{
  /*
   * check that the device exists, and that it has a valid name.
   */

  if (!dev || !dev->name)
     bb4:	02050663          	beqz	a0,be0 <alt_dev_llist_insert+0x2c>
     bb8:	00852703          	lw	a4,8(a0)
     bbc:	00050793          	mv	a5,a0
     bc0:	02070063          	beqz	a4,be0 <alt_dev_llist_insert+0x2c>
  entry->next     = list->next;
     bc4:	0005a703          	lw	a4,0(a1)
  entry->previous = list;
     bc8:	00b52223          	sw	a1,4(a0)
   * register the device.
   */
  
  alt_llist_insert(list, &dev->llist);

  return 0;  
     bcc:	00000513          	li	a0,0
  entry->next     = list->next;
     bd0:	00e7a023          	sw	a4,0(a5)
  list->next->previous = entry;
     bd4:	00f72223          	sw	a5,4(a4)
  list->next           = entry;
     bd8:	00f5a023          	sw	a5,0(a1)
     bdc:	00008067          	ret

extern int errno;

static ALT_INLINE int* alt_get_errno(void)
{
  return ((alt_errno) ? alt_errno() : &errno);
     be0:	8141a783          	lw	a5,-2028(gp) # 16b0c <alt_errno>
     be4:	02078463          	beqz	a5,c0c <alt_dev_llist_insert+0x58>
{
     be8:	ff010113          	add	sp,sp,-16
     bec:	00112623          	sw	ra,12(sp)
     bf0:	000780e7          	jalr	a5
}
     bf4:	00c12083          	lw	ra,12(sp)
    ALT_ERRNO = EINVAL;
     bf8:	01600793          	li	a5,22
     bfc:	00f52023          	sw	a5,0(a0)
    return -EINVAL;
     c00:	fea00513          	li	a0,-22
}
     c04:	01010113          	add	sp,sp,16
     c08:	00008067          	ret
     c0c:	00018537          	lui	a0,0x18
     c10:	45050513          	add	a0,a0,1104 # 18450 <errno>
    ALT_ERRNO = EINVAL;
     c14:	01600793          	li	a5,22
     c18:	00f52023          	sw	a5,0(a0)
    return -EINVAL;
     c1c:	fea00513          	li	a0,-22
}
     c20:	00008067          	ret

00000c24 <_do_ctors>:
/*
 * Run the C++ static constructors.
 */

void _do_ctors(void)
{
     c24:	ff010113          	add	sp,sp,-16
     c28:	00812423          	sw	s0,8(sp)
     c2c:	00912223          	sw	s1,4(sp)
  constructor* ctor;

  for (ctor = __init_array_start; ctor < __init_array_end; ctor++)
     c30:	00014437          	lui	s0,0x14
     c34:	000144b7          	lui	s1,0x14
{
     c38:	00112623          	sw	ra,12(sp)
  for (ctor = __init_array_start; ctor < __init_array_end; ctor++)
     c3c:	61040793          	add	a5,s0,1552 # 14610 <__init_array_start>
     c40:	61848493          	add	s1,s1,1560 # 14618 <__fini_array_end>
     c44:	0097fc63          	bgeu	a5,s1,c5c <_do_ctors+0x38>
     c48:	61040413          	add	s0,s0,1552
        (*ctor) (); 
     c4c:	00042783          	lw	a5,0(s0)
  for (ctor = __init_array_start; ctor < __init_array_end; ctor++)
     c50:	00440413          	add	s0,s0,4
        (*ctor) (); 
     c54:	000780e7          	jalr	a5
  for (ctor = __init_array_start; ctor < __init_array_end; ctor++)
     c58:	fe946ae3          	bltu	s0,s1,c4c <_do_ctors+0x28>
}
     c5c:	00c12083          	lw	ra,12(sp)
     c60:	00812403          	lw	s0,8(sp)
     c64:	00412483          	lw	s1,4(sp)
     c68:	01010113          	add	sp,sp,16
     c6c:	00008067          	ret

00000c70 <_do_dtors>:
/*
 * Run the C++ static destructors.
 */

void _do_dtors(void)
{
     c70:	ff010113          	add	sp,sp,-16
     c74:	00812423          	sw	s0,8(sp)
     c78:	00912223          	sw	s1,4(sp)
  destructor* dtor;

  for (dtor = &__fini_array_end[-1]; dtor >= __fini_array_start; dtor--)
     c7c:	00014437          	lui	s0,0x14
     c80:	000144b7          	lui	s1,0x14
{
     c84:	00112623          	sw	ra,12(sp)
  for (dtor = &__fini_array_end[-1]; dtor >= __fini_array_start; dtor--)
     c88:	61440793          	add	a5,s0,1556 # 14614 <__init_array_start+0x4>
     c8c:	61848493          	add	s1,s1,1560 # 14618 <__fini_array_end>
     c90:	0097ec63          	bltu	a5,s1,ca8 <_do_dtors+0x38>
     c94:	61440413          	add	s0,s0,1556
        (*dtor) (); 
     c98:	00042783          	lw	a5,0(s0)
  for (dtor = &__fini_array_end[-1]; dtor >= __fini_array_start; dtor--)
     c9c:	ffc40413          	add	s0,s0,-4
        (*dtor) (); 
     ca0:	000780e7          	jalr	a5
  for (dtor = &__fini_array_end[-1]; dtor >= __fini_array_start; dtor--)
     ca4:	fe947ae3          	bgeu	s0,s1,c98 <_do_dtors+0x28>
}
     ca8:	00c12083          	lw	ra,12(sp)
     cac:	00812403          	lw	s0,8(sp)
     cb0:	00412483          	lw	s1,4(sp)
     cb4:	01010113          	add	sp,sp,16
     cb8:	00008067          	ret

00000cbc <alt_icache_flush_all>:
void alt_icache_flush_all (void)
{
#if ALT_CPU_ICACHE_SIZE > 0
    __asm__ volatile("fence.i" ::: "memory");
#endif
}
     cbc:	00008067          	ret

00000cc0 <alt_ic_isr_register>:
  */
int 
alt_ic_isr_register(alt_u32 ic_id, alt_u32 irq, alt_isr_func isr, 
  void *isr_context, void *flags)
{
    return alt_iic_isr_register(ic_id, irq, isr, isr_context, flags);
     cc0:	0040006f          	j	cc4 <alt_iic_isr_register>

00000cc4 <alt_iic_isr_register>:
{
  int rc = -EINVAL;  
  int id = irq;             /* IRQ interpreted as the interrupt ID. */
  alt_irq_context status;

  if (id < ALT_NIRQ)
     cc4:	00f00813          	li	a6,15
     cc8:	06b84863          	blt	a6,a1,d38 <alt_iic_isr_register+0x74>
    NIOSV_READ_AND_CLR_CSR(NIOSV_MSTATUS_CSR, context, NIOSV_MSTATUS_MIE_MASK);
     ccc:	00800793          	li	a5,8
     cd0:	3007b773          	csrrc	a4,mstatus,a5
     * state.
     */

    status = alt_irq_disable_all();

    alt_irq[id].handler = isr;
     cd4:	000187b7          	lui	a5,0x18
     cd8:	00359513          	sll	a0,a1,0x3
     cdc:	49078793          	add	a5,a5,1168 # 18490 <alt_irq>
     ce0:	00a787b3          	add	a5,a5,a0
     ce4:	00c7a023          	sw	a2,0(a5)
    alt_irq[id].context = isr_context;
     ce8:	00d7a223          	sw	a3,4(a5)

    rc = (isr) ? alt_ic_irq_enable(ic_id, id) : alt_ic_irq_disable(ic_id, id);
     cec:	02060463          	beqz	a2,d14 <alt_iic_isr_register+0x50>
    int rc = ALT_REMAP_IRQ_NUM(irq);
     cf0:	04b86863          	bltu	a6,a1,d40 <alt_iic_isr_register+0x7c>
     cf4:	01058593          	add	a1,a1,16
    NIOSV_SET_CSR(NIOSV_MIE_CSR, 0x1 << irq);
     cf8:	00100793          	li	a5,1
     cfc:	00b797b3          	sll	a5,a5,a1
     d00:	3047a073          	csrs	mie,a5
    return 0;
     d04:	00000513          	li	a0,0
    NIOSV_SET_CSR(NIOSV_MSTATUS_CSR, context & NIOSV_MSTATUS_MIE_MASK);
     d08:	00877793          	and	a5,a4,8
     d0c:	3007a073          	csrs	mstatus,a5
}
     d10:	00008067          	ret
    int rc = ALT_REMAP_IRQ_NUM(irq);
     d14:	02b86663          	bltu	a6,a1,d40 <alt_iic_isr_register+0x7c>
     d18:	01058593          	add	a1,a1,16
    NIOSV_CLR_CSR(NIOSV_MIE_CSR, 0x1 << irq);
     d1c:	00100793          	li	a5,1
     d20:	00b797b3          	sll	a5,a5,a1
     d24:	3047b073          	csrc	mie,a5
    return 0;
     d28:	00000513          	li	a0,0
    NIOSV_SET_CSR(NIOSV_MSTATUS_CSR, context & NIOSV_MSTATUS_MIE_MASK);
     d2c:	00877793          	and	a5,a4,8
     d30:	3007a073          	csrs	mstatus,a5
}
     d34:	00008067          	ret
  int rc = -EINVAL;  
     d38:	fea00513          	li	a0,-22

    alt_irq_enable_all(status);
  }

  return rc; 
}
     d3c:	00008067          	ret
        return rc;
     d40:	fff00513          	li	a0,-1
     d44:	fc5ff06f          	j	d08 <alt_iic_isr_register+0x44>

00000d48 <alt_io_redirect>:
 */
 
void alt_io_redirect(const char* stdout_dev, 
                     const char* stdin_dev, 
                     const char* stderr_dev)
{
     d48:	ff010113          	add	sp,sp,-16
     d4c:	00812423          	sw	s0,8(sp)
     d50:	00912223          	sw	s1,4(sp)
     d54:	00060413          	mv	s0,a2
     d58:	00058493          	mv	s1,a1
  old = open (name, flags, mode);
     d5c:	1ff00613          	li	a2,511
     d60:	00100593          	li	a1,1
{
     d64:	00112623          	sw	ra,12(sp)
  old = open (name, flags, mode);
     d68:	4c0000ef          	jal	1228 <open>
  if (old >= 0)
     d6c:	02054c63          	bltz	a0,da4 <alt_io_redirect+0x5c>
    fd->dev      = alt_fd_list[old].dev;
     d70:	00151713          	sll	a4,a0,0x1
     d74:	00a707b3          	add	a5,a4,a0
     d78:	00016737          	lui	a4,0x16
     d7c:	2b070713          	add	a4,a4,688 # 162b0 <alt_fd_list>
     d80:	00279793          	sll	a5,a5,0x2
     d84:	00f707b3          	add	a5,a4,a5
     d88:	0007a603          	lw	a2,0(a5)
    fd->fd_flags = alt_fd_list[old].fd_flags;
     d8c:	0087a683          	lw	a3,8(a5)
    fd->dev      = alt_fd_list[old].dev;
     d90:	00c72623          	sw	a2,12(a4)
    fd->priv     = alt_fd_list[old].priv;
     d94:	0047a783          	lw	a5,4(a5)
    fd->fd_flags = alt_fd_list[old].fd_flags;
     d98:	00d72a23          	sw	a3,20(a4)
    fd->priv     = alt_fd_list[old].priv;
     d9c:	00f72823          	sw	a5,16(a4)
    alt_release_fd (old);
     da0:	130000ef          	jal	ed0 <alt_release_fd>
  old = open (name, flags, mode);
     da4:	1ff00613          	li	a2,511
     da8:	00000593          	li	a1,0
     dac:	00048513          	mv	a0,s1
     db0:	478000ef          	jal	1228 <open>
  if (old >= 0)
     db4:	02054c63          	bltz	a0,dec <alt_io_redirect+0xa4>
    fd->dev      = alt_fd_list[old].dev;
     db8:	00151713          	sll	a4,a0,0x1
     dbc:	000166b7          	lui	a3,0x16
     dc0:	00a707b3          	add	a5,a4,a0
     dc4:	00279793          	sll	a5,a5,0x2
     dc8:	2b068713          	add	a4,a3,688 # 162b0 <alt_fd_list>
     dcc:	00e787b3          	add	a5,a5,a4
     dd0:	0007a583          	lw	a1,0(a5)
     dd4:	0047a603          	lw	a2,4(a5)
     dd8:	2ab6a823          	sw	a1,688(a3)
     ddc:	00c72223          	sw	a2,4(a4)
    fd->fd_flags = alt_fd_list[old].fd_flags;
     de0:	0087a783          	lw	a5,8(a5)
     de4:	00f72423          	sw	a5,8(a4)
    alt_release_fd (old);
     de8:	0e8000ef          	jal	ed0 <alt_release_fd>
  old = open (name, flags, mode);
     dec:	1ff00613          	li	a2,511
     df0:	00100593          	li	a1,1
     df4:	00040513          	mv	a0,s0
     df8:	430000ef          	jal	1228 <open>
  if (old >= 0)
     dfc:	02054c63          	bltz	a0,e34 <alt_io_redirect+0xec>
    fd->dev      = alt_fd_list[old].dev;
     e00:	00151713          	sll	a4,a0,0x1
     e04:	00a707b3          	add	a5,a4,a0
     e08:	00016737          	lui	a4,0x16
     e0c:	2b070713          	add	a4,a4,688 # 162b0 <alt_fd_list>
     e10:	00279793          	sll	a5,a5,0x2
     e14:	00f707b3          	add	a5,a4,a5
     e18:	0007a603          	lw	a2,0(a5)
    fd->fd_flags = alt_fd_list[old].fd_flags;
     e1c:	0087a683          	lw	a3,8(a5)
    fd->dev      = alt_fd_list[old].dev;
     e20:	00c72c23          	sw	a2,24(a4)
    fd->priv     = alt_fd_list[old].priv;
     e24:	0047a783          	lw	a5,4(a5)
    fd->fd_flags = alt_fd_list[old].fd_flags;
     e28:	02d72023          	sw	a3,32(a4)
    fd->priv     = alt_fd_list[old].priv;
     e2c:	00f72e23          	sw	a5,28(a4)
    alt_release_fd (old);
     e30:	0a0000ef          	jal	ed0 <alt_release_fd>

#ifndef USE_PICOLIBC
  /* Allocate a stream buffer if it is not yet done.
   * And use no buffering mode by default.
   */
  if ((FILE *)stdin->_bf._base == NULL)
     e34:	8201a783          	lw	a5,-2016(gp) # 16b18 <_impure_ptr>
     e38:	0047a503          	lw	a0,4(a5)
     e3c:	01052703          	lw	a4,16(a0)
     e40:	02070863          	beqz	a4,e70 <alt_io_redirect+0x128>
  {
    setvbuf(stdin, NULL, _IONBF, 0);
  }

  if ((FILE *)stdout->_bf._base == NULL)
     e44:	0087a503          	lw	a0,8(a5)
     e48:	01052703          	lw	a4,16(a0)
     e4c:	04070263          	beqz	a4,e90 <alt_io_redirect+0x148>
  {
    setvbuf(stdout, NULL, _IONBF, 0);
  }

  if ((FILE *)stderr->_bf._base == NULL)
     e50:	00c7a503          	lw	a0,12(a5)
     e54:	01052783          	lw	a5,16(a0)
     e58:	04078c63          	beqz	a5,eb0 <alt_io_redirect+0x168>
  {
    setvbuf(stderr, NULL, _IONBF, 0);
  }
#endif
}  
     e5c:	00c12083          	lw	ra,12(sp)
     e60:	00812403          	lw	s0,8(sp)
     e64:	00412483          	lw	s1,4(sp)
     e68:	01010113          	add	sp,sp,16
     e6c:	00008067          	ret
    setvbuf(stdin, NULL, _IONBF, 0);
     e70:	00000693          	li	a3,0
     e74:	00200613          	li	a2,2
     e78:	00000593          	li	a1,0
     e7c:	1bd000ef          	jal	1838 <setvbuf>
  if ((FILE *)stdout->_bf._base == NULL)
     e80:	8201a783          	lw	a5,-2016(gp) # 16b18 <_impure_ptr>
     e84:	0087a503          	lw	a0,8(a5)
     e88:	01052703          	lw	a4,16(a0)
     e8c:	fc0712e3          	bnez	a4,e50 <alt_io_redirect+0x108>
    setvbuf(stdout, NULL, _IONBF, 0);
     e90:	00000693          	li	a3,0
     e94:	00200613          	li	a2,2
     e98:	00000593          	li	a1,0
     e9c:	19d000ef          	jal	1838 <setvbuf>
  if ((FILE *)stderr->_bf._base == NULL)
     ea0:	8201a783          	lw	a5,-2016(gp) # 16b18 <_impure_ptr>
     ea4:	00c7a503          	lw	a0,12(a5)
     ea8:	01052783          	lw	a5,16(a0)
     eac:	fa0798e3          	bnez	a5,e5c <alt_io_redirect+0x114>
}  
     eb0:	00812403          	lw	s0,8(sp)
     eb4:	00c12083          	lw	ra,12(sp)
     eb8:	00412483          	lw	s1,4(sp)
    setvbuf(stderr, NULL, _IONBF, 0);
     ebc:	00000693          	li	a3,0
     ec0:	00200613          	li	a2,2
     ec4:	00000593          	li	a1,0
}  
     ec8:	01010113          	add	sp,sp,16
    setvbuf(stderr, NULL, _IONBF, 0);
     ecc:	16d0006f          	j	1838 <setvbuf>

00000ed0 <alt_release_fd>:
 * error cannont be released backed to the pool. They are always reserved.
 */

void alt_release_fd (int fd)
{
  if (fd > 2)
     ed0:	00200793          	li	a5,2
     ed4:	02a7d263          	bge	a5,a0,ef8 <alt_release_fd+0x28>
  {
    alt_fd_list[fd].fd_flags = 0;
     ed8:	00151713          	sll	a4,a0,0x1
     edc:	00a70733          	add	a4,a4,a0
     ee0:	000167b7          	lui	a5,0x16
     ee4:	00271713          	sll	a4,a4,0x2
     ee8:	2b078793          	add	a5,a5,688 # 162b0 <alt_fd_list>
     eec:	00e787b3          	add	a5,a5,a4
     ef0:	0007a423          	sw	zero,8(a5)
    alt_fd_list[fd].dev      = 0;
     ef4:	0007a023          	sw	zero,0(a5)
  }
}
     ef8:	00008067          	ret

00000efc <alt_alarm_stop>:
    NIOSV_READ_AND_CLR_CSR(NIOSV_MSTATUS_CSR, context, NIOSV_MSTATUS_MIE_MASK);
     efc:	00800793          	li	a5,8
     f00:	3007b7f3          	csrrc	a5,mstatus,a5
 * input argument is the element to remove.
 */
     
static ALT_INLINE void ALT_ALWAYS_INLINE alt_llist_remove(alt_llist* entry)
{
  entry->next->previous = entry->previous;
     f04:	00052683          	lw	a3,0(a0)
     f08:	00452703          	lw	a4,4(a0)
    NIOSV_SET_CSR(NIOSV_MSTATUS_CSR, context & NIOSV_MSTATUS_MIE_MASK);
     f0c:	0087f793          	and	a5,a5,8
     f10:	00e6a223          	sw	a4,4(a3)
  entry->previous->next = entry->next;
     f14:	00d72023          	sw	a3,0(a4)
  /* 
   * Set the entry to point to itself, so that any further calls to
   * alt_llist_remove() are harmless.
   */

  entry->previous = entry;
     f18:	00a52223          	sw	a0,4(a0)
  entry->next     = entry;
     f1c:	00a52023          	sw	a0,0(a0)
     f20:	3007a073          	csrs	mstatus,a5
  alt_irq_context irq_context;

  irq_context = alt_irq_disable_all();
  alt_llist_remove (&alarm->llist);
  alt_irq_enable_all (irq_context);
}
     f24:	00008067          	ret

00000f28 <alt_tick>:
 * 
 * alt_tick() is expected to run at interrupt level.
 */

void alt_tick (void)
{
     f28:	fe010113          	add	sp,sp,-32
     f2c:	01412423          	sw	s4,8(sp)

  alt_u32    next_callback;

  /* update the tick counter */

  _alt_nticks++;
     f30:	00018a37          	lui	s4,0x18
     f34:	438a2803          	lw	a6,1080(s4) # 18438 <_alt_nticks>
{
     f38:	01312623          	sw	s3,12(sp)
  _alt_nticks++;
     f3c:	43ca2883          	lw	a7,1084(s4)
     f40:	00180593          	add	a1,a6,1
  alt_alarm* alarm = (alt_alarm*) alt_alarm_list.next;
     f44:	81818993          	add	s3,gp,-2024 # 16b10 <alt_alarm_list>
{
     f48:	00912a23          	sw	s1,20(sp)
  _alt_nticks++;
     f4c:	0105b633          	sltu	a2,a1,a6
  alt_alarm* alarm = (alt_alarm*) alt_alarm_list.next;
     f50:	0009a483          	lw	s1,0(s3)
  _alt_nticks++;
     f54:	011607b3          	add	a5,a2,a7
     f58:	42ba2c23          	sw	a1,1080(s4)
{
     f5c:	00112e23          	sw	ra,28(sp)
  _alt_nticks++;
     f60:	42fa2e23          	sw	a5,1084(s4)
 
  /* process the registered callbacks */

  while (alarm != (alt_alarm*) &alt_alarm_list)
     f64:	07348a63          	beq	s1,s3,fd8 <alt_tick+0xb0>
     f68:	01212823          	sw	s2,16(sp)
     f6c:	00812c23          	sw	s0,24(sp)
    NIOSV_READ_AND_CLR_CSR(NIOSV_MSTATUS_CSR, context, NIOSV_MSTATUS_MIE_MASK);
     f70:	00800913          	li	s2,8
  {
    next = (alt_alarm*) alarm->llist.next;
    
    /* if the alarm period has expired, make the callback */    
    if (alarm->time <= _alt_nticks)
     f74:	438a2603          	lw	a2,1080(s4)
     f78:	00c4a703          	lw	a4,12(s1)
     f7c:	43ca2683          	lw	a3,1084(s4)
     f80:	00048413          	mv	s0,s1
    next = (alt_alarm*) alarm->llist.next;
     f84:	0004a483          	lw	s1,0(s1)
    if (alarm->time <= _alt_nticks)
     f88:	04e6e263          	bltu	a3,a4,fcc <alt_tick+0xa4>
     f8c:	00d71663          	bne	a4,a3,f98 <alt_tick+0x70>
     f90:	00842783          	lw	a5,8(s0)
     f94:	02f66c63          	bltu	a2,a5,fcc <alt_tick+0xa4>
    {
      next_callback = alarm->callback (alarm->context);
     f98:	01042783          	lw	a5,16(s0)
     f9c:	01442503          	lw	a0,20(s0)
     fa0:	000780e7          	jalr	a5

      /* deactivate the alarm if the return value is zero */

      if (next_callback == 0)
     fa4:	04051663          	bnez	a0,ff0 <alt_tick+0xc8>
     fa8:	300937f3          	csrrc	a5,mstatus,s2
  entry->next->previous = entry->previous;
     fac:	00042683          	lw	a3,0(s0)
     fb0:	00442703          	lw	a4,4(s0)
    NIOSV_SET_CSR(NIOSV_MSTATUS_CSR, context & NIOSV_MSTATUS_MIE_MASK);
     fb4:	0087f793          	and	a5,a5,8
     fb8:	00e6a223          	sw	a4,4(a3)
  entry->previous->next = entry->next;
     fbc:	00d72023          	sw	a3,0(a4)
  entry->previous = entry;
     fc0:	00842223          	sw	s0,4(s0)
  entry->next     = entry;
     fc4:	00842023          	sw	s0,0(s0)
     fc8:	3007a073          	csrs	mstatus,a5
  while (alarm != (alt_alarm*) &alt_alarm_list)
     fcc:	fb3494e3          	bne	s1,s3,f74 <alt_tick+0x4c>
     fd0:	01812403          	lw	s0,24(sp)
     fd4:	01012903          	lw	s2,16(sp)
  /* 
   * Update the operating system specific timer facilities.
   */

  ALT_OS_TIME_TICK();
}
     fd8:	01c12083          	lw	ra,28(sp)
     fdc:	01412483          	lw	s1,20(sp)
     fe0:	00c12983          	lw	s3,12(sp)
     fe4:	00812a03          	lw	s4,8(sp)
     fe8:	02010113          	add	sp,sp,32
     fec:	00008067          	ret
        alarm->time += next_callback;
     ff0:	00842783          	lw	a5,8(s0)
     ff4:	00c42703          	lw	a4,12(s0)
     ff8:	00a78533          	add	a0,a5,a0
     ffc:	00f537b3          	sltu	a5,a0,a5
    1000:	00e787b3          	add	a5,a5,a4
    1004:	00a42423          	sw	a0,8(s0)
    1008:	00f42623          	sw	a5,12(s0)
  while (alarm != (alt_alarm*) &alt_alarm_list)
    100c:	f73494e3          	bne	s1,s3,f74 <alt_tick+0x4c>
    1010:	fc1ff06f          	j	fd0 <alt_tick+0xa8>

00001014 <intel_niosv_irq_init>:
 * register so that all possible IRQs are disabled.
 */
void intel_niosv_irq_init(void) 
{
#if ALT_HAS_IRQ_SUPPORT
    NIOSV_CLR_CSR(NIOSV_MIE_CSR, NIOSV_MIE_MASK);
    1014:	fff00793          	li	a5,-1
    1018:	3047b073          	csrc	mie,a5
    NIOSV_WRITE_CSR(NIOSV_MTVEC_CSR, (alt_u32) &VIC_VECTOR_TABLE | ALT_CPU_INT_MODE_VIC);
#endif /* ALT_CPU_INT_MODE == ALT_CPU_INT_MODE_VIC */
#endif /* ALT_CPU_INT_MODE */

#endif
}
    101c:	00008067          	ret

00001020 <alt_timestamp_start>:
    alt_u32 lowbits;
    alt_u32 highbits;

    // Guard against rollover while acquiring each word
    do {
        highbits = ALT_VOLATILE_ACCESS((alt_u32 *)(NIOSV_MTIME_ADDR + 4));
    1020:	040907b7          	lui	a5,0x4090
        lowbits = ALT_VOLATILE_ACCESS((alt_u32 *)NIOSV_MTIME_ADDR);
    1024:	04090637          	lui	a2,0x4090
        highbits = ALT_VOLATILE_ACCESS((alt_u32 *)(NIOSV_MTIME_ADDR + 4));
    1028:	0c478793          	add	a5,a5,196 # 40900c4 <__alt_data_end+0x900c4>
        lowbits = ALT_VOLATILE_ACCESS((alt_u32 *)NIOSV_MTIME_ADDR);
    102c:	0c060613          	add	a2,a2,192 # 40900c0 <__alt_data_end+0x900c0>
        highbits = ALT_VOLATILE_ACCESS((alt_u32 *)(NIOSV_MTIME_ADDR + 4));
    1030:	0007a703          	lw	a4,0(a5)
        lowbits = ALT_VOLATILE_ACCESS((alt_u32 *)NIOSV_MTIME_ADDR);
    1034:	00062583          	lw	a1,0(a2)
    } while (ALT_VOLATILE_ACCESS((alt_u32 *)(NIOSV_MTIME_ADDR + 4)) != highbits);
    1038:	0007a683          	lw	a3,0(a5)
    103c:	fed71ae3          	bne	a4,a3,1030 <alt_timestamp_start+0x10>
void alt_niosv_timer_sc_isr(alt_u32 cause, alt_u32 epc, alt_u32 tval);

extern alt_u64 alt_niosv_timestamp_offset;

static ALT_INLINE int ALT_ALWAYS_INLINE alt_niosv_timer_timestamp_start() {
    alt_niosv_timestamp_offset = alt_niosv_mtime_get();
    1040:	000187b7          	lui	a5,0x18

    return (((alt_u64)highbits) << 32) | lowbits;
    1044:	44b7a423          	sw	a1,1096(a5) # 18448 <alt_niosv_timestamp_offset>
    1048:	44e7a623          	sw	a4,1100(a5)
}
    104c:	00000513          	li	a0,0
    1050:	00008067          	ret

00001054 <alt_timestamp>:
        highbits = ALT_VOLATILE_ACCESS((alt_u32 *)(NIOSV_MTIME_ADDR + 4));
    1054:	04090737          	lui	a4,0x4090
        lowbits = ALT_VOLATILE_ACCESS((alt_u32 *)NIOSV_MTIME_ADDR);
    1058:	04090637          	lui	a2,0x4090
        highbits = ALT_VOLATILE_ACCESS((alt_u32 *)(NIOSV_MTIME_ADDR + 4));
    105c:	0c470713          	add	a4,a4,196 # 40900c4 <__alt_data_end+0x900c4>
        lowbits = ALT_VOLATILE_ACCESS((alt_u32 *)NIOSV_MTIME_ADDR);
    1060:	0c060613          	add	a2,a2,192 # 40900c0 <__alt_data_end+0x900c0>
        highbits = ALT_VOLATILE_ACCESS((alt_u32 *)(NIOSV_MTIME_ADDR + 4));
    1064:	00072783          	lw	a5,0(a4)
        lowbits = ALT_VOLATILE_ACCESS((alt_u32 *)NIOSV_MTIME_ADDR);
    1068:	00062583          	lw	a1,0(a2)
    } while (ALT_VOLATILE_ACCESS((alt_u32 *)(NIOSV_MTIME_ADDR + 4)) != highbits);
    106c:	00072683          	lw	a3,0(a4)
    1070:	fed79ae3          	bne	a5,a3,1064 <alt_timestamp+0x10>
    return 0;
}

static ALT_INLINE alt_u64 ALT_ALWAYS_INLINE alt_niosv_timer_timestamp() {
    return alt_niosv_mtime_get() - alt_niosv_timestamp_offset;
    1074:	00018737          	lui	a4,0x18
    1078:	44872503          	lw	a0,1096(a4) # 18448 <alt_niosv_timestamp_offset>
    107c:	44c72703          	lw	a4,1100(a4)
    1080:	40a58533          	sub	a0,a1,a0
    1084:	00a5b5b3          	sltu	a1,a1,a0
    1088:	40e787b3          	sub	a5,a5,a4
}
    108c:	40b785b3          	sub	a1,a5,a1
    1090:	00008067          	ret

00001094 <alt_timestamp_freq>:
}
    1094:	02faf537          	lui	a0,0x2faf
    1098:	08050513          	add	a0,a0,128 # 2faf080 <__alt_heap_start+0x2f96880>
    109c:	00008067          	ret

000010a0 <alt_niosv_mtime_get>:
        highbits = ALT_VOLATILE_ACCESS((alt_u32 *)(NIOSV_MTIME_ADDR + 4));
    10a0:	040907b7          	lui	a5,0x4090
        lowbits = ALT_VOLATILE_ACCESS((alt_u32 *)NIOSV_MTIME_ADDR);
    10a4:	040906b7          	lui	a3,0x4090
        highbits = ALT_VOLATILE_ACCESS((alt_u32 *)(NIOSV_MTIME_ADDR + 4));
    10a8:	0c478793          	add	a5,a5,196 # 40900c4 <__alt_data_end+0x900c4>
        lowbits = ALT_VOLATILE_ACCESS((alt_u32 *)NIOSV_MTIME_ADDR);
    10ac:	0c068693          	add	a3,a3,192 # 40900c0 <__alt_data_end+0x900c0>
        highbits = ALT_VOLATILE_ACCESS((alt_u32 *)(NIOSV_MTIME_ADDR + 4));
    10b0:	0007a703          	lw	a4,0(a5)
        lowbits = ALT_VOLATILE_ACCESS((alt_u32 *)NIOSV_MTIME_ADDR);
    10b4:	0006a503          	lw	a0,0(a3)
    } while (ALT_VOLATILE_ACCESS((alt_u32 *)(NIOSV_MTIME_ADDR + 4)) != highbits);
    10b8:	0007a583          	lw	a1,0(a5)
    10bc:	fee59ae3          	bne	a1,a4,10b0 <alt_niosv_mtime_get+0x10>
}
    10c0:	00008067          	ret

000010c4 <alt_niosv_mtimecmp_set>:
    NIOSV_READ_CSR(NIOSV_MHARTID_CSR, mhartid_val);
    10c4:	f14027f3          	csrr	a5,mhartid
    return (alt_u32 *)(NIOSV_MTIMECMP_ADDR + (8 * alt_niosv_read_mhartid()));
    10c8:	00812737          	lui	a4,0x812
    10cc:	01970713          	add	a4,a4,25 # 812019 <__alt_heap_start+0x7f9819>
    10d0:	00e787b3          	add	a5,a5,a4
    10d4:	00379793          	sll	a5,a5,0x3

void alt_niosv_mtimecmp_set(alt_u64 time) {
    volatile alt_u32 *const mtimecmp_addr = alt_niosv_get_mtimecmp_addr();

    // Make sure to set the high word to a max value first to prevent triggering inadvertently
    ALT_VOLATILE_ACCESS((alt_u32 *)(mtimecmp_addr + 1)) = 0xFFFFFFFF;
    10d8:	fff00713          	li	a4,-1
    10dc:	00e7a223          	sw	a4,4(a5)
    ALT_VOLATILE_ACCESS(mtimecmp_addr) = (alt_u32)time;
    10e0:	00a7a023          	sw	a0,0(a5)
    ALT_VOLATILE_ACCESS((alt_u32 *)(mtimecmp_addr + 1)) = (alt_u32)(time >> 32);
    10e4:	00b7a223          	sw	a1,4(a5)
}
    10e8:	00008067          	ret

000010ec <alt_niosv_mtimecmp_get>:
    NIOSV_READ_CSR(NIOSV_MHARTID_CSR, mhartid_val);
    10ec:	f14027f3          	csrr	a5,mhartid
    return (alt_u32 *)(NIOSV_MTIMECMP_ADDR + (8 * alt_niosv_read_mhartid()));
    10f0:	00812737          	lui	a4,0x812
    10f4:	01970713          	add	a4,a4,25 # 812019 <__alt_heap_start+0x7f9819>
    10f8:	00e787b3          	add	a5,a5,a4
    10fc:	00379793          	sll	a5,a5,0x3

alt_u64 alt_niosv_mtimecmp_get() {
    volatile alt_u32 *const mtimecmp_addr = alt_niosv_get_mtimecmp_addr();

    alt_u32 lowbits = ALT_VOLATILE_ACCESS(mtimecmp_addr);
    1100:	0007a503          	lw	a0,0(a5)
    alt_u32 highbits = ALT_VOLATILE_ACCESS((alt_u32 *)(mtimecmp_addr + 1));
    1104:	0047a583          	lw	a1,4(a5)
    return (((alt_u64)highbits) << 32) | lowbits;
}
    1108:	00008067          	ret

0000110c <alt_niosv_timer_sc_isr>:
// Let's the OS port handles the machine timer configuration and interrupt if
// the OS port has it (ex: FreeRTOS).
void alt_niosv_timer_sc_isr(alt_u32 cause, alt_u32 epc, alt_u32 tval) {}
void alt_niosv_mtimecmp_interrupt_init() {}
#else
void alt_niosv_timer_sc_isr(alt_u32 cause, alt_u32 epc, alt_u32 tval) {
    110c:	ff010113          	add	sp,sp,-16
        highbits = ALT_VOLATILE_ACCESS((alt_u32 *)(NIOSV_MTIME_ADDR + 4));
    1110:	040907b7          	lui	a5,0x4090
        lowbits = ALT_VOLATILE_ACCESS((alt_u32 *)NIOSV_MTIME_ADDR);
    1114:	040905b7          	lui	a1,0x4090
void alt_niosv_timer_sc_isr(alt_u32 cause, alt_u32 epc, alt_u32 tval) {
    1118:	00112623          	sw	ra,12(sp)
    111c:	00812423          	sw	s0,8(sp)
        highbits = ALT_VOLATILE_ACCESS((alt_u32 *)(NIOSV_MTIME_ADDR + 4));
    1120:	0c478793          	add	a5,a5,196 # 40900c4 <__alt_data_end+0x900c4>
        lowbits = ALT_VOLATILE_ACCESS((alt_u32 *)NIOSV_MTIME_ADDR);
    1124:	0c058593          	add	a1,a1,192 # 40900c0 <__alt_data_end+0x900c0>
        highbits = ALT_VOLATILE_ACCESS((alt_u32 *)(NIOSV_MTIME_ADDR + 4));
    1128:	0007a703          	lw	a4,0(a5)
        lowbits = ALT_VOLATILE_ACCESS((alt_u32 *)NIOSV_MTIME_ADDR);
    112c:	0005a603          	lw	a2,0(a1)
    } while (ALT_VOLATILE_ACCESS((alt_u32 *)(NIOSV_MTIME_ADDR + 4)) != highbits);
    1130:	0007a683          	lw	a3,0(a5)
    1134:	fed71ae3          	bne	a4,a3,1128 <alt_niosv_timer_sc_isr+0x1c>
    // Schedule the next interrupt.  This is done first since who knows how long
    // the following code takes, and the contract is ticks per second, irrespective
    // of how long a given clock tick may take.

    alt_u64 curr_time = alt_niosv_mtime_get();
    alt_niosv_mtimecmp_set(curr_time + MTIMECMP_DELTA_AMT);
    1138:	0000c7b7          	lui	a5,0xc
    113c:	35078793          	add	a5,a5,848 # c350 <_vfiprintf_r+0xfdc>
    1140:	00f606b3          	add	a3,a2,a5
    1144:	00c6b633          	sltu	a2,a3,a2
    1148:	00e60633          	add	a2,a2,a4
    NIOSV_READ_CSR(NIOSV_MHARTID_CSR, mhartid_val);
    114c:	f14027f3          	csrr	a5,mhartid
    return (alt_u32 *)(NIOSV_MTIMECMP_ADDR + (8 * alt_niosv_read_mhartid()));
    1150:	00812737          	lui	a4,0x812
    1154:	01970713          	add	a4,a4,25 # 812019 <__alt_heap_start+0x7f9819>
    1158:	00e787b3          	add	a5,a5,a4
    115c:	00379793          	sll	a5,a5,0x3
    ALT_VOLATILE_ACCESS((alt_u32 *)(mtimecmp_addr + 1)) = 0xFFFFFFFF;
    1160:	fff00713          	li	a4,-1
    1164:	00e7a223          	sw	a4,4(a5)
    ALT_VOLATILE_ACCESS(mtimecmp_addr) = (alt_u32)time;
    1168:	00d7a023          	sw	a3,0(a5)
    ALT_VOLATILE_ACCESS((alt_u32 *)(mtimecmp_addr + 1)) = (alt_u32)(time >> 32);
    116c:	00c7a223          	sw	a2,4(a5)
    NIOSV_READ_AND_CLR_CSR(NIOSV_MSTATUS_CSR, context, NIOSV_MSTATUS_MIE_MASK);
    1170:	00800793          	li	a5,8
    1174:	3007b473          	csrrc	s0,mstatus,a5
    /* 
    * Notify the system of a clock tick. disable interrupts 
    * during this time to safely support ISR preemption
    */
    alt_irq_context cpu_sr = alt_irq_disable_all();
    alt_tick();
    1178:	db1ff0ef          	jal	f28 <alt_tick>
    NIOSV_SET_CSR(NIOSV_MSTATUS_CSR, context & NIOSV_MSTATUS_MIE_MASK);
    117c:	00847793          	and	a5,s0,8
    1180:	3007a073          	csrs	mstatus,a5
    alt_irq_enable_all(cpu_sr);
}
    1184:	00c12083          	lw	ra,12(sp)
    1188:	00812403          	lw	s0,8(sp)
    118c:	01010113          	add	sp,sp,16
    1190:	00008067          	ret

00001194 <alt_niosv_mtimecmp_interrupt_init>:
        highbits = ALT_VOLATILE_ACCESS((alt_u32 *)(NIOSV_MTIME_ADDR + 4));
    1194:	040907b7          	lui	a5,0x4090
        lowbits = ALT_VOLATILE_ACCESS((alt_u32 *)NIOSV_MTIME_ADDR);
    1198:	040905b7          	lui	a1,0x4090
        highbits = ALT_VOLATILE_ACCESS((alt_u32 *)(NIOSV_MTIME_ADDR + 4));
    119c:	0c478793          	add	a5,a5,196 # 40900c4 <__alt_data_end+0x900c4>
        lowbits = ALT_VOLATILE_ACCESS((alt_u32 *)NIOSV_MTIME_ADDR);
    11a0:	0c058593          	add	a1,a1,192 # 40900c0 <__alt_data_end+0x900c0>
        highbits = ALT_VOLATILE_ACCESS((alt_u32 *)(NIOSV_MTIME_ADDR + 4));
    11a4:	0007a703          	lw	a4,0(a5)
        lowbits = ALT_VOLATILE_ACCESS((alt_u32 *)NIOSV_MTIME_ADDR);
    11a8:	0005a603          	lw	a2,0(a1)
    } while (ALT_VOLATILE_ACCESS((alt_u32 *)(NIOSV_MTIME_ADDR + 4)) != highbits);
    11ac:	0007a683          	lw	a3,0(a5)
    11b0:	fed71ae3          	bne	a4,a3,11a4 <alt_niosv_mtimecmp_interrupt_init+0x10>

void alt_niosv_mtimecmp_interrupt_init() {
    alt_u64 curr_time = alt_niosv_mtime_get();
    alt_niosv_mtimecmp_set(curr_time + MTIMECMP_DELTA_AMT);
    11b4:	0000c7b7          	lui	a5,0xc
    11b8:	35078793          	add	a5,a5,848 # c350 <_vfiprintf_r+0xfdc>
    11bc:	00f606b3          	add	a3,a2,a5
    11c0:	00c6b633          	sltu	a2,a3,a2
    11c4:	00e60633          	add	a2,a2,a4
    NIOSV_READ_CSR(NIOSV_MHARTID_CSR, mhartid_val);
    11c8:	f14027f3          	csrr	a5,mhartid
    return (alt_u32 *)(NIOSV_MTIMECMP_ADDR + (8 * alt_niosv_read_mhartid()));
    11cc:	00812737          	lui	a4,0x812
    11d0:	01970713          	add	a4,a4,25 # 812019 <__alt_heap_start+0x7f9819>
    11d4:	00e787b3          	add	a5,a5,a4
    11d8:	00379793          	sll	a5,a5,0x3
    ALT_VOLATILE_ACCESS((alt_u32 *)(mtimecmp_addr + 1)) = 0xFFFFFFFF;
    11dc:	fff00713          	li	a4,-1
    11e0:	00e7a223          	sw	a4,4(a5)
    ALT_VOLATILE_ACCESS(mtimecmp_addr) = (alt_u32)time;
    11e4:	00d7a023          	sw	a3,0(a5)
    ALT_VOLATILE_ACCESS((alt_u32 *)(mtimecmp_addr + 1)) = (alt_u32)(time >> 32);
    11e8:	00c7a223          	sw	a2,4(a5)
    NIOSV_SET_CSR(NIOSV_MIE_CSR, (0x1 << NIOSV_TIMER_IRQ));
    11ec:	08000793          	li	a5,128
    11f0:	3047a073          	csrs	mie,a5
    alt_niosv_enable_timer_interrupt();
}
    11f4:	00008067          	ret

000011f8 <exit>:
    11f8:	ff010113          	add	sp,sp,-16
    11fc:	00000593          	li	a1,0
    1200:	00812423          	sw	s0,8(sp)
    1204:	00112623          	sw	ra,12(sp)
    1208:	00050413          	mv	s0,a0
    120c:	33c010ef          	jal	2548 <__call_exitprocs>
    1210:	00017797          	auipc	a5,0x17
    1214:	2447a783          	lw	a5,580(a5) # 18454 <__stdio_exit_handler>
    1218:	00078463          	beqz	a5,1220 <exit+0x28>
    121c:	000780e7          	jalr	a5
    1220:	00040513          	mv	a0,s0
    1224:	3b1120ef          	jal	13dd4 <_exit>

00001228 <open>:
    1228:	fc010113          	add	sp,sp,-64
    122c:	02c12423          	sw	a2,40(sp)
    1230:	02d12623          	sw	a3,44(sp)
    1234:	02f12a23          	sw	a5,52(sp)
    1238:	00060693          	mv	a3,a2
    123c:	02810793          	add	a5,sp,40
    1240:	00058613          	mv	a2,a1
    1244:	00050593          	mv	a1,a0
    1248:	8201a503          	lw	a0,-2016(gp) # 16b18 <_impure_ptr>
    124c:	00112e23          	sw	ra,28(sp)
    1250:	02e12823          	sw	a4,48(sp)
    1254:	03012c23          	sw	a6,56(sp)
    1258:	03112e23          	sw	a7,60(sp)
    125c:	00f12623          	sw	a5,12(sp)
    1260:	071000ef          	jal	1ad0 <_open_r>
    1264:	01c12083          	lw	ra,28(sp)
    1268:	04010113          	add	sp,sp,64
    126c:	00008067          	ret

00001270 <_reclaim_reent>:
    1270:	8201a783          	lw	a5,-2016(gp) # 16b18 <_impure_ptr>
    1274:	0ca78e63          	beq	a5,a0,1350 <_reclaim_reent+0xe0>
    1278:	04452583          	lw	a1,68(a0)
    127c:	fe010113          	add	sp,sp,-32
    1280:	00912a23          	sw	s1,20(sp)
    1284:	00112e23          	sw	ra,28(sp)
    1288:	00812c23          	sw	s0,24(sp)
    128c:	00050493          	mv	s1,a0
    1290:	04058863          	beqz	a1,12e0 <_reclaim_reent+0x70>
    1294:	01212823          	sw	s2,16(sp)
    1298:	01312623          	sw	s3,12(sp)
    129c:	00000913          	li	s2,0
    12a0:	08000993          	li	s3,128
    12a4:	012587b3          	add	a5,a1,s2
    12a8:	0007a403          	lw	s0,0(a5)
    12ac:	00040e63          	beqz	s0,12c8 <_reclaim_reent+0x58>
    12b0:	00040593          	mv	a1,s0
    12b4:	00042403          	lw	s0,0(s0)
    12b8:	00048513          	mv	a0,s1
    12bc:	5b1010ef          	jal	306c <_free_r>
    12c0:	fe0418e3          	bnez	s0,12b0 <_reclaim_reent+0x40>
    12c4:	0444a583          	lw	a1,68(s1)
    12c8:	00490913          	add	s2,s2,4
    12cc:	fd391ce3          	bne	s2,s3,12a4 <_reclaim_reent+0x34>
    12d0:	00048513          	mv	a0,s1
    12d4:	599010ef          	jal	306c <_free_r>
    12d8:	01012903          	lw	s2,16(sp)
    12dc:	00c12983          	lw	s3,12(sp)
    12e0:	0384a583          	lw	a1,56(s1)
    12e4:	00058663          	beqz	a1,12f0 <_reclaim_reent+0x80>
    12e8:	00048513          	mv	a0,s1
    12ec:	581010ef          	jal	306c <_free_r>
    12f0:	0404a403          	lw	s0,64(s1)
    12f4:	00040c63          	beqz	s0,130c <_reclaim_reent+0x9c>
    12f8:	00040593          	mv	a1,s0
    12fc:	00042403          	lw	s0,0(s0)
    1300:	00048513          	mv	a0,s1
    1304:	569010ef          	jal	306c <_free_r>
    1308:	fe0418e3          	bnez	s0,12f8 <_reclaim_reent+0x88>
    130c:	04c4a583          	lw	a1,76(s1)
    1310:	00058663          	beqz	a1,131c <_reclaim_reent+0xac>
    1314:	00048513          	mv	a0,s1
    1318:	555010ef          	jal	306c <_free_r>
    131c:	0344a783          	lw	a5,52(s1)
    1320:	00078e63          	beqz	a5,133c <_reclaim_reent+0xcc>
    1324:	01812403          	lw	s0,24(sp)
    1328:	01c12083          	lw	ra,28(sp)
    132c:	00048513          	mv	a0,s1
    1330:	01412483          	lw	s1,20(sp)
    1334:	02010113          	add	sp,sp,32
    1338:	00078067          	jr	a5
    133c:	01c12083          	lw	ra,28(sp)
    1340:	01812403          	lw	s0,24(sp)
    1344:	01412483          	lw	s1,20(sp)
    1348:	02010113          	add	sp,sp,32
    134c:	00008067          	ret
    1350:	00008067          	ret

00001354 <stdio_exit_handler>:
    1354:	00015617          	auipc	a2,0x15
    1358:	22460613          	add	a2,a2,548 # 16578 <__sglue>
    135c:	00001597          	auipc	a1,0x1
    1360:	74858593          	add	a1,a1,1864 # 2aa4 <_fclose_r>
    1364:	00015517          	auipc	a0,0x15
    1368:	0f450513          	add	a0,a0,244 # 16458 <_impure_data>
    136c:	7c80006f          	j	1b34 <_fwalk_sglue>

00001370 <cleanup_stdio>:
    1370:	00452583          	lw	a1,4(a0)
    1374:	ff010113          	add	sp,sp,-16
    1378:	00812423          	sw	s0,8(sp)
    137c:	00112623          	sw	ra,12(sp)
    1380:	00017797          	auipc	a5,0x17
    1384:	19078793          	add	a5,a5,400 # 18510 <__sf>
    1388:	00050413          	mv	s0,a0
    138c:	00f58463          	beq	a1,a5,1394 <cleanup_stdio+0x24>
    1390:	714010ef          	jal	2aa4 <_fclose_r>
    1394:	00842583          	lw	a1,8(s0)
    1398:	00017797          	auipc	a5,0x17
    139c:	1e078793          	add	a5,a5,480 # 18578 <__sf+0x68>
    13a0:	00f58663          	beq	a1,a5,13ac <cleanup_stdio+0x3c>
    13a4:	00040513          	mv	a0,s0
    13a8:	6fc010ef          	jal	2aa4 <_fclose_r>
    13ac:	00c42583          	lw	a1,12(s0)
    13b0:	00017797          	auipc	a5,0x17
    13b4:	23078793          	add	a5,a5,560 # 185e0 <__sf+0xd0>
    13b8:	00f58c63          	beq	a1,a5,13d0 <cleanup_stdio+0x60>
    13bc:	00040513          	mv	a0,s0
    13c0:	00812403          	lw	s0,8(sp)
    13c4:	00c12083          	lw	ra,12(sp)
    13c8:	01010113          	add	sp,sp,16
    13cc:	6d80106f          	j	2aa4 <_fclose_r>
    13d0:	00c12083          	lw	ra,12(sp)
    13d4:	00812403          	lw	s0,8(sp)
    13d8:	01010113          	add	sp,sp,16
    13dc:	00008067          	ret

000013e0 <__fp_lock>:
    13e0:	0645a783          	lw	a5,100(a1)
    13e4:	0017f793          	and	a5,a5,1
    13e8:	00079863          	bnez	a5,13f8 <__fp_lock+0x18>
    13ec:	00c5d783          	lhu	a5,12(a1)
    13f0:	2007f793          	and	a5,a5,512
    13f4:	00078663          	beqz	a5,1400 <__fp_lock+0x20>
    13f8:	00000513          	li	a0,0
    13fc:	00008067          	ret
    1400:	0585a503          	lw	a0,88(a1)
    1404:	ff010113          	add	sp,sp,-16
    1408:	00112623          	sw	ra,12(sp)
    140c:	670010ef          	jal	2a7c <__retarget_lock_acquire_recursive>
    1410:	00c12083          	lw	ra,12(sp)
    1414:	00000513          	li	a0,0
    1418:	01010113          	add	sp,sp,16
    141c:	00008067          	ret

00001420 <__fp_unlock>:
    1420:	0645a783          	lw	a5,100(a1)
    1424:	0017f793          	and	a5,a5,1
    1428:	00079863          	bnez	a5,1438 <__fp_unlock+0x18>
    142c:	00c5d783          	lhu	a5,12(a1)
    1430:	2007f793          	and	a5,a5,512
    1434:	00078663          	beqz	a5,1440 <__fp_unlock+0x20>
    1438:	00000513          	li	a0,0
    143c:	00008067          	ret
    1440:	0585a503          	lw	a0,88(a1)
    1444:	ff010113          	add	sp,sp,-16
    1448:	00112623          	sw	ra,12(sp)
    144c:	648010ef          	jal	2a94 <__retarget_lock_release_recursive>
    1450:	00c12083          	lw	ra,12(sp)
    1454:	00000513          	li	a0,0
    1458:	01010113          	add	sp,sp,16
    145c:	00008067          	ret

00001460 <global_stdio_init.part.0>:
    1460:	fe010113          	add	sp,sp,-32
    1464:	00000797          	auipc	a5,0x0
    1468:	ef078793          	add	a5,a5,-272 # 1354 <stdio_exit_handler>
    146c:	00112e23          	sw	ra,28(sp)
    1470:	00812c23          	sw	s0,24(sp)
    1474:	00912a23          	sw	s1,20(sp)
    1478:	00017417          	auipc	s0,0x17
    147c:	09840413          	add	s0,s0,152 # 18510 <__sf>
    1480:	01212823          	sw	s2,16(sp)
    1484:	01312623          	sw	s3,12(sp)
    1488:	01412423          	sw	s4,8(sp)
    148c:	00800613          	li	a2,8
    1490:	00000593          	li	a1,0
    1494:	00017717          	auipc	a4,0x17
    1498:	fcf72023          	sw	a5,-64(a4) # 18454 <__stdio_exit_handler>
    149c:	00017517          	auipc	a0,0x17
    14a0:	0d050513          	add	a0,a0,208 # 1856c <__sf+0x5c>
    14a4:	00400793          	li	a5,4
    14a8:	00f42623          	sw	a5,12(s0)
    14ac:	00042023          	sw	zero,0(s0)
    14b0:	00042223          	sw	zero,4(s0)
    14b4:	00042423          	sw	zero,8(s0)
    14b8:	06042223          	sw	zero,100(s0)
    14bc:	00042823          	sw	zero,16(s0)
    14c0:	00042a23          	sw	zero,20(s0)
    14c4:	00042c23          	sw	zero,24(s0)
    14c8:	758010ef          	jal	2c20 <memset>
    14cc:	00000a17          	auipc	s4,0x0
    14d0:	71ca0a13          	add	s4,s4,1820 # 1be8 <__sread>
    14d4:	00000997          	auipc	s3,0x0
    14d8:	77898993          	add	s3,s3,1912 # 1c4c <__swrite>
    14dc:	00000917          	auipc	s2,0x0
    14e0:	7f890913          	add	s2,s2,2040 # 1cd4 <__sseek>
    14e4:	00001497          	auipc	s1,0x1
    14e8:	86848493          	add	s1,s1,-1944 # 1d4c <__sclose>
    14ec:	00017517          	auipc	a0,0x17
    14f0:	07c50513          	add	a0,a0,124 # 18568 <__sf+0x58>
    14f4:	03442023          	sw	s4,32(s0)
    14f8:	03342223          	sw	s3,36(s0)
    14fc:	03242423          	sw	s2,40(s0)
    1500:	02942623          	sw	s1,44(s0)
    1504:	00842e23          	sw	s0,28(s0)
    1508:	564010ef          	jal	2a6c <__retarget_lock_init_recursive>
    150c:	000107b7          	lui	a5,0x10
    1510:	00878793          	add	a5,a5,8 # 10008 <__eqtf2+0x90>
    1514:	00800613          	li	a2,8
    1518:	00000593          	li	a1,0
    151c:	00017517          	auipc	a0,0x17
    1520:	0b850513          	add	a0,a0,184 # 185d4 <__sf+0xc4>
    1524:	06f42a23          	sw	a5,116(s0)
    1528:	06042423          	sw	zero,104(s0)
    152c:	06042623          	sw	zero,108(s0)
    1530:	06042823          	sw	zero,112(s0)
    1534:	0c042623          	sw	zero,204(s0)
    1538:	06042c23          	sw	zero,120(s0)
    153c:	06042e23          	sw	zero,124(s0)
    1540:	08042023          	sw	zero,128(s0)
    1544:	6dc010ef          	jal	2c20 <memset>
    1548:	00017797          	auipc	a5,0x17
    154c:	03078793          	add	a5,a5,48 # 18578 <__sf+0x68>
    1550:	00017517          	auipc	a0,0x17
    1554:	08050513          	add	a0,a0,128 # 185d0 <__sf+0xc0>
    1558:	08f42223          	sw	a5,132(s0)
    155c:	09442423          	sw	s4,136(s0)
    1560:	09342623          	sw	s3,140(s0)
    1564:	09242823          	sw	s2,144(s0)
    1568:	08942a23          	sw	s1,148(s0)
    156c:	500010ef          	jal	2a6c <__retarget_lock_init_recursive>
    1570:	000207b7          	lui	a5,0x20
    1574:	01278793          	add	a5,a5,18 # 20012 <__alt_heap_start+0x7812>
    1578:	00800613          	li	a2,8
    157c:	00000593          	li	a1,0
    1580:	00017517          	auipc	a0,0x17
    1584:	0bc50513          	add	a0,a0,188 # 1863c <__sf+0x12c>
    1588:	0cf42e23          	sw	a5,220(s0)
    158c:	0c042823          	sw	zero,208(s0)
    1590:	0c042a23          	sw	zero,212(s0)
    1594:	0c042c23          	sw	zero,216(s0)
    1598:	12042a23          	sw	zero,308(s0)
    159c:	0e042023          	sw	zero,224(s0)
    15a0:	0e042223          	sw	zero,228(s0)
    15a4:	0e042423          	sw	zero,232(s0)
    15a8:	678010ef          	jal	2c20 <memset>
    15ac:	00017797          	auipc	a5,0x17
    15b0:	03478793          	add	a5,a5,52 # 185e0 <__sf+0xd0>
    15b4:	0f442823          	sw	s4,240(s0)
    15b8:	0f342a23          	sw	s3,244(s0)
    15bc:	0f242c23          	sw	s2,248(s0)
    15c0:	0e942e23          	sw	s1,252(s0)
    15c4:	0ef42623          	sw	a5,236(s0)
    15c8:	01812403          	lw	s0,24(sp)
    15cc:	01c12083          	lw	ra,28(sp)
    15d0:	01412483          	lw	s1,20(sp)
    15d4:	01012903          	lw	s2,16(sp)
    15d8:	00c12983          	lw	s3,12(sp)
    15dc:	00812a03          	lw	s4,8(sp)
    15e0:	00017517          	auipc	a0,0x17
    15e4:	05850513          	add	a0,a0,88 # 18638 <__sf+0x128>
    15e8:	02010113          	add	sp,sp,32
    15ec:	4800106f          	j	2a6c <__retarget_lock_init_recursive>

000015f0 <__sfp>:
    15f0:	fe010113          	add	sp,sp,-32
    15f4:	01312623          	sw	s3,12(sp)
    15f8:	00050993          	mv	s3,a0
    15fc:	00017517          	auipc	a0,0x17
    1600:	e8850513          	add	a0,a0,-376 # 18484 <__lock___sfp_recursive_mutex>
    1604:	00112e23          	sw	ra,28(sp)
    1608:	00812c23          	sw	s0,24(sp)
    160c:	00912a23          	sw	s1,20(sp)
    1610:	01212823          	sw	s2,16(sp)
    1614:	468010ef          	jal	2a7c <__retarget_lock_acquire_recursive>
    1618:	00017797          	auipc	a5,0x17
    161c:	e3c7a783          	lw	a5,-452(a5) # 18454 <__stdio_exit_handler>
    1620:	10078263          	beqz	a5,1724 <__sfp+0x134>
    1624:	00015917          	auipc	s2,0x15
    1628:	f5490913          	add	s2,s2,-172 # 16578 <__sglue>
    162c:	fff00493          	li	s1,-1
    1630:	00492783          	lw	a5,4(s2)
    1634:	00892403          	lw	s0,8(s2)
    1638:	fff78793          	add	a5,a5,-1
    163c:	0007d863          	bgez	a5,164c <__sfp+0x5c>
    1640:	0940006f          	j	16d4 <__sfp+0xe4>
    1644:	06840413          	add	s0,s0,104
    1648:	08978663          	beq	a5,s1,16d4 <__sfp+0xe4>
    164c:	00c41703          	lh	a4,12(s0)
    1650:	fff78793          	add	a5,a5,-1
    1654:	fe0718e3          	bnez	a4,1644 <__sfp+0x54>
    1658:	ffff07b7          	lui	a5,0xffff0
    165c:	00178793          	add	a5,a5,1 # ffff0001 <__alt_data_end+0xfbff0001>
    1660:	00f42623          	sw	a5,12(s0)
    1664:	05840513          	add	a0,s0,88
    1668:	06042223          	sw	zero,100(s0)
    166c:	400010ef          	jal	2a6c <__retarget_lock_init_recursive>
    1670:	00017517          	auipc	a0,0x17
    1674:	e1450513          	add	a0,a0,-492 # 18484 <__lock___sfp_recursive_mutex>
    1678:	41c010ef          	jal	2a94 <__retarget_lock_release_recursive>
    167c:	00800613          	li	a2,8
    1680:	00042023          	sw	zero,0(s0)
    1684:	00042423          	sw	zero,8(s0)
    1688:	00042223          	sw	zero,4(s0)
    168c:	00042823          	sw	zero,16(s0)
    1690:	00042a23          	sw	zero,20(s0)
    1694:	00042c23          	sw	zero,24(s0)
    1698:	00000593          	li	a1,0
    169c:	05c40513          	add	a0,s0,92
    16a0:	580010ef          	jal	2c20 <memset>
    16a4:	02042823          	sw	zero,48(s0)
    16a8:	02042a23          	sw	zero,52(s0)
    16ac:	04042223          	sw	zero,68(s0)
    16b0:	04042423          	sw	zero,72(s0)
    16b4:	01c12083          	lw	ra,28(sp)
    16b8:	00040513          	mv	a0,s0
    16bc:	01812403          	lw	s0,24(sp)
    16c0:	01412483          	lw	s1,20(sp)
    16c4:	01012903          	lw	s2,16(sp)
    16c8:	00c12983          	lw	s3,12(sp)
    16cc:	02010113          	add	sp,sp,32
    16d0:	00008067          	ret
    16d4:	00092403          	lw	s0,0(s2)
    16d8:	00040663          	beqz	s0,16e4 <__sfp+0xf4>
    16dc:	00040913          	mv	s2,s0
    16e0:	f51ff06f          	j	1630 <__sfp+0x40>
    16e4:	1ac00593          	li	a1,428
    16e8:	00098513          	mv	a0,s3
    16ec:	680000ef          	jal	1d6c <_malloc_r>
    16f0:	00050413          	mv	s0,a0
    16f4:	02050c63          	beqz	a0,172c <__sfp+0x13c>
    16f8:	00c50513          	add	a0,a0,12
    16fc:	00400793          	li	a5,4
    1700:	00042023          	sw	zero,0(s0)
    1704:	00f42223          	sw	a5,4(s0)
    1708:	00a42423          	sw	a0,8(s0)
    170c:	1a000613          	li	a2,416
    1710:	00000593          	li	a1,0
    1714:	50c010ef          	jal	2c20 <memset>
    1718:	00892023          	sw	s0,0(s2)
    171c:	00040913          	mv	s2,s0
    1720:	f11ff06f          	j	1630 <__sfp+0x40>
    1724:	d3dff0ef          	jal	1460 <global_stdio_init.part.0>
    1728:	efdff06f          	j	1624 <__sfp+0x34>
    172c:	00092023          	sw	zero,0(s2)
    1730:	00017517          	auipc	a0,0x17
    1734:	d5450513          	add	a0,a0,-684 # 18484 <__lock___sfp_recursive_mutex>
    1738:	35c010ef          	jal	2a94 <__retarget_lock_release_recursive>
    173c:	00c00793          	li	a5,12
    1740:	00f9a023          	sw	a5,0(s3)
    1744:	f71ff06f          	j	16b4 <__sfp+0xc4>

00001748 <__sinit>:
    1748:	ff010113          	add	sp,sp,-16
    174c:	00812423          	sw	s0,8(sp)
    1750:	00050413          	mv	s0,a0
    1754:	00017517          	auipc	a0,0x17
    1758:	d3050513          	add	a0,a0,-720 # 18484 <__lock___sfp_recursive_mutex>
    175c:	00112623          	sw	ra,12(sp)
    1760:	31c010ef          	jal	2a7c <__retarget_lock_acquire_recursive>
    1764:	03442783          	lw	a5,52(s0)
    1768:	00079e63          	bnez	a5,1784 <__sinit+0x3c>
    176c:	00000797          	auipc	a5,0x0
    1770:	c0478793          	add	a5,a5,-1020 # 1370 <cleanup_stdio>
    1774:	02f42a23          	sw	a5,52(s0)
    1778:	00017797          	auipc	a5,0x17
    177c:	cdc7a783          	lw	a5,-804(a5) # 18454 <__stdio_exit_handler>
    1780:	00078e63          	beqz	a5,179c <__sinit+0x54>
    1784:	00812403          	lw	s0,8(sp)
    1788:	00c12083          	lw	ra,12(sp)
    178c:	00017517          	auipc	a0,0x17
    1790:	cf850513          	add	a0,a0,-776 # 18484 <__lock___sfp_recursive_mutex>
    1794:	01010113          	add	sp,sp,16
    1798:	2fc0106f          	j	2a94 <__retarget_lock_release_recursive>
    179c:	cc5ff0ef          	jal	1460 <global_stdio_init.part.0>
    17a0:	00812403          	lw	s0,8(sp)
    17a4:	00c12083          	lw	ra,12(sp)
    17a8:	00017517          	auipc	a0,0x17
    17ac:	cdc50513          	add	a0,a0,-804 # 18484 <__lock___sfp_recursive_mutex>
    17b0:	01010113          	add	sp,sp,16
    17b4:	2e00106f          	j	2a94 <__retarget_lock_release_recursive>

000017b8 <__sfp_lock_acquire>:
    17b8:	00017517          	auipc	a0,0x17
    17bc:	ccc50513          	add	a0,a0,-820 # 18484 <__lock___sfp_recursive_mutex>
    17c0:	2bc0106f          	j	2a7c <__retarget_lock_acquire_recursive>

000017c4 <__sfp_lock_release>:
    17c4:	00017517          	auipc	a0,0x17
    17c8:	cc050513          	add	a0,a0,-832 # 18484 <__lock___sfp_recursive_mutex>
    17cc:	2c80106f          	j	2a94 <__retarget_lock_release_recursive>

000017d0 <__fp_lock_all>:
    17d0:	ff010113          	add	sp,sp,-16
    17d4:	00017517          	auipc	a0,0x17
    17d8:	cb050513          	add	a0,a0,-848 # 18484 <__lock___sfp_recursive_mutex>
    17dc:	00112623          	sw	ra,12(sp)
    17e0:	29c010ef          	jal	2a7c <__retarget_lock_acquire_recursive>
    17e4:	00c12083          	lw	ra,12(sp)
    17e8:	00015617          	auipc	a2,0x15
    17ec:	d9060613          	add	a2,a2,-624 # 16578 <__sglue>
    17f0:	00000597          	auipc	a1,0x0
    17f4:	bf058593          	add	a1,a1,-1040 # 13e0 <__fp_lock>
    17f8:	00000513          	li	a0,0
    17fc:	01010113          	add	sp,sp,16
    1800:	3340006f          	j	1b34 <_fwalk_sglue>

00001804 <__fp_unlock_all>:
    1804:	ff010113          	add	sp,sp,-16
    1808:	00015617          	auipc	a2,0x15
    180c:	d7060613          	add	a2,a2,-656 # 16578 <__sglue>
    1810:	00000597          	auipc	a1,0x0
    1814:	c1058593          	add	a1,a1,-1008 # 1420 <__fp_unlock>
    1818:	00000513          	li	a0,0
    181c:	00112623          	sw	ra,12(sp)
    1820:	314000ef          	jal	1b34 <_fwalk_sglue>
    1824:	00c12083          	lw	ra,12(sp)
    1828:	00017517          	auipc	a0,0x17
    182c:	c5c50513          	add	a0,a0,-932 # 18484 <__lock___sfp_recursive_mutex>
    1830:	01010113          	add	sp,sp,16
    1834:	2600106f          	j	2a94 <__retarget_lock_release_recursive>

00001838 <setvbuf>:
    1838:	fd010113          	add	sp,sp,-48
    183c:	02812423          	sw	s0,40(sp)
    1840:	02912223          	sw	s1,36(sp)
    1844:	03212023          	sw	s2,32(sp)
    1848:	01312e23          	sw	s3,28(sp)
    184c:	01412c23          	sw	s4,24(sp)
    1850:	02112623          	sw	ra,44(sp)
    1854:	8201aa03          	lw	s4,-2016(gp) # 16b18 <_impure_ptr>
    1858:	00050413          	mv	s0,a0
    185c:	00058913          	mv	s2,a1
    1860:	00060993          	mv	s3,a2
    1864:	00068493          	mv	s1,a3
    1868:	000a0663          	beqz	s4,1874 <setvbuf+0x3c>
    186c:	034a2783          	lw	a5,52(s4)
    1870:	20078a63          	beqz	a5,1a84 <setvbuf+0x24c>
    1874:	00200793          	li	a5,2
    1878:	00f98863          	beq	s3,a5,1888 <setvbuf+0x50>
    187c:	00100793          	li	a5,1
    1880:	2137e863          	bltu	a5,s3,1a90 <setvbuf+0x258>
    1884:	2004c663          	bltz	s1,1a90 <setvbuf+0x258>
    1888:	06442783          	lw	a5,100(s0)
    188c:	0017f793          	and	a5,a5,1
    1890:	10078863          	beqz	a5,19a0 <setvbuf+0x168>
    1894:	00040593          	mv	a1,s0
    1898:	000a0513          	mv	a0,s4
    189c:	525010ef          	jal	35c0 <_fflush_r>
    18a0:	03042583          	lw	a1,48(s0)
    18a4:	00058c63          	beqz	a1,18bc <setvbuf+0x84>
    18a8:	04040793          	add	a5,s0,64
    18ac:	00f58663          	beq	a1,a5,18b8 <setvbuf+0x80>
    18b0:	000a0513          	mv	a0,s4
    18b4:	7b8010ef          	jal	306c <_free_r>
    18b8:	02042823          	sw	zero,48(s0)
    18bc:	00c41783          	lh	a5,12(s0)
    18c0:	00042c23          	sw	zero,24(s0)
    18c4:	00042223          	sw	zero,4(s0)
    18c8:	0807f713          	and	a4,a5,128
    18cc:	14071263          	bnez	a4,1a10 <setvbuf+0x1d8>
    18d0:	fffff737          	lui	a4,0xfffff
    18d4:	35c70713          	add	a4,a4,860 # fffff35c <__alt_data_end+0xfbfff35c>
    18d8:	00e7f7b3          	and	a5,a5,a4
    18dc:	00f41623          	sh	a5,12(s0)
    18e0:	00200713          	li	a4,2
    18e4:	14e98a63          	beq	s3,a4,1a38 <setvbuf+0x200>
    18e8:	00c10693          	add	a3,sp,12
    18ec:	00810613          	add	a2,sp,8
    18f0:	00040593          	mv	a1,s0
    18f4:	000a0513          	mv	a0,s4
    18f8:	010010ef          	jal	2908 <__swhatbuf_r>
    18fc:	00c45783          	lhu	a5,12(s0)
    1900:	00a7e7b3          	or	a5,a5,a0
    1904:	00f41623          	sh	a5,12(s0)
    1908:	0a048863          	beqz	s1,19b8 <setvbuf+0x180>
    190c:	0a090863          	beqz	s2,19bc <setvbuf+0x184>
    1910:	034a2783          	lw	a5,52(s4)
    1914:	0c078663          	beqz	a5,19e0 <setvbuf+0x1a8>
    1918:	00812703          	lw	a4,8(sp)
    191c:	00c41783          	lh	a5,12(s0)
    1920:	00970a63          	beq	a4,s1,1934 <setvbuf+0xfc>
    1924:	00001737          	lui	a4,0x1
    1928:	80070713          	add	a4,a4,-2048 # 800 <altera_avalon_jtag_uart_ioctl+0x68>
    192c:	00e7e7b3          	or	a5,a5,a4
    1930:	00f41623          	sh	a5,12(s0)
    1934:	00100713          	li	a4,1
    1938:	00e99663          	bne	s3,a4,1944 <setvbuf+0x10c>
    193c:	0017e793          	or	a5,a5,1
    1940:	00f41623          	sh	a5,12(s0)
    1944:	01242023          	sw	s2,0(s0)
    1948:	01242823          	sw	s2,16(s0)
    194c:	00942a23          	sw	s1,20(s0)
    1950:	0087f713          	and	a4,a5,8
    1954:	08070c63          	beqz	a4,19ec <setvbuf+0x1b4>
    1958:	0017f713          	and	a4,a5,1
    195c:	12070063          	beqz	a4,1a7c <setvbuf+0x244>
    1960:	06442703          	lw	a4,100(s0)
    1964:	409004b3          	neg	s1,s1
    1968:	00042423          	sw	zero,8(s0)
    196c:	00942c23          	sw	s1,24(s0)
    1970:	00177713          	and	a4,a4,1
    1974:	08070463          	beqz	a4,19fc <setvbuf+0x1c4>
    1978:	00000493          	li	s1,0
    197c:	02c12083          	lw	ra,44(sp)
    1980:	02812403          	lw	s0,40(sp)
    1984:	02012903          	lw	s2,32(sp)
    1988:	01c12983          	lw	s3,28(sp)
    198c:	01812a03          	lw	s4,24(sp)
    1990:	00048513          	mv	a0,s1
    1994:	02412483          	lw	s1,36(sp)
    1998:	03010113          	add	sp,sp,48
    199c:	00008067          	ret
    19a0:	00c45783          	lhu	a5,12(s0)
    19a4:	2007f793          	and	a5,a5,512
    19a8:	ee0796e3          	bnez	a5,1894 <setvbuf+0x5c>
    19ac:	05842503          	lw	a0,88(s0)
    19b0:	0cc010ef          	jal	2a7c <__retarget_lock_acquire_recursive>
    19b4:	ee1ff06f          	j	1894 <setvbuf+0x5c>
    19b8:	00812483          	lw	s1,8(sp)
    19bc:	00048513          	mv	a0,s1
    19c0:	394000ef          	jal	1d54 <malloc>
    19c4:	00050913          	mv	s2,a0
    19c8:	0c050863          	beqz	a0,1a98 <setvbuf+0x260>
    19cc:	00c45783          	lhu	a5,12(s0)
    19d0:	0807e793          	or	a5,a5,128
    19d4:	00f41623          	sh	a5,12(s0)
    19d8:	034a2783          	lw	a5,52(s4)
    19dc:	f2079ee3          	bnez	a5,1918 <setvbuf+0xe0>
    19e0:	000a0513          	mv	a0,s4
    19e4:	d65ff0ef          	jal	1748 <__sinit>
    19e8:	f31ff06f          	j	1918 <setvbuf+0xe0>
    19ec:	00042423          	sw	zero,8(s0)
    19f0:	06442703          	lw	a4,100(s0)
    19f4:	00177713          	and	a4,a4,1
    19f8:	f80710e3          	bnez	a4,1978 <setvbuf+0x140>
    19fc:	2007f793          	and	a5,a5,512
    1a00:	f6079ce3          	bnez	a5,1978 <setvbuf+0x140>
    1a04:	05842503          	lw	a0,88(s0)
    1a08:	08c010ef          	jal	2a94 <__retarget_lock_release_recursive>
    1a0c:	f6dff06f          	j	1978 <setvbuf+0x140>
    1a10:	01042583          	lw	a1,16(s0)
    1a14:	000a0513          	mv	a0,s4
    1a18:	654010ef          	jal	306c <_free_r>
    1a1c:	00c41783          	lh	a5,12(s0)
    1a20:	fffff737          	lui	a4,0xfffff
    1a24:	35c70713          	add	a4,a4,860 # fffff35c <__alt_data_end+0xfbfff35c>
    1a28:	00e7f7b3          	and	a5,a5,a4
    1a2c:	00f41623          	sh	a5,12(s0)
    1a30:	00200713          	li	a4,2
    1a34:	eae99ae3          	bne	s3,a4,18e8 <setvbuf+0xb0>
    1a38:	00000493          	li	s1,0
    1a3c:	06442703          	lw	a4,100(s0)
    1a40:	04340693          	add	a3,s0,67
    1a44:	0027e613          	or	a2,a5,2
    1a48:	00d42023          	sw	a3,0(s0)
    1a4c:	00d42823          	sw	a3,16(s0)
    1a50:	00100693          	li	a3,1
    1a54:	00c41623          	sh	a2,12(s0)
    1a58:	00042423          	sw	zero,8(s0)
    1a5c:	00d42a23          	sw	a3,20(s0)
    1a60:	00177713          	and	a4,a4,1
    1a64:	f0071ce3          	bnez	a4,197c <setvbuf+0x144>
    1a68:	2007f793          	and	a5,a5,512
    1a6c:	f00798e3          	bnez	a5,197c <setvbuf+0x144>
    1a70:	05842503          	lw	a0,88(s0)
    1a74:	020010ef          	jal	2a94 <__retarget_lock_release_recursive>
    1a78:	f05ff06f          	j	197c <setvbuf+0x144>
    1a7c:	00942423          	sw	s1,8(s0)
    1a80:	f71ff06f          	j	19f0 <setvbuf+0x1b8>
    1a84:	000a0513          	mv	a0,s4
    1a88:	cc1ff0ef          	jal	1748 <__sinit>
    1a8c:	de9ff06f          	j	1874 <setvbuf+0x3c>
    1a90:	fff00493          	li	s1,-1
    1a94:	ee9ff06f          	j	197c <setvbuf+0x144>
    1a98:	01512a23          	sw	s5,20(sp)
    1a9c:	00812a83          	lw	s5,8(sp)
    1aa0:	029a8063          	beq	s5,s1,1ac0 <setvbuf+0x288>
    1aa4:	000a8513          	mv	a0,s5
    1aa8:	2ac000ef          	jal	1d54 <malloc>
    1aac:	00050913          	mv	s2,a0
    1ab0:	000a8493          	mv	s1,s5
    1ab4:	00050663          	beqz	a0,1ac0 <setvbuf+0x288>
    1ab8:	01412a83          	lw	s5,20(sp)
    1abc:	f11ff06f          	j	19cc <setvbuf+0x194>
    1ac0:	00c41783          	lh	a5,12(s0)
    1ac4:	01412a83          	lw	s5,20(sp)
    1ac8:	fff00493          	li	s1,-1
    1acc:	f71ff06f          	j	1a3c <setvbuf+0x204>

00001ad0 <_open_r>:
    1ad0:	ff010113          	add	sp,sp,-16
    1ad4:	00058713          	mv	a4,a1
    1ad8:	00812423          	sw	s0,8(sp)
    1adc:	00060593          	mv	a1,a2
    1ae0:	00050413          	mv	s0,a0
    1ae4:	00068613          	mv	a2,a3
    1ae8:	00070513          	mv	a0,a4
    1aec:	00017797          	auipc	a5,0x17
    1af0:	9607a223          	sw	zero,-1692(a5) # 18450 <errno>
    1af4:	00112623          	sw	ra,12(sp)
    1af8:	570120ef          	jal	14068 <_open>
    1afc:	fff00793          	li	a5,-1
    1b00:	00f50a63          	beq	a0,a5,1b14 <_open_r+0x44>
    1b04:	00c12083          	lw	ra,12(sp)
    1b08:	00812403          	lw	s0,8(sp)
    1b0c:	01010113          	add	sp,sp,16
    1b10:	00008067          	ret
    1b14:	00017797          	auipc	a5,0x17
    1b18:	93c7a783          	lw	a5,-1732(a5) # 18450 <errno>
    1b1c:	fe0784e3          	beqz	a5,1b04 <_open_r+0x34>
    1b20:	00c12083          	lw	ra,12(sp)
    1b24:	00f42023          	sw	a5,0(s0)
    1b28:	00812403          	lw	s0,8(sp)
    1b2c:	01010113          	add	sp,sp,16
    1b30:	00008067          	ret

00001b34 <_fwalk_sglue>:
    1b34:	fd010113          	add	sp,sp,-48
    1b38:	03212023          	sw	s2,32(sp)
    1b3c:	01312e23          	sw	s3,28(sp)
    1b40:	01412c23          	sw	s4,24(sp)
    1b44:	01512a23          	sw	s5,20(sp)
    1b48:	01612823          	sw	s6,16(sp)
    1b4c:	01712623          	sw	s7,12(sp)
    1b50:	02112623          	sw	ra,44(sp)
    1b54:	02812423          	sw	s0,40(sp)
    1b58:	02912223          	sw	s1,36(sp)
    1b5c:	00050b13          	mv	s6,a0
    1b60:	00058b93          	mv	s7,a1
    1b64:	00060a93          	mv	s5,a2
    1b68:	00000a13          	li	s4,0
    1b6c:	00100993          	li	s3,1
    1b70:	fff00913          	li	s2,-1
    1b74:	004aa483          	lw	s1,4(s5)
    1b78:	008aa403          	lw	s0,8(s5)
    1b7c:	fff48493          	add	s1,s1,-1
    1b80:	0204c863          	bltz	s1,1bb0 <_fwalk_sglue+0x7c>
    1b84:	00c45783          	lhu	a5,12(s0)
    1b88:	00f9fe63          	bgeu	s3,a5,1ba4 <_fwalk_sglue+0x70>
    1b8c:	00e41783          	lh	a5,14(s0)
    1b90:	00040593          	mv	a1,s0
    1b94:	000b0513          	mv	a0,s6
    1b98:	01278663          	beq	a5,s2,1ba4 <_fwalk_sglue+0x70>
    1b9c:	000b80e7          	jalr	s7 # 4000 <_vfprintf_r+0x6b8>
    1ba0:	00aa6a33          	or	s4,s4,a0
    1ba4:	fff48493          	add	s1,s1,-1
    1ba8:	06840413          	add	s0,s0,104
    1bac:	fd249ce3          	bne	s1,s2,1b84 <_fwalk_sglue+0x50>
    1bb0:	000aaa83          	lw	s5,0(s5)
    1bb4:	fc0a90e3          	bnez	s5,1b74 <_fwalk_sglue+0x40>
    1bb8:	02c12083          	lw	ra,44(sp)
    1bbc:	02812403          	lw	s0,40(sp)
    1bc0:	02412483          	lw	s1,36(sp)
    1bc4:	02012903          	lw	s2,32(sp)
    1bc8:	01c12983          	lw	s3,28(sp)
    1bcc:	01412a83          	lw	s5,20(sp)
    1bd0:	01012b03          	lw	s6,16(sp)
    1bd4:	00c12b83          	lw	s7,12(sp)
    1bd8:	000a0513          	mv	a0,s4
    1bdc:	01812a03          	lw	s4,24(sp)
    1be0:	03010113          	add	sp,sp,48
    1be4:	00008067          	ret

00001be8 <__sread>:
    1be8:	ff010113          	add	sp,sp,-16
    1bec:	00812423          	sw	s0,8(sp)
    1bf0:	00058413          	mv	s0,a1
    1bf4:	00e59583          	lh	a1,14(a1)
    1bf8:	00112623          	sw	ra,12(sp)
    1bfc:	4e9010ef          	jal	38e4 <_read_r>
    1c00:	02054063          	bltz	a0,1c20 <__sread+0x38>
    1c04:	05042783          	lw	a5,80(s0)
    1c08:	00c12083          	lw	ra,12(sp)
    1c0c:	00a787b3          	add	a5,a5,a0
    1c10:	04f42823          	sw	a5,80(s0)
    1c14:	00812403          	lw	s0,8(sp)
    1c18:	01010113          	add	sp,sp,16
    1c1c:	00008067          	ret
    1c20:	00c45783          	lhu	a5,12(s0)
    1c24:	fffff737          	lui	a4,0xfffff
    1c28:	fff70713          	add	a4,a4,-1 # ffffefff <__alt_data_end+0xfbffefff>
    1c2c:	00e7f7b3          	and	a5,a5,a4
    1c30:	00c12083          	lw	ra,12(sp)
    1c34:	00f41623          	sh	a5,12(s0)
    1c38:	00812403          	lw	s0,8(sp)
    1c3c:	01010113          	add	sp,sp,16
    1c40:	00008067          	ret

00001c44 <__seofread>:
    1c44:	00000513          	li	a0,0
    1c48:	00008067          	ret

00001c4c <__swrite>:
    1c4c:	00c59783          	lh	a5,12(a1)
    1c50:	fe010113          	add	sp,sp,-32
    1c54:	00812c23          	sw	s0,24(sp)
    1c58:	00912a23          	sw	s1,20(sp)
    1c5c:	01212823          	sw	s2,16(sp)
    1c60:	01312623          	sw	s3,12(sp)
    1c64:	00112e23          	sw	ra,28(sp)
    1c68:	1007f713          	and	a4,a5,256
    1c6c:	00058413          	mv	s0,a1
    1c70:	00050493          	mv	s1,a0
    1c74:	00060913          	mv	s2,a2
    1c78:	00068993          	mv	s3,a3
    1c7c:	04071063          	bnez	a4,1cbc <__swrite+0x70>
    1c80:	fffff737          	lui	a4,0xfffff
    1c84:	fff70713          	add	a4,a4,-1 # ffffefff <__alt_data_end+0xfbffefff>
    1c88:	00e7f7b3          	and	a5,a5,a4
    1c8c:	00e41583          	lh	a1,14(s0)
    1c90:	00f41623          	sh	a5,12(s0)
    1c94:	01812403          	lw	s0,24(sp)
    1c98:	01c12083          	lw	ra,28(sp)
    1c9c:	00098693          	mv	a3,s3
    1ca0:	00090613          	mv	a2,s2
    1ca4:	00c12983          	lw	s3,12(sp)
    1ca8:	01012903          	lw	s2,16(sp)
    1cac:	00048513          	mv	a0,s1
    1cb0:	01412483          	lw	s1,20(sp)
    1cb4:	02010113          	add	sp,sp,32
    1cb8:	2550006f          	j	270c <_write_r>
    1cbc:	00e59583          	lh	a1,14(a1)
    1cc0:	00200693          	li	a3,2
    1cc4:	00000613          	li	a2,0
    1cc8:	3b9010ef          	jal	3880 <_lseek_r>
    1ccc:	00c41783          	lh	a5,12(s0)
    1cd0:	fb1ff06f          	j	1c80 <__swrite+0x34>

00001cd4 <__sseek>:
    1cd4:	ff010113          	add	sp,sp,-16
    1cd8:	00812423          	sw	s0,8(sp)
    1cdc:	00058413          	mv	s0,a1
    1ce0:	00e59583          	lh	a1,14(a1)
    1ce4:	00112623          	sw	ra,12(sp)
    1ce8:	399010ef          	jal	3880 <_lseek_r>
    1cec:	fff00793          	li	a5,-1
    1cf0:	02f50863          	beq	a0,a5,1d20 <__sseek+0x4c>
    1cf4:	00c45783          	lhu	a5,12(s0)
    1cf8:	00001737          	lui	a4,0x1
    1cfc:	00c12083          	lw	ra,12(sp)
    1d00:	00e7e7b3          	or	a5,a5,a4
    1d04:	01079793          	sll	a5,a5,0x10
    1d08:	4107d793          	sra	a5,a5,0x10
    1d0c:	04a42823          	sw	a0,80(s0)
    1d10:	00f41623          	sh	a5,12(s0)
    1d14:	00812403          	lw	s0,8(sp)
    1d18:	01010113          	add	sp,sp,16
    1d1c:	00008067          	ret
    1d20:	00c45783          	lhu	a5,12(s0)
    1d24:	fffff737          	lui	a4,0xfffff
    1d28:	fff70713          	add	a4,a4,-1 # ffffefff <__alt_data_end+0xfbffefff>
    1d2c:	00e7f7b3          	and	a5,a5,a4
    1d30:	01079793          	sll	a5,a5,0x10
    1d34:	4107d793          	sra	a5,a5,0x10
    1d38:	00c12083          	lw	ra,12(sp)
    1d3c:	00f41623          	sh	a5,12(s0)
    1d40:	00812403          	lw	s0,8(sp)
    1d44:	01010113          	add	sp,sp,16
    1d48:	00008067          	ret

00001d4c <__sclose>:
    1d4c:	00e59583          	lh	a1,14(a1)
    1d50:	2210106f          	j	3770 <_close_r>

00001d54 <malloc>:
    1d54:	00050593          	mv	a1,a0
    1d58:	8201a503          	lw	a0,-2016(gp) # 16b18 <_impure_ptr>
    1d5c:	0100006f          	j	1d6c <_malloc_r>

00001d60 <free>:
    1d60:	00050593          	mv	a1,a0
    1d64:	8201a503          	lw	a0,-2016(gp) # 16b18 <_impure_ptr>
    1d68:	3040106f          	j	306c <_free_r>

00001d6c <_malloc_r>:
    1d6c:	fd010113          	add	sp,sp,-48
    1d70:	03212023          	sw	s2,32(sp)
    1d74:	02112623          	sw	ra,44(sp)
    1d78:	02812423          	sw	s0,40(sp)
    1d7c:	02912223          	sw	s1,36(sp)
    1d80:	01312e23          	sw	s3,28(sp)
    1d84:	00b58793          	add	a5,a1,11
    1d88:	01600713          	li	a4,22
    1d8c:	00050913          	mv	s2,a0
    1d90:	08f76263          	bltu	a4,a5,1e14 <_malloc_r+0xa8>
    1d94:	01000793          	li	a5,16
    1d98:	20b7e663          	bltu	a5,a1,1fa4 <_malloc_r+0x238>
    1d9c:	445000ef          	jal	29e0 <__malloc_lock>
    1da0:	01800793          	li	a5,24
    1da4:	00200593          	li	a1,2
    1da8:	01000493          	li	s1,16
    1dac:	00014997          	auipc	s3,0x14
    1db0:	7d898993          	add	s3,s3,2008 # 16584 <__malloc_av_>
    1db4:	00f987b3          	add	a5,s3,a5
    1db8:	0047a403          	lw	s0,4(a5)
    1dbc:	ff878713          	add	a4,a5,-8
    1dc0:	36e40263          	beq	s0,a4,2124 <_malloc_r+0x3b8>
    1dc4:	00442783          	lw	a5,4(s0)
    1dc8:	00c42683          	lw	a3,12(s0)
    1dcc:	00842603          	lw	a2,8(s0)
    1dd0:	ffc7f793          	and	a5,a5,-4
    1dd4:	00f407b3          	add	a5,s0,a5
    1dd8:	0047a703          	lw	a4,4(a5)
    1ddc:	00d62623          	sw	a3,12(a2)
    1de0:	00c6a423          	sw	a2,8(a3)
    1de4:	00176713          	or	a4,a4,1
    1de8:	00090513          	mv	a0,s2
    1dec:	00e7a223          	sw	a4,4(a5)
    1df0:	3fd000ef          	jal	29ec <__malloc_unlock>
    1df4:	00840513          	add	a0,s0,8
    1df8:	02c12083          	lw	ra,44(sp)
    1dfc:	02812403          	lw	s0,40(sp)
    1e00:	02412483          	lw	s1,36(sp)
    1e04:	02012903          	lw	s2,32(sp)
    1e08:	01c12983          	lw	s3,28(sp)
    1e0c:	03010113          	add	sp,sp,48
    1e10:	00008067          	ret
    1e14:	ff87f493          	and	s1,a5,-8
    1e18:	1807c663          	bltz	a5,1fa4 <_malloc_r+0x238>
    1e1c:	18b4e463          	bltu	s1,a1,1fa4 <_malloc_r+0x238>
    1e20:	3c1000ef          	jal	29e0 <__malloc_lock>
    1e24:	1f700793          	li	a5,503
    1e28:	4097f863          	bgeu	a5,s1,2238 <_malloc_r+0x4cc>
    1e2c:	0094d793          	srl	a5,s1,0x9
    1e30:	18078263          	beqz	a5,1fb4 <_malloc_r+0x248>
    1e34:	00400713          	li	a4,4
    1e38:	34f76e63          	bltu	a4,a5,2194 <_malloc_r+0x428>
    1e3c:	0064d793          	srl	a5,s1,0x6
    1e40:	03978593          	add	a1,a5,57
    1e44:	03878813          	add	a6,a5,56
    1e48:	00359613          	sll	a2,a1,0x3
    1e4c:	00014997          	auipc	s3,0x14
    1e50:	73898993          	add	s3,s3,1848 # 16584 <__malloc_av_>
    1e54:	00c98633          	add	a2,s3,a2
    1e58:	00462403          	lw	s0,4(a2)
    1e5c:	ff860613          	add	a2,a2,-8
    1e60:	02860863          	beq	a2,s0,1e90 <_malloc_r+0x124>
    1e64:	00f00513          	li	a0,15
    1e68:	0140006f          	j	1e7c <_malloc_r+0x110>
    1e6c:	00c42683          	lw	a3,12(s0)
    1e70:	2a075663          	bgez	a4,211c <_malloc_r+0x3b0>
    1e74:	00d60e63          	beq	a2,a3,1e90 <_malloc_r+0x124>
    1e78:	00068413          	mv	s0,a3
    1e7c:	00442783          	lw	a5,4(s0)
    1e80:	ffc7f793          	and	a5,a5,-4
    1e84:	40978733          	sub	a4,a5,s1
    1e88:	fee552e3          	bge	a0,a4,1e6c <_malloc_r+0x100>
    1e8c:	00080593          	mv	a1,a6
    1e90:	0109a403          	lw	s0,16(s3)
    1e94:	00014897          	auipc	a7,0x14
    1e98:	6f888893          	add	a7,a7,1784 # 1658c <__malloc_av_+0x8>
    1e9c:	27140c63          	beq	s0,a7,2114 <_malloc_r+0x3a8>
    1ea0:	00442783          	lw	a5,4(s0)
    1ea4:	00f00693          	li	a3,15
    1ea8:	ffc7f793          	and	a5,a5,-4
    1eac:	40978733          	sub	a4,a5,s1
    1eb0:	38e6ca63          	blt	a3,a4,2244 <_malloc_r+0x4d8>
    1eb4:	0119aa23          	sw	a7,20(s3)
    1eb8:	0119a823          	sw	a7,16(s3)
    1ebc:	34075e63          	bgez	a4,2218 <_malloc_r+0x4ac>
    1ec0:	1ff00713          	li	a4,511
    1ec4:	0049a503          	lw	a0,4(s3)
    1ec8:	26f76663          	bltu	a4,a5,2134 <_malloc_r+0x3c8>
    1ecc:	ff87f713          	and	a4,a5,-8
    1ed0:	00870713          	add	a4,a4,8
    1ed4:	00e98733          	add	a4,s3,a4
    1ed8:	00072683          	lw	a3,0(a4)
    1edc:	0057d613          	srl	a2,a5,0x5
    1ee0:	00100793          	li	a5,1
    1ee4:	00c797b3          	sll	a5,a5,a2
    1ee8:	00f56533          	or	a0,a0,a5
    1eec:	ff870793          	add	a5,a4,-8
    1ef0:	00f42623          	sw	a5,12(s0)
    1ef4:	00d42423          	sw	a3,8(s0)
    1ef8:	00a9a223          	sw	a0,4(s3)
    1efc:	00872023          	sw	s0,0(a4)
    1f00:	0086a623          	sw	s0,12(a3)
    1f04:	4025d793          	sra	a5,a1,0x2
    1f08:	00100613          	li	a2,1
    1f0c:	00f61633          	sll	a2,a2,a5
    1f10:	0ac56a63          	bltu	a0,a2,1fc4 <_malloc_r+0x258>
    1f14:	00a677b3          	and	a5,a2,a0
    1f18:	02079463          	bnez	a5,1f40 <_malloc_r+0x1d4>
    1f1c:	00161613          	sll	a2,a2,0x1
    1f20:	ffc5f593          	and	a1,a1,-4
    1f24:	00a677b3          	and	a5,a2,a0
    1f28:	00458593          	add	a1,a1,4
    1f2c:	00079a63          	bnez	a5,1f40 <_malloc_r+0x1d4>
    1f30:	00161613          	sll	a2,a2,0x1
    1f34:	00a677b3          	and	a5,a2,a0
    1f38:	00458593          	add	a1,a1,4
    1f3c:	fe078ae3          	beqz	a5,1f30 <_malloc_r+0x1c4>
    1f40:	00f00813          	li	a6,15
    1f44:	00359313          	sll	t1,a1,0x3
    1f48:	00698333          	add	t1,s3,t1
    1f4c:	00030513          	mv	a0,t1
    1f50:	00c52783          	lw	a5,12(a0)
    1f54:	00058e13          	mv	t3,a1
    1f58:	26f50063          	beq	a0,a5,21b8 <_malloc_r+0x44c>
    1f5c:	0047a703          	lw	a4,4(a5)
    1f60:	00078413          	mv	s0,a5
    1f64:	00c7a783          	lw	a5,12(a5)
    1f68:	ffc77713          	and	a4,a4,-4
    1f6c:	409706b3          	sub	a3,a4,s1
    1f70:	26d84063          	blt	a6,a3,21d0 <_malloc_r+0x464>
    1f74:	fe06c2e3          	bltz	a3,1f58 <_malloc_r+0x1ec>
    1f78:	00e40733          	add	a4,s0,a4
    1f7c:	00472683          	lw	a3,4(a4)
    1f80:	00842603          	lw	a2,8(s0)
    1f84:	00090513          	mv	a0,s2
    1f88:	0016e693          	or	a3,a3,1
    1f8c:	00d72223          	sw	a3,4(a4)
    1f90:	00f62623          	sw	a5,12(a2)
    1f94:	00c7a423          	sw	a2,8(a5)
    1f98:	255000ef          	jal	29ec <__malloc_unlock>
    1f9c:	00840513          	add	a0,s0,8
    1fa0:	e59ff06f          	j	1df8 <_malloc_r+0x8c>
    1fa4:	00c00793          	li	a5,12
    1fa8:	00f92023          	sw	a5,0(s2)
    1fac:	00000513          	li	a0,0
    1fb0:	e49ff06f          	j	1df8 <_malloc_r+0x8c>
    1fb4:	20000613          	li	a2,512
    1fb8:	04000593          	li	a1,64
    1fbc:	03f00813          	li	a6,63
    1fc0:	e8dff06f          	j	1e4c <_malloc_r+0xe0>
    1fc4:	0089a403          	lw	s0,8(s3)
    1fc8:	01612823          	sw	s6,16(sp)
    1fcc:	00442783          	lw	a5,4(s0)
    1fd0:	ffc7fb13          	and	s6,a5,-4
    1fd4:	009b6863          	bltu	s6,s1,1fe4 <_malloc_r+0x278>
    1fd8:	409b0733          	sub	a4,s6,s1
    1fdc:	00f00793          	li	a5,15
    1fe0:	0ee7c863          	blt	a5,a4,20d0 <_malloc_r+0x364>
    1fe4:	01912223          	sw	s9,4(sp)
    1fe8:	82418c93          	add	s9,gp,-2012 # 16b1c <__malloc_sbrk_base>
    1fec:	000ca703          	lw	a4,0(s9)
    1ff0:	01412c23          	sw	s4,24(sp)
    1ff4:	01512a23          	sw	s5,20(sp)
    1ff8:	01712623          	sw	s7,12(sp)
    1ffc:	00016a97          	auipc	s5,0x16
    2000:	464aaa83          	lw	s5,1124(s5) # 18460 <__malloc_top_pad>
    2004:	fff00793          	li	a5,-1
    2008:	01640a33          	add	s4,s0,s6
    200c:	01548ab3          	add	s5,s1,s5
    2010:	3ef70263          	beq	a4,a5,23f4 <_malloc_r+0x688>
    2014:	000017b7          	lui	a5,0x1
    2018:	00f78793          	add	a5,a5,15 # 100f <alt_tick+0xe7>
    201c:	00fa8ab3          	add	s5,s5,a5
    2020:	fffff7b7          	lui	a5,0xfffff
    2024:	00fafab3          	and	s5,s5,a5
    2028:	000a8593          	mv	a1,s5
    202c:	00090513          	mv	a0,s2
    2030:	684000ef          	jal	26b4 <_sbrk_r>
    2034:	fff00793          	li	a5,-1
    2038:	00050b93          	mv	s7,a0
    203c:	46f50663          	beq	a0,a5,24a8 <_malloc_r+0x73c>
    2040:	01812423          	sw	s8,8(sp)
    2044:	25456863          	bltu	a0,s4,2294 <_malloc_r+0x528>
    2048:	00016c17          	auipc	s8,0x16
    204c:	600c0c13          	add	s8,s8,1536 # 18648 <__malloc_current_mallinfo>
    2050:	000c2583          	lw	a1,0(s8)
    2054:	00ba85b3          	add	a1,s5,a1
    2058:	00bc2023          	sw	a1,0(s8)
    205c:	00058713          	mv	a4,a1
    2060:	2caa1063          	bne	s4,a0,2320 <_malloc_r+0x5b4>
    2064:	01451793          	sll	a5,a0,0x14
    2068:	2a079c63          	bnez	a5,2320 <_malloc_r+0x5b4>
    206c:	0089ab83          	lw	s7,8(s3)
    2070:	015b07b3          	add	a5,s6,s5
    2074:	0017e793          	or	a5,a5,1
    2078:	00fba223          	sw	a5,4(s7)
    207c:	00016717          	auipc	a4,0x16
    2080:	3e070713          	add	a4,a4,992 # 1845c <__malloc_max_sbrked_mem>
    2084:	00072683          	lw	a3,0(a4)
    2088:	00b6f463          	bgeu	a3,a1,2090 <_malloc_r+0x324>
    208c:	00b72023          	sw	a1,0(a4)
    2090:	00016717          	auipc	a4,0x16
    2094:	3c870713          	add	a4,a4,968 # 18458 <__malloc_max_total_mem>
    2098:	00072683          	lw	a3,0(a4)
    209c:	00b6f463          	bgeu	a3,a1,20a4 <_malloc_r+0x338>
    20a0:	00b72023          	sw	a1,0(a4)
    20a4:	00812c03          	lw	s8,8(sp)
    20a8:	000b8413          	mv	s0,s7
    20ac:	ffc7f793          	and	a5,a5,-4
    20b0:	40978733          	sub	a4,a5,s1
    20b4:	3897ec63          	bltu	a5,s1,244c <_malloc_r+0x6e0>
    20b8:	00f00793          	li	a5,15
    20bc:	38e7d863          	bge	a5,a4,244c <_malloc_r+0x6e0>
    20c0:	01812a03          	lw	s4,24(sp)
    20c4:	01412a83          	lw	s5,20(sp)
    20c8:	00c12b83          	lw	s7,12(sp)
    20cc:	00412c83          	lw	s9,4(sp)
    20d0:	0014e793          	or	a5,s1,1
    20d4:	00f42223          	sw	a5,4(s0)
    20d8:	009404b3          	add	s1,s0,s1
    20dc:	0099a423          	sw	s1,8(s3)
    20e0:	00176713          	or	a4,a4,1
    20e4:	00090513          	mv	a0,s2
    20e8:	00e4a223          	sw	a4,4(s1)
    20ec:	101000ef          	jal	29ec <__malloc_unlock>
    20f0:	02c12083          	lw	ra,44(sp)
    20f4:	00840513          	add	a0,s0,8
    20f8:	02812403          	lw	s0,40(sp)
    20fc:	01012b03          	lw	s6,16(sp)
    2100:	02412483          	lw	s1,36(sp)
    2104:	02012903          	lw	s2,32(sp)
    2108:	01c12983          	lw	s3,28(sp)
    210c:	03010113          	add	sp,sp,48
    2110:	00008067          	ret
    2114:	0049a503          	lw	a0,4(s3)
    2118:	dedff06f          	j	1f04 <_malloc_r+0x198>
    211c:	00842603          	lw	a2,8(s0)
    2120:	cb5ff06f          	j	1dd4 <_malloc_r+0x68>
    2124:	00c7a403          	lw	s0,12(a5) # fffff00c <__alt_data_end+0xfbfff00c>
    2128:	00258593          	add	a1,a1,2
    212c:	d68782e3          	beq	a5,s0,1e90 <_malloc_r+0x124>
    2130:	c95ff06f          	j	1dc4 <_malloc_r+0x58>
    2134:	0097d713          	srl	a4,a5,0x9
    2138:	00400693          	li	a3,4
    213c:	14e6f263          	bgeu	a3,a4,2280 <_malloc_r+0x514>
    2140:	01400693          	li	a3,20
    2144:	32e6e663          	bltu	a3,a4,2470 <_malloc_r+0x704>
    2148:	05c70613          	add	a2,a4,92
    214c:	05b70693          	add	a3,a4,91
    2150:	00361613          	sll	a2,a2,0x3
    2154:	00c98633          	add	a2,s3,a2
    2158:	00062703          	lw	a4,0(a2)
    215c:	ff860613          	add	a2,a2,-8
    2160:	00e61863          	bne	a2,a4,2170 <_malloc_r+0x404>
    2164:	2980006f          	j	23fc <_malloc_r+0x690>
    2168:	00872703          	lw	a4,8(a4)
    216c:	00e60863          	beq	a2,a4,217c <_malloc_r+0x410>
    2170:	00472683          	lw	a3,4(a4)
    2174:	ffc6f693          	and	a3,a3,-4
    2178:	fed7e8e3          	bltu	a5,a3,2168 <_malloc_r+0x3fc>
    217c:	00c72603          	lw	a2,12(a4)
    2180:	00c42623          	sw	a2,12(s0)
    2184:	00e42423          	sw	a4,8(s0)
    2188:	00862423          	sw	s0,8(a2)
    218c:	00872623          	sw	s0,12(a4)
    2190:	d75ff06f          	j	1f04 <_malloc_r+0x198>
    2194:	01400713          	li	a4,20
    2198:	10f77863          	bgeu	a4,a5,22a8 <_malloc_r+0x53c>
    219c:	05400713          	li	a4,84
    21a0:	2ef76663          	bltu	a4,a5,248c <_malloc_r+0x720>
    21a4:	00c4d793          	srl	a5,s1,0xc
    21a8:	06f78593          	add	a1,a5,111
    21ac:	06e78813          	add	a6,a5,110
    21b0:	00359613          	sll	a2,a1,0x3
    21b4:	c99ff06f          	j	1e4c <_malloc_r+0xe0>
    21b8:	001e0e13          	add	t3,t3,1
    21bc:	003e7793          	and	a5,t3,3
    21c0:	00850513          	add	a0,a0,8
    21c4:	10078063          	beqz	a5,22c4 <_malloc_r+0x558>
    21c8:	00c52783          	lw	a5,12(a0)
    21cc:	d8dff06f          	j	1f58 <_malloc_r+0x1ec>
    21d0:	00842603          	lw	a2,8(s0)
    21d4:	0014e593          	or	a1,s1,1
    21d8:	00b42223          	sw	a1,4(s0)
    21dc:	00f62623          	sw	a5,12(a2)
    21e0:	00c7a423          	sw	a2,8(a5)
    21e4:	009404b3          	add	s1,s0,s1
    21e8:	0099aa23          	sw	s1,20(s3)
    21ec:	0099a823          	sw	s1,16(s3)
    21f0:	0016e793          	or	a5,a3,1
    21f4:	0114a623          	sw	a7,12(s1)
    21f8:	0114a423          	sw	a7,8(s1)
    21fc:	00f4a223          	sw	a5,4(s1)
    2200:	00e40733          	add	a4,s0,a4
    2204:	00090513          	mv	a0,s2
    2208:	00d72023          	sw	a3,0(a4)
    220c:	7e0000ef          	jal	29ec <__malloc_unlock>
    2210:	00840513          	add	a0,s0,8
    2214:	be5ff06f          	j	1df8 <_malloc_r+0x8c>
    2218:	00f407b3          	add	a5,s0,a5
    221c:	0047a703          	lw	a4,4(a5)
    2220:	00090513          	mv	a0,s2
    2224:	00176713          	or	a4,a4,1
    2228:	00e7a223          	sw	a4,4(a5)
    222c:	7c0000ef          	jal	29ec <__malloc_unlock>
    2230:	00840513          	add	a0,s0,8
    2234:	bc5ff06f          	j	1df8 <_malloc_r+0x8c>
    2238:	0034d593          	srl	a1,s1,0x3
    223c:	00848793          	add	a5,s1,8
    2240:	b6dff06f          	j	1dac <_malloc_r+0x40>
    2244:	0014e693          	or	a3,s1,1
    2248:	00d42223          	sw	a3,4(s0)
    224c:	009404b3          	add	s1,s0,s1
    2250:	0099aa23          	sw	s1,20(s3)
    2254:	0099a823          	sw	s1,16(s3)
    2258:	00176693          	or	a3,a4,1
    225c:	0114a623          	sw	a7,12(s1)
    2260:	0114a423          	sw	a7,8(s1)
    2264:	00d4a223          	sw	a3,4(s1)
    2268:	00f407b3          	add	a5,s0,a5
    226c:	00090513          	mv	a0,s2
    2270:	00e7a023          	sw	a4,0(a5)
    2274:	778000ef          	jal	29ec <__malloc_unlock>
    2278:	00840513          	add	a0,s0,8
    227c:	b7dff06f          	j	1df8 <_malloc_r+0x8c>
    2280:	0067d713          	srl	a4,a5,0x6
    2284:	03970613          	add	a2,a4,57
    2288:	03870693          	add	a3,a4,56
    228c:	00361613          	sll	a2,a2,0x3
    2290:	ec5ff06f          	j	2154 <_malloc_r+0x3e8>
    2294:	07340c63          	beq	s0,s3,230c <_malloc_r+0x5a0>
    2298:	0089a403          	lw	s0,8(s3)
    229c:	00812c03          	lw	s8,8(sp)
    22a0:	00442783          	lw	a5,4(s0)
    22a4:	e09ff06f          	j	20ac <_malloc_r+0x340>
    22a8:	05c78593          	add	a1,a5,92
    22ac:	05b78813          	add	a6,a5,91
    22b0:	00359613          	sll	a2,a1,0x3
    22b4:	b99ff06f          	j	1e4c <_malloc_r+0xe0>
    22b8:	00832783          	lw	a5,8(t1)
    22bc:	fff58593          	add	a1,a1,-1
    22c0:	28679063          	bne	a5,t1,2540 <_malloc_r+0x7d4>
    22c4:	0035f793          	and	a5,a1,3
    22c8:	ff830313          	add	t1,t1,-8
    22cc:	fe0796e3          	bnez	a5,22b8 <_malloc_r+0x54c>
    22d0:	0049a703          	lw	a4,4(s3)
    22d4:	fff64793          	not	a5,a2
    22d8:	00e7f7b3          	and	a5,a5,a4
    22dc:	00f9a223          	sw	a5,4(s3)
    22e0:	00161613          	sll	a2,a2,0x1
    22e4:	cec7e0e3          	bltu	a5,a2,1fc4 <_malloc_r+0x258>
    22e8:	cc060ee3          	beqz	a2,1fc4 <_malloc_r+0x258>
    22ec:	00f67733          	and	a4,a2,a5
    22f0:	00071a63          	bnez	a4,2304 <_malloc_r+0x598>
    22f4:	00161613          	sll	a2,a2,0x1
    22f8:	00f67733          	and	a4,a2,a5
    22fc:	004e0e13          	add	t3,t3,4
    2300:	fe070ae3          	beqz	a4,22f4 <_malloc_r+0x588>
    2304:	000e0593          	mv	a1,t3
    2308:	c3dff06f          	j	1f44 <_malloc_r+0x1d8>
    230c:	00016c17          	auipc	s8,0x16
    2310:	33cc0c13          	add	s8,s8,828 # 18648 <__malloc_current_mallinfo>
    2314:	000c2703          	lw	a4,0(s8)
    2318:	00ea8733          	add	a4,s5,a4
    231c:	00ec2023          	sw	a4,0(s8)
    2320:	000ca683          	lw	a3,0(s9)
    2324:	fff00793          	li	a5,-1
    2328:	18f68663          	beq	a3,a5,24b4 <_malloc_r+0x748>
    232c:	414b87b3          	sub	a5,s7,s4
    2330:	00e787b3          	add	a5,a5,a4
    2334:	00fc2023          	sw	a5,0(s8)
    2338:	007bfc93          	and	s9,s7,7
    233c:	0c0c8c63          	beqz	s9,2414 <_malloc_r+0x6a8>
    2340:	419b8bb3          	sub	s7,s7,s9
    2344:	000017b7          	lui	a5,0x1
    2348:	00878793          	add	a5,a5,8 # 1008 <alt_tick+0xe0>
    234c:	008b8b93          	add	s7,s7,8
    2350:	419785b3          	sub	a1,a5,s9
    2354:	015b8ab3          	add	s5,s7,s5
    2358:	415585b3          	sub	a1,a1,s5
    235c:	01459593          	sll	a1,a1,0x14
    2360:	0145da13          	srl	s4,a1,0x14
    2364:	000a0593          	mv	a1,s4
    2368:	00090513          	mv	a0,s2
    236c:	348000ef          	jal	26b4 <_sbrk_r>
    2370:	fff00793          	li	a5,-1
    2374:	18f50063          	beq	a0,a5,24f4 <_malloc_r+0x788>
    2378:	41750533          	sub	a0,a0,s7
    237c:	01450ab3          	add	s5,a0,s4
    2380:	000c2703          	lw	a4,0(s8)
    2384:	0179a423          	sw	s7,8(s3)
    2388:	001ae793          	or	a5,s5,1
    238c:	00ea05b3          	add	a1,s4,a4
    2390:	00bc2023          	sw	a1,0(s8)
    2394:	00fba223          	sw	a5,4(s7)
    2398:	cf3402e3          	beq	s0,s3,207c <_malloc_r+0x310>
    239c:	00f00693          	li	a3,15
    23a0:	0b66f063          	bgeu	a3,s6,2440 <_malloc_r+0x6d4>
    23a4:	00442703          	lw	a4,4(s0)
    23a8:	ff4b0793          	add	a5,s6,-12
    23ac:	ff87f793          	and	a5,a5,-8
    23b0:	00177713          	and	a4,a4,1
    23b4:	00f76733          	or	a4,a4,a5
    23b8:	00e42223          	sw	a4,4(s0)
    23bc:	00500613          	li	a2,5
    23c0:	00f40733          	add	a4,s0,a5
    23c4:	00c72223          	sw	a2,4(a4)
    23c8:	00c72423          	sw	a2,8(a4)
    23cc:	00f6e663          	bltu	a3,a5,23d8 <_malloc_r+0x66c>
    23d0:	004ba783          	lw	a5,4(s7)
    23d4:	ca9ff06f          	j	207c <_malloc_r+0x310>
    23d8:	00840593          	add	a1,s0,8
    23dc:	00090513          	mv	a0,s2
    23e0:	48d000ef          	jal	306c <_free_r>
    23e4:	0089ab83          	lw	s7,8(s3)
    23e8:	000c2583          	lw	a1,0(s8)
    23ec:	004ba783          	lw	a5,4(s7)
    23f0:	c8dff06f          	j	207c <_malloc_r+0x310>
    23f4:	010a8a93          	add	s5,s5,16
    23f8:	c31ff06f          	j	2028 <_malloc_r+0x2bc>
    23fc:	4026d693          	sra	a3,a3,0x2
    2400:	00100793          	li	a5,1
    2404:	00d797b3          	sll	a5,a5,a3
    2408:	00f56533          	or	a0,a0,a5
    240c:	00a9a223          	sw	a0,4(s3)
    2410:	d71ff06f          	j	2180 <_malloc_r+0x414>
    2414:	015b85b3          	add	a1,s7,s5
    2418:	40b005b3          	neg	a1,a1
    241c:	01459593          	sll	a1,a1,0x14
    2420:	0145da13          	srl	s4,a1,0x14
    2424:	000a0593          	mv	a1,s4
    2428:	00090513          	mv	a0,s2
    242c:	288000ef          	jal	26b4 <_sbrk_r>
    2430:	fff00793          	li	a5,-1
    2434:	f4f512e3          	bne	a0,a5,2378 <_malloc_r+0x60c>
    2438:	00000a13          	li	s4,0
    243c:	f45ff06f          	j	2380 <_malloc_r+0x614>
    2440:	00812c03          	lw	s8,8(sp)
    2444:	00100793          	li	a5,1
    2448:	00fba223          	sw	a5,4(s7)
    244c:	00090513          	mv	a0,s2
    2450:	59c000ef          	jal	29ec <__malloc_unlock>
    2454:	00000513          	li	a0,0
    2458:	01812a03          	lw	s4,24(sp)
    245c:	01412a83          	lw	s5,20(sp)
    2460:	01012b03          	lw	s6,16(sp)
    2464:	00c12b83          	lw	s7,12(sp)
    2468:	00412c83          	lw	s9,4(sp)
    246c:	98dff06f          	j	1df8 <_malloc_r+0x8c>
    2470:	05400693          	li	a3,84
    2474:	04e6e463          	bltu	a3,a4,24bc <_malloc_r+0x750>
    2478:	00c7d713          	srl	a4,a5,0xc
    247c:	06f70613          	add	a2,a4,111
    2480:	06e70693          	add	a3,a4,110
    2484:	00361613          	sll	a2,a2,0x3
    2488:	ccdff06f          	j	2154 <_malloc_r+0x3e8>
    248c:	15400713          	li	a4,340
    2490:	04f76463          	bltu	a4,a5,24d8 <_malloc_r+0x76c>
    2494:	00f4d793          	srl	a5,s1,0xf
    2498:	07878593          	add	a1,a5,120
    249c:	07778813          	add	a6,a5,119
    24a0:	00359613          	sll	a2,a1,0x3
    24a4:	9a9ff06f          	j	1e4c <_malloc_r+0xe0>
    24a8:	0089a403          	lw	s0,8(s3)
    24ac:	00442783          	lw	a5,4(s0)
    24b0:	bfdff06f          	j	20ac <_malloc_r+0x340>
    24b4:	017ca023          	sw	s7,0(s9)
    24b8:	e81ff06f          	j	2338 <_malloc_r+0x5cc>
    24bc:	15400693          	li	a3,340
    24c0:	04e6e463          	bltu	a3,a4,2508 <_malloc_r+0x79c>
    24c4:	00f7d713          	srl	a4,a5,0xf
    24c8:	07870613          	add	a2,a4,120
    24cc:	07770693          	add	a3,a4,119
    24d0:	00361613          	sll	a2,a2,0x3
    24d4:	c81ff06f          	j	2154 <_malloc_r+0x3e8>
    24d8:	55400713          	li	a4,1364
    24dc:	04f76463          	bltu	a4,a5,2524 <_malloc_r+0x7b8>
    24e0:	0124d793          	srl	a5,s1,0x12
    24e4:	07d78593          	add	a1,a5,125
    24e8:	07c78813          	add	a6,a5,124
    24ec:	00359613          	sll	a2,a1,0x3
    24f0:	95dff06f          	j	1e4c <_malloc_r+0xe0>
    24f4:	ff8c8c93          	add	s9,s9,-8
    24f8:	019a8ab3          	add	s5,s5,s9
    24fc:	417a8ab3          	sub	s5,s5,s7
    2500:	00000a13          	li	s4,0
    2504:	e7dff06f          	j	2380 <_malloc_r+0x614>
    2508:	55400693          	li	a3,1364
    250c:	02e6e463          	bltu	a3,a4,2534 <_malloc_r+0x7c8>
    2510:	0127d713          	srl	a4,a5,0x12
    2514:	07d70613          	add	a2,a4,125
    2518:	07c70693          	add	a3,a4,124
    251c:	00361613          	sll	a2,a2,0x3
    2520:	c35ff06f          	j	2154 <_malloc_r+0x3e8>
    2524:	3f800613          	li	a2,1016
    2528:	07f00593          	li	a1,127
    252c:	07e00813          	li	a6,126
    2530:	91dff06f          	j	1e4c <_malloc_r+0xe0>
    2534:	3f800613          	li	a2,1016
    2538:	07e00693          	li	a3,126
    253c:	c19ff06f          	j	2154 <_malloc_r+0x3e8>
    2540:	0049a783          	lw	a5,4(s3)
    2544:	d9dff06f          	j	22e0 <_malloc_r+0x574>

00002548 <__call_exitprocs>:
    2548:	fd010113          	add	sp,sp,-48
    254c:	01712623          	sw	s7,12(sp)
    2550:	82c18b93          	add	s7,gp,-2004 # 16b24 <__atexit_recursive_mutex>
    2554:	01612823          	sw	s6,16(sp)
    2558:	00050b13          	mv	s6,a0
    255c:	000ba503          	lw	a0,0(s7)
    2560:	01412c23          	sw	s4,24(sp)
    2564:	00016a17          	auipc	s4,0x16
    2568:	f00a0a13          	add	s4,s4,-256 # 18464 <__atexit>
    256c:	03212023          	sw	s2,32(sp)
    2570:	01812423          	sw	s8,8(sp)
    2574:	02112623          	sw	ra,44(sp)
    2578:	00058c13          	mv	s8,a1
    257c:	500000ef          	jal	2a7c <__retarget_lock_acquire_recursive>
    2580:	000a2903          	lw	s2,0(s4)
    2584:	08090c63          	beqz	s2,261c <__call_exitprocs+0xd4>
    2588:	01312e23          	sw	s3,28(sp)
    258c:	01512a23          	sw	s5,20(sp)
    2590:	02812423          	sw	s0,40(sp)
    2594:	02912223          	sw	s1,36(sp)
    2598:	01912223          	sw	s9,4(sp)
    259c:	fff00993          	li	s3,-1
    25a0:	00100a93          	li	s5,1
    25a4:	00492483          	lw	s1,4(s2)
    25a8:	fff48413          	add	s0,s1,-1
    25ac:	04044e63          	bltz	s0,2608 <__call_exitprocs+0xc0>
    25b0:	00249493          	sll	s1,s1,0x2
    25b4:	009904b3          	add	s1,s2,s1
    25b8:	080c1463          	bnez	s8,2640 <__call_exitprocs+0xf8>
    25bc:	00492783          	lw	a5,4(s2)
    25c0:	0044a683          	lw	a3,4(s1)
    25c4:	fff78793          	add	a5,a5,-1
    25c8:	0c878063          	beq	a5,s0,2688 <__call_exitprocs+0x140>
    25cc:	0004a223          	sw	zero,4(s1)
    25d0:	02068663          	beqz	a3,25fc <__call_exitprocs+0xb4>
    25d4:	18892783          	lw	a5,392(s2)
    25d8:	008a9733          	sll	a4,s5,s0
    25dc:	00492c83          	lw	s9,4(s2)
    25e0:	00f777b3          	and	a5,a4,a5
    25e4:	06079a63          	bnez	a5,2658 <__call_exitprocs+0x110>
    25e8:	000680e7          	jalr	a3
    25ec:	00492703          	lw	a4,4(s2)
    25f0:	000a2783          	lw	a5,0(s4)
    25f4:	09971463          	bne	a4,s9,267c <__call_exitprocs+0x134>
    25f8:	09279263          	bne	a5,s2,267c <__call_exitprocs+0x134>
    25fc:	fff40413          	add	s0,s0,-1
    2600:	ffc48493          	add	s1,s1,-4
    2604:	fb341ae3          	bne	s0,s3,25b8 <__call_exitprocs+0x70>
    2608:	02812403          	lw	s0,40(sp)
    260c:	02412483          	lw	s1,36(sp)
    2610:	01c12983          	lw	s3,28(sp)
    2614:	01412a83          	lw	s5,20(sp)
    2618:	00412c83          	lw	s9,4(sp)
    261c:	000ba503          	lw	a0,0(s7)
    2620:	02c12083          	lw	ra,44(sp)
    2624:	02012903          	lw	s2,32(sp)
    2628:	01812a03          	lw	s4,24(sp)
    262c:	01012b03          	lw	s6,16(sp)
    2630:	00c12b83          	lw	s7,12(sp)
    2634:	00812c03          	lw	s8,8(sp)
    2638:	03010113          	add	sp,sp,48
    263c:	4580006f          	j	2a94 <__retarget_lock_release_recursive>
    2640:	1044a783          	lw	a5,260(s1)
    2644:	f7878ce3          	beq	a5,s8,25bc <__call_exitprocs+0x74>
    2648:	fff40413          	add	s0,s0,-1
    264c:	ffc48493          	add	s1,s1,-4
    2650:	ff3418e3          	bne	s0,s3,2640 <__call_exitprocs+0xf8>
    2654:	fb5ff06f          	j	2608 <__call_exitprocs+0xc0>
    2658:	18c92783          	lw	a5,396(s2)
    265c:	0844a583          	lw	a1,132(s1)
    2660:	00f77733          	and	a4,a4,a5
    2664:	02071663          	bnez	a4,2690 <__call_exitprocs+0x148>
    2668:	000b0513          	mv	a0,s6
    266c:	000680e7          	jalr	a3
    2670:	00492703          	lw	a4,4(s2)
    2674:	000a2783          	lw	a5,0(s4)
    2678:	f99700e3          	beq	a4,s9,25f8 <__call_exitprocs+0xb0>
    267c:	f80786e3          	beqz	a5,2608 <__call_exitprocs+0xc0>
    2680:	00078913          	mv	s2,a5
    2684:	f21ff06f          	j	25a4 <__call_exitprocs+0x5c>
    2688:	00892223          	sw	s0,4(s2)
    268c:	f45ff06f          	j	25d0 <__call_exitprocs+0x88>
    2690:	00058513          	mv	a0,a1
    2694:	000680e7          	jalr	a3
    2698:	f55ff06f          	j	25ec <__call_exitprocs+0xa4>

0000269c <register_fini>:
    269c:	00000793          	li	a5,0
    26a0:	00078863          	beqz	a5,26b0 <register_fini+0x14>
    26a4:	00000517          	auipc	a0,0x0
    26a8:	36850513          	add	a0,a0,872 # 2a0c <__libc_fini_array>
    26ac:	34c0006f          	j	29f8 <atexit>
    26b0:	00008067          	ret

000026b4 <_sbrk_r>:
    26b4:	ff010113          	add	sp,sp,-16
    26b8:	00812423          	sw	s0,8(sp)
    26bc:	00050413          	mv	s0,a0
    26c0:	00058513          	mv	a0,a1
    26c4:	00016797          	auipc	a5,0x16
    26c8:	d807a623          	sw	zero,-628(a5) # 18450 <errno>
    26cc:	00112623          	sw	ra,12(sp)
    26d0:	3e9110ef          	jal	142b8 <_sbrk>
    26d4:	fff00793          	li	a5,-1
    26d8:	00f50a63          	beq	a0,a5,26ec <_sbrk_r+0x38>
    26dc:	00c12083          	lw	ra,12(sp)
    26e0:	00812403          	lw	s0,8(sp)
    26e4:	01010113          	add	sp,sp,16
    26e8:	00008067          	ret
    26ec:	00016797          	auipc	a5,0x16
    26f0:	d647a783          	lw	a5,-668(a5) # 18450 <errno>
    26f4:	fe0784e3          	beqz	a5,26dc <_sbrk_r+0x28>
    26f8:	00c12083          	lw	ra,12(sp)
    26fc:	00f42023          	sw	a5,0(s0)
    2700:	00812403          	lw	s0,8(sp)
    2704:	01010113          	add	sp,sp,16
    2708:	00008067          	ret

0000270c <_write_r>:
    270c:	ff010113          	add	sp,sp,-16
    2710:	00058713          	mv	a4,a1
    2714:	00812423          	sw	s0,8(sp)
    2718:	00060593          	mv	a1,a2
    271c:	00050413          	mv	s0,a0
    2720:	00068613          	mv	a2,a3
    2724:	00070513          	mv	a0,a4
    2728:	00016797          	auipc	a5,0x16
    272c:	d207a423          	sw	zero,-728(a5) # 18450 <errno>
    2730:	00112623          	sw	ra,12(sp)
    2734:	3d1110ef          	jal	14304 <_write>
    2738:	fff00793          	li	a5,-1
    273c:	00f50a63          	beq	a0,a5,2750 <_write_r+0x44>
    2740:	00c12083          	lw	ra,12(sp)
    2744:	00812403          	lw	s0,8(sp)
    2748:	01010113          	add	sp,sp,16
    274c:	00008067          	ret
    2750:	00016797          	auipc	a5,0x16
    2754:	d007a783          	lw	a5,-768(a5) # 18450 <errno>
    2758:	fe0784e3          	beqz	a5,2740 <_write_r+0x34>
    275c:	00c12083          	lw	ra,12(sp)
    2760:	00f42023          	sw	a5,0(s0)
    2764:	00812403          	lw	s0,8(sp)
    2768:	01010113          	add	sp,sp,16
    276c:	00008067          	ret

00002770 <__smakebuf_r>:
    2770:	00c59783          	lh	a5,12(a1)
    2774:	f8010113          	add	sp,sp,-128
    2778:	06812c23          	sw	s0,120(sp)
    277c:	06112e23          	sw	ra,124(sp)
    2780:	0027f713          	and	a4,a5,2
    2784:	00058413          	mv	s0,a1
    2788:	02070463          	beqz	a4,27b0 <__smakebuf_r+0x40>
    278c:	04358793          	add	a5,a1,67
    2790:	00f5a023          	sw	a5,0(a1)
    2794:	00f5a823          	sw	a5,16(a1)
    2798:	00100793          	li	a5,1
    279c:	00f5aa23          	sw	a5,20(a1)
    27a0:	07c12083          	lw	ra,124(sp)
    27a4:	07812403          	lw	s0,120(sp)
    27a8:	08010113          	add	sp,sp,128
    27ac:	00008067          	ret
    27b0:	00e59583          	lh	a1,14(a1)
    27b4:	06912a23          	sw	s1,116(sp)
    27b8:	07212823          	sw	s2,112(sp)
    27bc:	07312623          	sw	s3,108(sp)
    27c0:	07412423          	sw	s4,104(sp)
    27c4:	00050493          	mv	s1,a0
    27c8:	0805c663          	bltz	a1,2854 <__smakebuf_r+0xe4>
    27cc:	00810613          	add	a2,sp,8
    27d0:	7f9000ef          	jal	37c8 <_fstat_r>
    27d4:	06054e63          	bltz	a0,2850 <__smakebuf_r+0xe0>
    27d8:	00c12783          	lw	a5,12(sp)
    27dc:	0000f937          	lui	s2,0xf
    27e0:	000019b7          	lui	s3,0x1
    27e4:	00f97933          	and	s2,s2,a5
    27e8:	ffffe7b7          	lui	a5,0xffffe
    27ec:	00f90933          	add	s2,s2,a5
    27f0:	00193913          	seqz	s2,s2
    27f4:	40000a13          	li	s4,1024
    27f8:	80098993          	add	s3,s3,-2048 # 800 <altera_avalon_jtag_uart_ioctl+0x68>
    27fc:	000a0593          	mv	a1,s4
    2800:	00048513          	mv	a0,s1
    2804:	d68ff0ef          	jal	1d6c <_malloc_r>
    2808:	00c41783          	lh	a5,12(s0)
    280c:	06050863          	beqz	a0,287c <__smakebuf_r+0x10c>
    2810:	0807e793          	or	a5,a5,128
    2814:	00a42023          	sw	a0,0(s0)
    2818:	00a42823          	sw	a0,16(s0)
    281c:	00f41623          	sh	a5,12(s0)
    2820:	01442a23          	sw	s4,20(s0)
    2824:	0a091063          	bnez	s2,28c4 <__smakebuf_r+0x154>
    2828:	0137e7b3          	or	a5,a5,s3
    282c:	07c12083          	lw	ra,124(sp)
    2830:	00f41623          	sh	a5,12(s0)
    2834:	07812403          	lw	s0,120(sp)
    2838:	07412483          	lw	s1,116(sp)
    283c:	07012903          	lw	s2,112(sp)
    2840:	06c12983          	lw	s3,108(sp)
    2844:	06812a03          	lw	s4,104(sp)
    2848:	08010113          	add	sp,sp,128
    284c:	00008067          	ret
    2850:	00c41783          	lh	a5,12(s0)
    2854:	0807f793          	and	a5,a5,128
    2858:	00000913          	li	s2,0
    285c:	04078e63          	beqz	a5,28b8 <__smakebuf_r+0x148>
    2860:	04000a13          	li	s4,64
    2864:	000a0593          	mv	a1,s4
    2868:	00048513          	mv	a0,s1
    286c:	d00ff0ef          	jal	1d6c <_malloc_r>
    2870:	00c41783          	lh	a5,12(s0)
    2874:	00000993          	li	s3,0
    2878:	f8051ce3          	bnez	a0,2810 <__smakebuf_r+0xa0>
    287c:	2007f713          	and	a4,a5,512
    2880:	04071e63          	bnez	a4,28dc <__smakebuf_r+0x16c>
    2884:	ffc7f793          	and	a5,a5,-4
    2888:	0027e793          	or	a5,a5,2
    288c:	04340713          	add	a4,s0,67
    2890:	00f41623          	sh	a5,12(s0)
    2894:	00100793          	li	a5,1
    2898:	07412483          	lw	s1,116(sp)
    289c:	07012903          	lw	s2,112(sp)
    28a0:	06c12983          	lw	s3,108(sp)
    28a4:	06812a03          	lw	s4,104(sp)
    28a8:	00e42023          	sw	a4,0(s0)
    28ac:	00e42823          	sw	a4,16(s0)
    28b0:	00f42a23          	sw	a5,20(s0)
    28b4:	eedff06f          	j	27a0 <__smakebuf_r+0x30>
    28b8:	40000a13          	li	s4,1024
    28bc:	00000993          	li	s3,0
    28c0:	f3dff06f          	j	27fc <__smakebuf_r+0x8c>
    28c4:	00e41583          	lh	a1,14(s0)
    28c8:	00048513          	mv	a0,s1
    28cc:	75d000ef          	jal	3828 <_isatty_r>
    28d0:	02051063          	bnez	a0,28f0 <__smakebuf_r+0x180>
    28d4:	00c41783          	lh	a5,12(s0)
    28d8:	f51ff06f          	j	2828 <__smakebuf_r+0xb8>
    28dc:	07412483          	lw	s1,116(sp)
    28e0:	07012903          	lw	s2,112(sp)
    28e4:	06c12983          	lw	s3,108(sp)
    28e8:	06812a03          	lw	s4,104(sp)
    28ec:	eb5ff06f          	j	27a0 <__smakebuf_r+0x30>
    28f0:	00c45783          	lhu	a5,12(s0)
    28f4:	ffc7f793          	and	a5,a5,-4
    28f8:	0017e793          	or	a5,a5,1
    28fc:	01079793          	sll	a5,a5,0x10
    2900:	4107d793          	sra	a5,a5,0x10
    2904:	f25ff06f          	j	2828 <__smakebuf_r+0xb8>

00002908 <__swhatbuf_r>:
    2908:	f9010113          	add	sp,sp,-112
    290c:	06812423          	sw	s0,104(sp)
    2910:	00058413          	mv	s0,a1
    2914:	00e59583          	lh	a1,14(a1)
    2918:	06912223          	sw	s1,100(sp)
    291c:	07212023          	sw	s2,96(sp)
    2920:	06112623          	sw	ra,108(sp)
    2924:	00060493          	mv	s1,a2
    2928:	00068913          	mv	s2,a3
    292c:	0405ca63          	bltz	a1,2980 <__swhatbuf_r+0x78>
    2930:	00810613          	add	a2,sp,8
    2934:	695000ef          	jal	37c8 <_fstat_r>
    2938:	04054463          	bltz	a0,2980 <__swhatbuf_r+0x78>
    293c:	00c12703          	lw	a4,12(sp)
    2940:	0000f7b7          	lui	a5,0xf
    2944:	06c12083          	lw	ra,108(sp)
    2948:	00e7f7b3          	and	a5,a5,a4
    294c:	ffffe737          	lui	a4,0xffffe
    2950:	00e787b3          	add	a5,a5,a4
    2954:	06812403          	lw	s0,104(sp)
    2958:	0017b793          	seqz	a5,a5
    295c:	00f92023          	sw	a5,0(s2) # f000 <__muldf3+0x25c>
    2960:	40000713          	li	a4,1024
    2964:	00e4a023          	sw	a4,0(s1)
    2968:	00001537          	lui	a0,0x1
    296c:	06412483          	lw	s1,100(sp)
    2970:	06012903          	lw	s2,96(sp)
    2974:	80050513          	add	a0,a0,-2048 # 800 <altera_avalon_jtag_uart_ioctl+0x68>
    2978:	07010113          	add	sp,sp,112
    297c:	00008067          	ret
    2980:	00c45783          	lhu	a5,12(s0)
    2984:	0807f793          	and	a5,a5,128
    2988:	02078863          	beqz	a5,29b8 <__swhatbuf_r+0xb0>
    298c:	06c12083          	lw	ra,108(sp)
    2990:	06812403          	lw	s0,104(sp)
    2994:	00000793          	li	a5,0
    2998:	00f92023          	sw	a5,0(s2)
    299c:	04000713          	li	a4,64
    29a0:	00e4a023          	sw	a4,0(s1)
    29a4:	06012903          	lw	s2,96(sp)
    29a8:	06412483          	lw	s1,100(sp)
    29ac:	00000513          	li	a0,0
    29b0:	07010113          	add	sp,sp,112
    29b4:	00008067          	ret
    29b8:	06c12083          	lw	ra,108(sp)
    29bc:	06812403          	lw	s0,104(sp)
    29c0:	00f92023          	sw	a5,0(s2)
    29c4:	40000713          	li	a4,1024
    29c8:	00e4a023          	sw	a4,0(s1)
    29cc:	06012903          	lw	s2,96(sp)
    29d0:	06412483          	lw	s1,100(sp)
    29d4:	00000513          	li	a0,0
    29d8:	07010113          	add	sp,sp,112
    29dc:	00008067          	ret

000029e0 <__malloc_lock>:
    29e0:	00016517          	auipc	a0,0x16
    29e4:	a9850513          	add	a0,a0,-1384 # 18478 <__lock___malloc_recursive_mutex>
    29e8:	0940006f          	j	2a7c <__retarget_lock_acquire_recursive>

000029ec <__malloc_unlock>:
    29ec:	00016517          	auipc	a0,0x16
    29f0:	a8c50513          	add	a0,a0,-1396 # 18478 <__lock___malloc_recursive_mutex>
    29f4:	0a00006f          	j	2a94 <__retarget_lock_release_recursive>

000029f8 <atexit>:
    29f8:	00050593          	mv	a1,a0
    29fc:	00000693          	li	a3,0
    2a00:	00000613          	li	a2,0
    2a04:	00000513          	li	a0,0
    2a08:	1dd0306f          	j	63e4 <__register_exitproc>

00002a0c <__libc_fini_array>:
    2a0c:	ff010113          	add	sp,sp,-16
    2a10:	00812423          	sw	s0,8(sp)
    2a14:	00012797          	auipc	a5,0x12
    2a18:	c0478793          	add	a5,a5,-1020 # 14618 <__fini_array_end>
    2a1c:	00012417          	auipc	s0,0x12
    2a20:	bfc40413          	add	s0,s0,-1028 # 14618 <__fini_array_end>
    2a24:	40f40433          	sub	s0,s0,a5
    2a28:	00912223          	sw	s1,4(sp)
    2a2c:	00112623          	sw	ra,12(sp)
    2a30:	40245493          	sra	s1,s0,0x2
    2a34:	02048063          	beqz	s1,2a54 <__libc_fini_array+0x48>
    2a38:	ffc40413          	add	s0,s0,-4
    2a3c:	00f40433          	add	s0,s0,a5
    2a40:	00042783          	lw	a5,0(s0)
    2a44:	fff48493          	add	s1,s1,-1
    2a48:	ffc40413          	add	s0,s0,-4
    2a4c:	000780e7          	jalr	a5
    2a50:	fe0498e3          	bnez	s1,2a40 <__libc_fini_array+0x34>
    2a54:	00c12083          	lw	ra,12(sp)
    2a58:	00812403          	lw	s0,8(sp)
    2a5c:	00412483          	lw	s1,4(sp)
    2a60:	01010113          	add	sp,sp,16
    2a64:	00008067          	ret

00002a68 <__retarget_lock_init>:
    2a68:	00008067          	ret

00002a6c <__retarget_lock_init_recursive>:
    2a6c:	00008067          	ret

00002a70 <__retarget_lock_close>:
    2a70:	00008067          	ret

00002a74 <__retarget_lock_close_recursive>:
    2a74:	00008067          	ret

00002a78 <__retarget_lock_acquire>:
    2a78:	00008067          	ret

00002a7c <__retarget_lock_acquire_recursive>:
    2a7c:	00008067          	ret

00002a80 <__retarget_lock_try_acquire>:
    2a80:	00100513          	li	a0,1
    2a84:	00008067          	ret

00002a88 <__retarget_lock_try_acquire_recursive>:
    2a88:	00100513          	li	a0,1
    2a8c:	00008067          	ret

00002a90 <__retarget_lock_release>:
    2a90:	00008067          	ret

00002a94 <__retarget_lock_release_recursive>:
    2a94:	00008067          	ret

00002a98 <close>:
    2a98:	00050593          	mv	a1,a0
    2a9c:	8201a503          	lw	a0,-2016(gp) # 16b18 <_impure_ptr>
    2aa0:	4d10006f          	j	3770 <_close_r>

00002aa4 <_fclose_r>:
    2aa4:	ff010113          	add	sp,sp,-16
    2aa8:	00112623          	sw	ra,12(sp)
    2aac:	01212023          	sw	s2,0(sp)
    2ab0:	0e058263          	beqz	a1,2b94 <_fclose_r+0xf0>
    2ab4:	00812423          	sw	s0,8(sp)
    2ab8:	00912223          	sw	s1,4(sp)
    2abc:	00058413          	mv	s0,a1
    2ac0:	00050493          	mv	s1,a0
    2ac4:	00050663          	beqz	a0,2ad0 <_fclose_r+0x2c>
    2ac8:	03452783          	lw	a5,52(a0)
    2acc:	10078063          	beqz	a5,2bcc <_fclose_r+0x128>
    2ad0:	06442783          	lw	a5,100(s0)
    2ad4:	00c41703          	lh	a4,12(s0)
    2ad8:	0017f793          	and	a5,a5,1
    2adc:	0a079663          	bnez	a5,2b88 <_fclose_r+0xe4>
    2ae0:	20077713          	and	a4,a4,512
    2ae4:	0e070863          	beqz	a4,2bd4 <_fclose_r+0x130>
    2ae8:	00040593          	mv	a1,s0
    2aec:	00048513          	mv	a0,s1
    2af0:	085000ef          	jal	3374 <__sflush_r>
    2af4:	02c42783          	lw	a5,44(s0)
    2af8:	00050913          	mv	s2,a0
    2afc:	00078a63          	beqz	a5,2b10 <_fclose_r+0x6c>
    2b00:	01c42583          	lw	a1,28(s0)
    2b04:	00048513          	mv	a0,s1
    2b08:	000780e7          	jalr	a5
    2b0c:	0a054063          	bltz	a0,2bac <_fclose_r+0x108>
    2b10:	00c45783          	lhu	a5,12(s0)
    2b14:	0807f793          	and	a5,a5,128
    2b18:	0a079263          	bnez	a5,2bbc <_fclose_r+0x118>
    2b1c:	03042583          	lw	a1,48(s0)
    2b20:	00058c63          	beqz	a1,2b38 <_fclose_r+0x94>
    2b24:	04040793          	add	a5,s0,64
    2b28:	00f58663          	beq	a1,a5,2b34 <_fclose_r+0x90>
    2b2c:	00048513          	mv	a0,s1
    2b30:	53c000ef          	jal	306c <_free_r>
    2b34:	02042823          	sw	zero,48(s0)
    2b38:	04442583          	lw	a1,68(s0)
    2b3c:	00058863          	beqz	a1,2b4c <_fclose_r+0xa8>
    2b40:	00048513          	mv	a0,s1
    2b44:	528000ef          	jal	306c <_free_r>
    2b48:	04042223          	sw	zero,68(s0)
    2b4c:	c6dfe0ef          	jal	17b8 <__sfp_lock_acquire>
    2b50:	06442783          	lw	a5,100(s0)
    2b54:	00041623          	sh	zero,12(s0)
    2b58:	0017f793          	and	a5,a5,1
    2b5c:	0a078663          	beqz	a5,2c08 <_fclose_r+0x164>
    2b60:	05842503          	lw	a0,88(s0)
    2b64:	f11ff0ef          	jal	2a74 <__retarget_lock_close_recursive>
    2b68:	c5dfe0ef          	jal	17c4 <__sfp_lock_release>
    2b6c:	00c12083          	lw	ra,12(sp)
    2b70:	00812403          	lw	s0,8(sp)
    2b74:	00412483          	lw	s1,4(sp)
    2b78:	00090513          	mv	a0,s2
    2b7c:	00012903          	lw	s2,0(sp)
    2b80:	01010113          	add	sp,sp,16
    2b84:	00008067          	ret
    2b88:	f60710e3          	bnez	a4,2ae8 <_fclose_r+0x44>
    2b8c:	00812403          	lw	s0,8(sp)
    2b90:	00412483          	lw	s1,4(sp)
    2b94:	00000913          	li	s2,0
    2b98:	00c12083          	lw	ra,12(sp)
    2b9c:	00090513          	mv	a0,s2
    2ba0:	00012903          	lw	s2,0(sp)
    2ba4:	01010113          	add	sp,sp,16
    2ba8:	00008067          	ret
    2bac:	00c45783          	lhu	a5,12(s0)
    2bb0:	fff00913          	li	s2,-1
    2bb4:	0807f793          	and	a5,a5,128
    2bb8:	f60782e3          	beqz	a5,2b1c <_fclose_r+0x78>
    2bbc:	01042583          	lw	a1,16(s0)
    2bc0:	00048513          	mv	a0,s1
    2bc4:	4a8000ef          	jal	306c <_free_r>
    2bc8:	f55ff06f          	j	2b1c <_fclose_r+0x78>
    2bcc:	b7dfe0ef          	jal	1748 <__sinit>
    2bd0:	f01ff06f          	j	2ad0 <_fclose_r+0x2c>
    2bd4:	05842503          	lw	a0,88(s0)
    2bd8:	ea5ff0ef          	jal	2a7c <__retarget_lock_acquire_recursive>
    2bdc:	00c41783          	lh	a5,12(s0)
    2be0:	f00794e3          	bnez	a5,2ae8 <_fclose_r+0x44>
    2be4:	06442783          	lw	a5,100(s0)
    2be8:	0017f793          	and	a5,a5,1
    2bec:	fa0790e3          	bnez	a5,2b8c <_fclose_r+0xe8>
    2bf0:	05842503          	lw	a0,88(s0)
    2bf4:	00000913          	li	s2,0
    2bf8:	e9dff0ef          	jal	2a94 <__retarget_lock_release_recursive>
    2bfc:	00812403          	lw	s0,8(sp)
    2c00:	00412483          	lw	s1,4(sp)
    2c04:	f95ff06f          	j	2b98 <_fclose_r+0xf4>
    2c08:	05842503          	lw	a0,88(s0)
    2c0c:	e89ff0ef          	jal	2a94 <__retarget_lock_release_recursive>
    2c10:	f51ff06f          	j	2b60 <_fclose_r+0xbc>

00002c14 <fclose>:
    2c14:	00050593          	mv	a1,a0
    2c18:	8201a503          	lw	a0,-2016(gp) # 16b18 <_impure_ptr>
    2c1c:	e89ff06f          	j	2aa4 <_fclose_r>

00002c20 <memset>:
    2c20:	00f00313          	li	t1,15
    2c24:	00050713          	mv	a4,a0
    2c28:	02c37e63          	bgeu	t1,a2,2c64 <memset+0x44>
    2c2c:	00f77793          	and	a5,a4,15
    2c30:	0a079063          	bnez	a5,2cd0 <memset+0xb0>
    2c34:	08059263          	bnez	a1,2cb8 <memset+0x98>
    2c38:	ff067693          	and	a3,a2,-16
    2c3c:	00f67613          	and	a2,a2,15
    2c40:	00e686b3          	add	a3,a3,a4
    2c44:	00b72023          	sw	a1,0(a4) # ffffe000 <__alt_data_end+0xfbffe000>
    2c48:	00b72223          	sw	a1,4(a4)
    2c4c:	00b72423          	sw	a1,8(a4)
    2c50:	00b72623          	sw	a1,12(a4)
    2c54:	01070713          	add	a4,a4,16
    2c58:	fed766e3          	bltu	a4,a3,2c44 <memset+0x24>
    2c5c:	00061463          	bnez	a2,2c64 <memset+0x44>
    2c60:	00008067          	ret
    2c64:	40c306b3          	sub	a3,t1,a2
    2c68:	00269693          	sll	a3,a3,0x2
    2c6c:	00000297          	auipc	t0,0x0
    2c70:	005686b3          	add	a3,a3,t0
    2c74:	00c68067          	jr	12(a3)
    2c78:	00b70723          	sb	a1,14(a4)
    2c7c:	00b706a3          	sb	a1,13(a4)
    2c80:	00b70623          	sb	a1,12(a4)
    2c84:	00b705a3          	sb	a1,11(a4)
    2c88:	00b70523          	sb	a1,10(a4)
    2c8c:	00b704a3          	sb	a1,9(a4)
    2c90:	00b70423          	sb	a1,8(a4)
    2c94:	00b703a3          	sb	a1,7(a4)
    2c98:	00b70323          	sb	a1,6(a4)
    2c9c:	00b702a3          	sb	a1,5(a4)
    2ca0:	00b70223          	sb	a1,4(a4)
    2ca4:	00b701a3          	sb	a1,3(a4)
    2ca8:	00b70123          	sb	a1,2(a4)
    2cac:	00b700a3          	sb	a1,1(a4)
    2cb0:	00b70023          	sb	a1,0(a4)
    2cb4:	00008067          	ret
    2cb8:	0ff5f593          	zext.b	a1,a1
    2cbc:	00859693          	sll	a3,a1,0x8
    2cc0:	00d5e5b3          	or	a1,a1,a3
    2cc4:	01059693          	sll	a3,a1,0x10
    2cc8:	00d5e5b3          	or	a1,a1,a3
    2ccc:	f6dff06f          	j	2c38 <memset+0x18>
    2cd0:	00279693          	sll	a3,a5,0x2
    2cd4:	00000297          	auipc	t0,0x0
    2cd8:	005686b3          	add	a3,a3,t0
    2cdc:	00008293          	mv	t0,ra
    2ce0:	fa0680e7          	jalr	-96(a3)
    2ce4:	00028093          	mv	ra,t0
    2ce8:	ff078793          	add	a5,a5,-16
    2cec:	40f70733          	sub	a4,a4,a5
    2cf0:	00f60633          	add	a2,a2,a5
    2cf4:	f6c378e3          	bgeu	t1,a2,2c64 <memset+0x44>
    2cf8:	f3dff06f          	j	2c34 <memset+0x14>

00002cfc <memcpy>:
    2cfc:	00a5c7b3          	xor	a5,a1,a0
    2d00:	0037f793          	and	a5,a5,3
    2d04:	00c508b3          	add	a7,a0,a2
    2d08:	06079463          	bnez	a5,2d70 <memcpy+0x74>
    2d0c:	00300793          	li	a5,3
    2d10:	06c7f063          	bgeu	a5,a2,2d70 <memcpy+0x74>
    2d14:	00357793          	and	a5,a0,3
    2d18:	00050713          	mv	a4,a0
    2d1c:	06079a63          	bnez	a5,2d90 <memcpy+0x94>
    2d20:	ffc8f613          	and	a2,a7,-4
    2d24:	40e606b3          	sub	a3,a2,a4
    2d28:	02000793          	li	a5,32
    2d2c:	08d7ce63          	blt	a5,a3,2dc8 <memcpy+0xcc>
    2d30:	00058693          	mv	a3,a1
    2d34:	00070793          	mv	a5,a4
    2d38:	02c77863          	bgeu	a4,a2,2d68 <memcpy+0x6c>
    2d3c:	0006a803          	lw	a6,0(a3)
    2d40:	00478793          	add	a5,a5,4
    2d44:	00468693          	add	a3,a3,4
    2d48:	ff07ae23          	sw	a6,-4(a5)
    2d4c:	fec7e8e3          	bltu	a5,a2,2d3c <memcpy+0x40>
    2d50:	fff60793          	add	a5,a2,-1
    2d54:	40e787b3          	sub	a5,a5,a4
    2d58:	ffc7f793          	and	a5,a5,-4
    2d5c:	00478793          	add	a5,a5,4
    2d60:	00f70733          	add	a4,a4,a5
    2d64:	00f585b3          	add	a1,a1,a5
    2d68:	01176863          	bltu	a4,a7,2d78 <memcpy+0x7c>
    2d6c:	00008067          	ret
    2d70:	00050713          	mv	a4,a0
    2d74:	05157863          	bgeu	a0,a7,2dc4 <memcpy+0xc8>
    2d78:	0005c783          	lbu	a5,0(a1)
    2d7c:	00170713          	add	a4,a4,1
    2d80:	00158593          	add	a1,a1,1
    2d84:	fef70fa3          	sb	a5,-1(a4)
    2d88:	fee898e3          	bne	a7,a4,2d78 <memcpy+0x7c>
    2d8c:	00008067          	ret
    2d90:	0005c683          	lbu	a3,0(a1)
    2d94:	00170713          	add	a4,a4,1
    2d98:	00377793          	and	a5,a4,3
    2d9c:	fed70fa3          	sb	a3,-1(a4)
    2da0:	00158593          	add	a1,a1,1
    2da4:	f6078ee3          	beqz	a5,2d20 <memcpy+0x24>
    2da8:	0005c683          	lbu	a3,0(a1)
    2dac:	00170713          	add	a4,a4,1
    2db0:	00377793          	and	a5,a4,3
    2db4:	fed70fa3          	sb	a3,-1(a4)
    2db8:	00158593          	add	a1,a1,1
    2dbc:	fc079ae3          	bnez	a5,2d90 <memcpy+0x94>
    2dc0:	f61ff06f          	j	2d20 <memcpy+0x24>
    2dc4:	00008067          	ret
    2dc8:	ff010113          	add	sp,sp,-16
    2dcc:	00812623          	sw	s0,12(sp)
    2dd0:	02000413          	li	s0,32
    2dd4:	0005a383          	lw	t2,0(a1)
    2dd8:	0045a283          	lw	t0,4(a1)
    2ddc:	0085af83          	lw	t6,8(a1)
    2de0:	00c5af03          	lw	t5,12(a1)
    2de4:	0105ae83          	lw	t4,16(a1)
    2de8:	0145ae03          	lw	t3,20(a1)
    2dec:	0185a303          	lw	t1,24(a1)
    2df0:	01c5a803          	lw	a6,28(a1)
    2df4:	0205a683          	lw	a3,32(a1)
    2df8:	02470713          	add	a4,a4,36
    2dfc:	40e607b3          	sub	a5,a2,a4
    2e00:	fc772e23          	sw	t2,-36(a4)
    2e04:	fe572023          	sw	t0,-32(a4)
    2e08:	fff72223          	sw	t6,-28(a4)
    2e0c:	ffe72423          	sw	t5,-24(a4)
    2e10:	ffd72623          	sw	t4,-20(a4)
    2e14:	ffc72823          	sw	t3,-16(a4)
    2e18:	fe672a23          	sw	t1,-12(a4)
    2e1c:	ff072c23          	sw	a6,-8(a4)
    2e20:	fed72e23          	sw	a3,-4(a4)
    2e24:	02458593          	add	a1,a1,36
    2e28:	faf446e3          	blt	s0,a5,2dd4 <memcpy+0xd8>
    2e2c:	00058693          	mv	a3,a1
    2e30:	00070793          	mv	a5,a4
    2e34:	02c77863          	bgeu	a4,a2,2e64 <memcpy+0x168>
    2e38:	0006a803          	lw	a6,0(a3)
    2e3c:	00478793          	add	a5,a5,4
    2e40:	00468693          	add	a3,a3,4
    2e44:	ff07ae23          	sw	a6,-4(a5)
    2e48:	fec7e8e3          	bltu	a5,a2,2e38 <memcpy+0x13c>
    2e4c:	fff60793          	add	a5,a2,-1
    2e50:	40e787b3          	sub	a5,a5,a4
    2e54:	ffc7f793          	and	a5,a5,-4
    2e58:	00478793          	add	a5,a5,4
    2e5c:	00f70733          	add	a4,a4,a5
    2e60:	00f585b3          	add	a1,a1,a5
    2e64:	01176863          	bltu	a4,a7,2e74 <memcpy+0x178>
    2e68:	00c12403          	lw	s0,12(sp)
    2e6c:	01010113          	add	sp,sp,16
    2e70:	00008067          	ret
    2e74:	0005c783          	lbu	a5,0(a1)
    2e78:	00170713          	add	a4,a4,1
    2e7c:	00158593          	add	a1,a1,1
    2e80:	fef70fa3          	sb	a5,-1(a4)
    2e84:	fee882e3          	beq	a7,a4,2e68 <memcpy+0x16c>
    2e88:	0005c783          	lbu	a5,0(a1)
    2e8c:	00170713          	add	a4,a4,1
    2e90:	00158593          	add	a1,a1,1
    2e94:	fef70fa3          	sb	a5,-1(a4)
    2e98:	fce89ee3          	bne	a7,a4,2e74 <memcpy+0x178>
    2e9c:	fcdff06f          	j	2e68 <memcpy+0x16c>

00002ea0 <_printf_r>:
    2ea0:	fc010113          	add	sp,sp,-64
    2ea4:	02c12423          	sw	a2,40(sp)
    2ea8:	02d12623          	sw	a3,44(sp)
    2eac:	02e12823          	sw	a4,48(sp)
    2eb0:	02f12a23          	sw	a5,52(sp)
    2eb4:	03012c23          	sw	a6,56(sp)
    2eb8:	03112e23          	sw	a7,60(sp)
    2ebc:	00058613          	mv	a2,a1
    2ec0:	00852583          	lw	a1,8(a0)
    2ec4:	02810693          	add	a3,sp,40
    2ec8:	00112e23          	sw	ra,28(sp)
    2ecc:	00d12623          	sw	a3,12(sp)
    2ed0:	279000ef          	jal	3948 <_vfprintf_r>
    2ed4:	01c12083          	lw	ra,28(sp)
    2ed8:	04010113          	add	sp,sp,64
    2edc:	00008067          	ret

00002ee0 <printf>:
    2ee0:	fc010113          	add	sp,sp,-64
    2ee4:	02c12423          	sw	a2,40(sp)
    2ee8:	02d12623          	sw	a3,44(sp)
    2eec:	8201a303          	lw	t1,-2016(gp) # 16b18 <_impure_ptr>
    2ef0:	02b12223          	sw	a1,36(sp)
    2ef4:	02e12823          	sw	a4,48(sp)
    2ef8:	02f12a23          	sw	a5,52(sp)
    2efc:	03012c23          	sw	a6,56(sp)
    2f00:	03112e23          	sw	a7,60(sp)
    2f04:	00832583          	lw	a1,8(t1)
    2f08:	02410693          	add	a3,sp,36
    2f0c:	00050613          	mv	a2,a0
    2f10:	00030513          	mv	a0,t1
    2f14:	00112e23          	sw	ra,28(sp)
    2f18:	00d12623          	sw	a3,12(sp)
    2f1c:	22d000ef          	jal	3948 <_vfprintf_r>
    2f20:	01c12083          	lw	ra,28(sp)
    2f24:	04010113          	add	sp,sp,64
    2f28:	00008067          	ret

00002f2c <_malloc_trim_r>:
    2f2c:	fe010113          	add	sp,sp,-32
    2f30:	00812c23          	sw	s0,24(sp)
    2f34:	00912a23          	sw	s1,20(sp)
    2f38:	01212823          	sw	s2,16(sp)
    2f3c:	01312623          	sw	s3,12(sp)
    2f40:	01412423          	sw	s4,8(sp)
    2f44:	00058993          	mv	s3,a1
    2f48:	00112e23          	sw	ra,28(sp)
    2f4c:	00050913          	mv	s2,a0
    2f50:	00013a17          	auipc	s4,0x13
    2f54:	634a0a13          	add	s4,s4,1588 # 16584 <__malloc_av_>
    2f58:	a89ff0ef          	jal	29e0 <__malloc_lock>
    2f5c:	008a2703          	lw	a4,8(s4)
    2f60:	000017b7          	lui	a5,0x1
    2f64:	fef78793          	add	a5,a5,-17 # fef <alt_tick+0xc7>
    2f68:	00472483          	lw	s1,4(a4)
    2f6c:	00001737          	lui	a4,0x1
    2f70:	ffc4f493          	and	s1,s1,-4
    2f74:	00f48433          	add	s0,s1,a5
    2f78:	41340433          	sub	s0,s0,s3
    2f7c:	00c45413          	srl	s0,s0,0xc
    2f80:	fff40413          	add	s0,s0,-1
    2f84:	00c41413          	sll	s0,s0,0xc
    2f88:	00e44e63          	blt	s0,a4,2fa4 <_malloc_trim_r+0x78>
    2f8c:	00000593          	li	a1,0
    2f90:	00090513          	mv	a0,s2
    2f94:	f20ff0ef          	jal	26b4 <_sbrk_r>
    2f98:	008a2783          	lw	a5,8(s4)
    2f9c:	009787b3          	add	a5,a5,s1
    2fa0:	02f50863          	beq	a0,a5,2fd0 <_malloc_trim_r+0xa4>
    2fa4:	00090513          	mv	a0,s2
    2fa8:	a45ff0ef          	jal	29ec <__malloc_unlock>
    2fac:	01c12083          	lw	ra,28(sp)
    2fb0:	01812403          	lw	s0,24(sp)
    2fb4:	01412483          	lw	s1,20(sp)
    2fb8:	01012903          	lw	s2,16(sp)
    2fbc:	00c12983          	lw	s3,12(sp)
    2fc0:	00812a03          	lw	s4,8(sp)
    2fc4:	00000513          	li	a0,0
    2fc8:	02010113          	add	sp,sp,32
    2fcc:	00008067          	ret
    2fd0:	408005b3          	neg	a1,s0
    2fd4:	00090513          	mv	a0,s2
    2fd8:	edcff0ef          	jal	26b4 <_sbrk_r>
    2fdc:	fff00793          	li	a5,-1
    2fe0:	04f50a63          	beq	a0,a5,3034 <_malloc_trim_r+0x108>
    2fe4:	00015717          	auipc	a4,0x15
    2fe8:	66470713          	add	a4,a4,1636 # 18648 <__malloc_current_mallinfo>
    2fec:	00072783          	lw	a5,0(a4)
    2ff0:	008a2683          	lw	a3,8(s4)
    2ff4:	408484b3          	sub	s1,s1,s0
    2ff8:	0014e493          	or	s1,s1,1
    2ffc:	408787b3          	sub	a5,a5,s0
    3000:	00090513          	mv	a0,s2
    3004:	0096a223          	sw	s1,4(a3)
    3008:	00f72023          	sw	a5,0(a4)
    300c:	9e1ff0ef          	jal	29ec <__malloc_unlock>
    3010:	01c12083          	lw	ra,28(sp)
    3014:	01812403          	lw	s0,24(sp)
    3018:	01412483          	lw	s1,20(sp)
    301c:	01012903          	lw	s2,16(sp)
    3020:	00c12983          	lw	s3,12(sp)
    3024:	00812a03          	lw	s4,8(sp)
    3028:	00100513          	li	a0,1
    302c:	02010113          	add	sp,sp,32
    3030:	00008067          	ret
    3034:	00000593          	li	a1,0
    3038:	00090513          	mv	a0,s2
    303c:	e78ff0ef          	jal	26b4 <_sbrk_r>
    3040:	008a2703          	lw	a4,8(s4)
    3044:	00f00693          	li	a3,15
    3048:	40e507b3          	sub	a5,a0,a4
    304c:	f4f6dce3          	bge	a3,a5,2fa4 <_malloc_trim_r+0x78>
    3050:	8241a683          	lw	a3,-2012(gp) # 16b1c <__malloc_sbrk_base>
    3054:	40d50533          	sub	a0,a0,a3
    3058:	0017e793          	or	a5,a5,1
    305c:	00015697          	auipc	a3,0x15
    3060:	5ea6a623          	sw	a0,1516(a3) # 18648 <__malloc_current_mallinfo>
    3064:	00f72223          	sw	a5,4(a4)
    3068:	f3dff06f          	j	2fa4 <_malloc_trim_r+0x78>

0000306c <_free_r>:
    306c:	18058263          	beqz	a1,31f0 <_free_r+0x184>
    3070:	ff010113          	add	sp,sp,-16
    3074:	00812423          	sw	s0,8(sp)
    3078:	00912223          	sw	s1,4(sp)
    307c:	00058413          	mv	s0,a1
    3080:	00050493          	mv	s1,a0
    3084:	00112623          	sw	ra,12(sp)
    3088:	959ff0ef          	jal	29e0 <__malloc_lock>
    308c:	ffc42583          	lw	a1,-4(s0)
    3090:	ff840713          	add	a4,s0,-8
    3094:	00013517          	auipc	a0,0x13
    3098:	4f050513          	add	a0,a0,1264 # 16584 <__malloc_av_>
    309c:	ffe5f793          	and	a5,a1,-2
    30a0:	00f70633          	add	a2,a4,a5
    30a4:	00462683          	lw	a3,4(a2)
    30a8:	00852803          	lw	a6,8(a0)
    30ac:	ffc6f693          	and	a3,a3,-4
    30b0:	1ac80263          	beq	a6,a2,3254 <_free_r+0x1e8>
    30b4:	00d62223          	sw	a3,4(a2)
    30b8:	0015f593          	and	a1,a1,1
    30bc:	00d60833          	add	a6,a2,a3
    30c0:	0a059063          	bnez	a1,3160 <_free_r+0xf4>
    30c4:	ff842303          	lw	t1,-8(s0)
    30c8:	00482583          	lw	a1,4(a6)
    30cc:	00013897          	auipc	a7,0x13
    30d0:	4c088893          	add	a7,a7,1216 # 1658c <__malloc_av_+0x8>
    30d4:	40670733          	sub	a4,a4,t1
    30d8:	00872803          	lw	a6,8(a4)
    30dc:	006787b3          	add	a5,a5,t1
    30e0:	0015f593          	and	a1,a1,1
    30e4:	15180263          	beq	a6,a7,3228 <_free_r+0x1bc>
    30e8:	00c72303          	lw	t1,12(a4)
    30ec:	00682623          	sw	t1,12(a6)
    30f0:	01032423          	sw	a6,8(t1)
    30f4:	1a058863          	beqz	a1,32a4 <_free_r+0x238>
    30f8:	0017e693          	or	a3,a5,1
    30fc:	00d72223          	sw	a3,4(a4)
    3100:	00f62023          	sw	a5,0(a2)
    3104:	1ff00693          	li	a3,511
    3108:	06f6ec63          	bltu	a3,a5,3180 <_free_r+0x114>
    310c:	ff87f693          	and	a3,a5,-8
    3110:	00868693          	add	a3,a3,8
    3114:	00452583          	lw	a1,4(a0)
    3118:	00d506b3          	add	a3,a0,a3
    311c:	0006a603          	lw	a2,0(a3)
    3120:	0057d813          	srl	a6,a5,0x5
    3124:	00100793          	li	a5,1
    3128:	010797b3          	sll	a5,a5,a6
    312c:	00b7e7b3          	or	a5,a5,a1
    3130:	ff868593          	add	a1,a3,-8
    3134:	00b72623          	sw	a1,12(a4)
    3138:	00c72423          	sw	a2,8(a4)
    313c:	00f52223          	sw	a5,4(a0)
    3140:	00e6a023          	sw	a4,0(a3)
    3144:	00e62623          	sw	a4,12(a2)
    3148:	00812403          	lw	s0,8(sp)
    314c:	00c12083          	lw	ra,12(sp)
    3150:	00048513          	mv	a0,s1
    3154:	00412483          	lw	s1,4(sp)
    3158:	01010113          	add	sp,sp,16
    315c:	891ff06f          	j	29ec <__malloc_unlock>
    3160:	00482583          	lw	a1,4(a6)
    3164:	0015f593          	and	a1,a1,1
    3168:	08058663          	beqz	a1,31f4 <_free_r+0x188>
    316c:	0017e693          	or	a3,a5,1
    3170:	fed42e23          	sw	a3,-4(s0)
    3174:	00f62023          	sw	a5,0(a2)
    3178:	1ff00693          	li	a3,511
    317c:	f8f6f8e3          	bgeu	a3,a5,310c <_free_r+0xa0>
    3180:	0097d693          	srl	a3,a5,0x9
    3184:	00400613          	li	a2,4
    3188:	12d66263          	bltu	a2,a3,32ac <_free_r+0x240>
    318c:	0067d693          	srl	a3,a5,0x6
    3190:	03968593          	add	a1,a3,57
    3194:	03868613          	add	a2,a3,56
    3198:	00359593          	sll	a1,a1,0x3
    319c:	00b505b3          	add	a1,a0,a1
    31a0:	0005a683          	lw	a3,0(a1)
    31a4:	ff858593          	add	a1,a1,-8
    31a8:	00d59863          	bne	a1,a3,31b8 <_free_r+0x14c>
    31ac:	1580006f          	j	3304 <_free_r+0x298>
    31b0:	0086a683          	lw	a3,8(a3)
    31b4:	00d58863          	beq	a1,a3,31c4 <_free_r+0x158>
    31b8:	0046a603          	lw	a2,4(a3)
    31bc:	ffc67613          	and	a2,a2,-4
    31c0:	fec7e8e3          	bltu	a5,a2,31b0 <_free_r+0x144>
    31c4:	00c6a583          	lw	a1,12(a3)
    31c8:	00b72623          	sw	a1,12(a4)
    31cc:	00d72423          	sw	a3,8(a4)
    31d0:	00812403          	lw	s0,8(sp)
    31d4:	00c12083          	lw	ra,12(sp)
    31d8:	00e5a423          	sw	a4,8(a1)
    31dc:	00048513          	mv	a0,s1
    31e0:	00412483          	lw	s1,4(sp)
    31e4:	00e6a623          	sw	a4,12(a3)
    31e8:	01010113          	add	sp,sp,16
    31ec:	801ff06f          	j	29ec <__malloc_unlock>
    31f0:	00008067          	ret
    31f4:	00d787b3          	add	a5,a5,a3
    31f8:	00013897          	auipc	a7,0x13
    31fc:	39488893          	add	a7,a7,916 # 1658c <__malloc_av_+0x8>
    3200:	00862683          	lw	a3,8(a2)
    3204:	0d168e63          	beq	a3,a7,32e0 <_free_r+0x274>
    3208:	00c62803          	lw	a6,12(a2)
    320c:	0017e593          	or	a1,a5,1
    3210:	00f70633          	add	a2,a4,a5
    3214:	0106a623          	sw	a6,12(a3)
    3218:	00d82423          	sw	a3,8(a6)
    321c:	00b72223          	sw	a1,4(a4)
    3220:	00f62023          	sw	a5,0(a2)
    3224:	ee1ff06f          	j	3104 <_free_r+0x98>
    3228:	12059e63          	bnez	a1,3364 <_free_r+0x2f8>
    322c:	00862583          	lw	a1,8(a2)
    3230:	00c62603          	lw	a2,12(a2)
    3234:	00f686b3          	add	a3,a3,a5
    3238:	0016e793          	or	a5,a3,1
    323c:	00c5a623          	sw	a2,12(a1)
    3240:	00b62423          	sw	a1,8(a2)
    3244:	00f72223          	sw	a5,4(a4)
    3248:	00d70733          	add	a4,a4,a3
    324c:	00d72023          	sw	a3,0(a4)
    3250:	ef9ff06f          	j	3148 <_free_r+0xdc>
    3254:	0015f593          	and	a1,a1,1
    3258:	00d786b3          	add	a3,a5,a3
    325c:	02059063          	bnez	a1,327c <_free_r+0x210>
    3260:	ff842583          	lw	a1,-8(s0)
    3264:	40b70733          	sub	a4,a4,a1
    3268:	00c72783          	lw	a5,12(a4)
    326c:	00872603          	lw	a2,8(a4)
    3270:	00b686b3          	add	a3,a3,a1
    3274:	00f62623          	sw	a5,12(a2)
    3278:	00c7a423          	sw	a2,8(a5)
    327c:	0016e793          	or	a5,a3,1
    3280:	00f72223          	sw	a5,4(a4)
    3284:	00e52423          	sw	a4,8(a0)
    3288:	8281a783          	lw	a5,-2008(gp) # 16b20 <__malloc_trim_threshold>
    328c:	eaf6eee3          	bltu	a3,a5,3148 <_free_r+0xdc>
    3290:	00015597          	auipc	a1,0x15
    3294:	1d05a583          	lw	a1,464(a1) # 18460 <__malloc_top_pad>
    3298:	00048513          	mv	a0,s1
    329c:	c91ff0ef          	jal	2f2c <_malloc_trim_r>
    32a0:	ea9ff06f          	j	3148 <_free_r+0xdc>
    32a4:	00d787b3          	add	a5,a5,a3
    32a8:	f59ff06f          	j	3200 <_free_r+0x194>
    32ac:	01400613          	li	a2,20
    32b0:	02d67063          	bgeu	a2,a3,32d0 <_free_r+0x264>
    32b4:	05400613          	li	a2,84
    32b8:	06d66463          	bltu	a2,a3,3320 <_free_r+0x2b4>
    32bc:	00c7d693          	srl	a3,a5,0xc
    32c0:	06f68593          	add	a1,a3,111
    32c4:	06e68613          	add	a2,a3,110
    32c8:	00359593          	sll	a1,a1,0x3
    32cc:	ed1ff06f          	j	319c <_free_r+0x130>
    32d0:	05c68593          	add	a1,a3,92
    32d4:	05b68613          	add	a2,a3,91
    32d8:	00359593          	sll	a1,a1,0x3
    32dc:	ec1ff06f          	j	319c <_free_r+0x130>
    32e0:	00e52a23          	sw	a4,20(a0)
    32e4:	00e52823          	sw	a4,16(a0)
    32e8:	0017e693          	or	a3,a5,1
    32ec:	01172623          	sw	a7,12(a4)
    32f0:	01172423          	sw	a7,8(a4)
    32f4:	00d72223          	sw	a3,4(a4)
    32f8:	00f70733          	add	a4,a4,a5
    32fc:	00f72023          	sw	a5,0(a4)
    3300:	e49ff06f          	j	3148 <_free_r+0xdc>
    3304:	00452803          	lw	a6,4(a0)
    3308:	40265613          	sra	a2,a2,0x2
    330c:	00100793          	li	a5,1
    3310:	00c797b3          	sll	a5,a5,a2
    3314:	0107e7b3          	or	a5,a5,a6
    3318:	00f52223          	sw	a5,4(a0)
    331c:	eadff06f          	j	31c8 <_free_r+0x15c>
    3320:	15400613          	li	a2,340
    3324:	00d66c63          	bltu	a2,a3,333c <_free_r+0x2d0>
    3328:	00f7d693          	srl	a3,a5,0xf
    332c:	07868593          	add	a1,a3,120
    3330:	07768613          	add	a2,a3,119
    3334:	00359593          	sll	a1,a1,0x3
    3338:	e65ff06f          	j	319c <_free_r+0x130>
    333c:	55400613          	li	a2,1364
    3340:	00d66c63          	bltu	a2,a3,3358 <_free_r+0x2ec>
    3344:	0127d693          	srl	a3,a5,0x12
    3348:	07d68593          	add	a1,a3,125
    334c:	07c68613          	add	a2,a3,124
    3350:	00359593          	sll	a1,a1,0x3
    3354:	e49ff06f          	j	319c <_free_r+0x130>
    3358:	3f800593          	li	a1,1016
    335c:	07e00613          	li	a2,126
    3360:	e3dff06f          	j	319c <_free_r+0x130>
    3364:	0017e693          	or	a3,a5,1
    3368:	00d72223          	sw	a3,4(a4)
    336c:	00f62023          	sw	a5,0(a2)
    3370:	dd9ff06f          	j	3148 <_free_r+0xdc>

00003374 <__sflush_r>:
    3374:	00c59703          	lh	a4,12(a1)
    3378:	fe010113          	add	sp,sp,-32
    337c:	00812c23          	sw	s0,24(sp)
    3380:	01312623          	sw	s3,12(sp)
    3384:	00112e23          	sw	ra,28(sp)
    3388:	00877793          	and	a5,a4,8
    338c:	00058413          	mv	s0,a1
    3390:	00050993          	mv	s3,a0
    3394:	12079063          	bnez	a5,34b4 <__sflush_r+0x140>
    3398:	000017b7          	lui	a5,0x1
    339c:	80078793          	add	a5,a5,-2048 # 800 <altera_avalon_jtag_uart_ioctl+0x68>
    33a0:	0045a683          	lw	a3,4(a1)
    33a4:	00f767b3          	or	a5,a4,a5
    33a8:	00f59623          	sh	a5,12(a1)
    33ac:	18d05263          	blez	a3,3530 <__sflush_r+0x1bc>
    33b0:	02842803          	lw	a6,40(s0)
    33b4:	0e080463          	beqz	a6,349c <__sflush_r+0x128>
    33b8:	00912a23          	sw	s1,20(sp)
    33bc:	01371693          	sll	a3,a4,0x13
    33c0:	0009a483          	lw	s1,0(s3)
    33c4:	0009a023          	sw	zero,0(s3)
    33c8:	01c42583          	lw	a1,28(s0)
    33cc:	1606ce63          	bltz	a3,3548 <__sflush_r+0x1d4>
    33d0:	00000613          	li	a2,0
    33d4:	00100693          	li	a3,1
    33d8:	00098513          	mv	a0,s3
    33dc:	000800e7          	jalr	a6
    33e0:	fff00793          	li	a5,-1
    33e4:	00050613          	mv	a2,a0
    33e8:	1af50463          	beq	a0,a5,3590 <__sflush_r+0x21c>
    33ec:	00c41783          	lh	a5,12(s0)
    33f0:	02842803          	lw	a6,40(s0)
    33f4:	01c42583          	lw	a1,28(s0)
    33f8:	0047f793          	and	a5,a5,4
    33fc:	00078e63          	beqz	a5,3418 <__sflush_r+0xa4>
    3400:	00442703          	lw	a4,4(s0)
    3404:	03042783          	lw	a5,48(s0)
    3408:	40e60633          	sub	a2,a2,a4
    340c:	00078663          	beqz	a5,3418 <__sflush_r+0xa4>
    3410:	03c42783          	lw	a5,60(s0)
    3414:	40f60633          	sub	a2,a2,a5
    3418:	00000693          	li	a3,0
    341c:	00098513          	mv	a0,s3
    3420:	000800e7          	jalr	a6
    3424:	fff00793          	li	a5,-1
    3428:	12f51463          	bne	a0,a5,3550 <__sflush_r+0x1dc>
    342c:	0009a683          	lw	a3,0(s3)
    3430:	01d00793          	li	a5,29
    3434:	00c41703          	lh	a4,12(s0)
    3438:	16d7ea63          	bltu	a5,a3,35ac <__sflush_r+0x238>
    343c:	204007b7          	lui	a5,0x20400
    3440:	00178793          	add	a5,a5,1 # 20400001 <__alt_data_end+0x1c400001>
    3444:	00d7d7b3          	srl	a5,a5,a3
    3448:	0017f793          	and	a5,a5,1
    344c:	16078063          	beqz	a5,35ac <__sflush_r+0x238>
    3450:	01042603          	lw	a2,16(s0)
    3454:	fffff7b7          	lui	a5,0xfffff
    3458:	7ff78793          	add	a5,a5,2047 # fffff7ff <__alt_data_end+0xfbfff7ff>
    345c:	00f777b3          	and	a5,a4,a5
    3460:	00f41623          	sh	a5,12(s0)
    3464:	00042223          	sw	zero,4(s0)
    3468:	00c42023          	sw	a2,0(s0)
    346c:	01371793          	sll	a5,a4,0x13
    3470:	0007d463          	bgez	a5,3478 <__sflush_r+0x104>
    3474:	10068263          	beqz	a3,3578 <__sflush_r+0x204>
    3478:	03042583          	lw	a1,48(s0)
    347c:	0099a023          	sw	s1,0(s3)
    3480:	10058463          	beqz	a1,3588 <__sflush_r+0x214>
    3484:	04040793          	add	a5,s0,64
    3488:	00f58663          	beq	a1,a5,3494 <__sflush_r+0x120>
    348c:	00098513          	mv	a0,s3
    3490:	bddff0ef          	jal	306c <_free_r>
    3494:	01412483          	lw	s1,20(sp)
    3498:	02042823          	sw	zero,48(s0)
    349c:	00000513          	li	a0,0
    34a0:	01c12083          	lw	ra,28(sp)
    34a4:	01812403          	lw	s0,24(sp)
    34a8:	00c12983          	lw	s3,12(sp)
    34ac:	02010113          	add	sp,sp,32
    34b0:	00008067          	ret
    34b4:	01212823          	sw	s2,16(sp)
    34b8:	0105a903          	lw	s2,16(a1)
    34bc:	08090263          	beqz	s2,3540 <__sflush_r+0x1cc>
    34c0:	00912a23          	sw	s1,20(sp)
    34c4:	0005a483          	lw	s1,0(a1)
    34c8:	00377713          	and	a4,a4,3
    34cc:	0125a023          	sw	s2,0(a1)
    34d0:	412484b3          	sub	s1,s1,s2
    34d4:	00000793          	li	a5,0
    34d8:	00071463          	bnez	a4,34e0 <__sflush_r+0x16c>
    34dc:	0145a783          	lw	a5,20(a1)
    34e0:	00f42423          	sw	a5,8(s0)
    34e4:	00904863          	bgtz	s1,34f4 <__sflush_r+0x180>
    34e8:	0540006f          	j	353c <__sflush_r+0x1c8>
    34ec:	00a90933          	add	s2,s2,a0
    34f0:	04905663          	blez	s1,353c <__sflush_r+0x1c8>
    34f4:	02442783          	lw	a5,36(s0)
    34f8:	01c42583          	lw	a1,28(s0)
    34fc:	00048693          	mv	a3,s1
    3500:	00090613          	mv	a2,s2
    3504:	00098513          	mv	a0,s3
    3508:	000780e7          	jalr	a5
    350c:	40a484b3          	sub	s1,s1,a0
    3510:	fca04ee3          	bgtz	a0,34ec <__sflush_r+0x178>
    3514:	00c41703          	lh	a4,12(s0)
    3518:	01012903          	lw	s2,16(sp)
    351c:	04076713          	or	a4,a4,64
    3520:	01412483          	lw	s1,20(sp)
    3524:	00e41623          	sh	a4,12(s0)
    3528:	fff00513          	li	a0,-1
    352c:	f75ff06f          	j	34a0 <__sflush_r+0x12c>
    3530:	03c5a683          	lw	a3,60(a1)
    3534:	e6d04ee3          	bgtz	a3,33b0 <__sflush_r+0x3c>
    3538:	f65ff06f          	j	349c <__sflush_r+0x128>
    353c:	01412483          	lw	s1,20(sp)
    3540:	01012903          	lw	s2,16(sp)
    3544:	f59ff06f          	j	349c <__sflush_r+0x128>
    3548:	05042603          	lw	a2,80(s0)
    354c:	eadff06f          	j	33f8 <__sflush_r+0x84>
    3550:	00c41703          	lh	a4,12(s0)
    3554:	01042683          	lw	a3,16(s0)
    3558:	fffff7b7          	lui	a5,0xfffff
    355c:	7ff78793          	add	a5,a5,2047 # fffff7ff <__alt_data_end+0xfbfff7ff>
    3560:	00f777b3          	and	a5,a4,a5
    3564:	00f41623          	sh	a5,12(s0)
    3568:	00042223          	sw	zero,4(s0)
    356c:	00d42023          	sw	a3,0(s0)
    3570:	01371793          	sll	a5,a4,0x13
    3574:	f007d2e3          	bgez	a5,3478 <__sflush_r+0x104>
    3578:	03042583          	lw	a1,48(s0)
    357c:	04a42823          	sw	a0,80(s0)
    3580:	0099a023          	sw	s1,0(s3)
    3584:	f00590e3          	bnez	a1,3484 <__sflush_r+0x110>
    3588:	01412483          	lw	s1,20(sp)
    358c:	f11ff06f          	j	349c <__sflush_r+0x128>
    3590:	0009a783          	lw	a5,0(s3)
    3594:	e4078ce3          	beqz	a5,33ec <__sflush_r+0x78>
    3598:	01d00713          	li	a4,29
    359c:	00e78c63          	beq	a5,a4,35b4 <__sflush_r+0x240>
    35a0:	01600713          	li	a4,22
    35a4:	00e78863          	beq	a5,a4,35b4 <__sflush_r+0x240>
    35a8:	00c41703          	lh	a4,12(s0)
    35ac:	04076713          	or	a4,a4,64
    35b0:	f71ff06f          	j	3520 <__sflush_r+0x1ac>
    35b4:	0099a023          	sw	s1,0(s3)
    35b8:	01412483          	lw	s1,20(sp)
    35bc:	ee1ff06f          	j	349c <__sflush_r+0x128>

000035c0 <_fflush_r>:
    35c0:	ff010113          	add	sp,sp,-16
    35c4:	00812423          	sw	s0,8(sp)
    35c8:	00912223          	sw	s1,4(sp)
    35cc:	00112623          	sw	ra,12(sp)
    35d0:	01212023          	sw	s2,0(sp)
    35d4:	00050493          	mv	s1,a0
    35d8:	00058413          	mv	s0,a1
    35dc:	00050663          	beqz	a0,35e8 <_fflush_r+0x28>
    35e0:	03452783          	lw	a5,52(a0)
    35e4:	0a078a63          	beqz	a5,3698 <_fflush_r+0xd8>
    35e8:	00c41783          	lh	a5,12(s0)
    35ec:	00000913          	li	s2,0
    35f0:	04078063          	beqz	a5,3630 <_fflush_r+0x70>
    35f4:	06442703          	lw	a4,100(s0)
    35f8:	00177713          	and	a4,a4,1
    35fc:	00071663          	bnez	a4,3608 <_fflush_r+0x48>
    3600:	2007f793          	and	a5,a5,512
    3604:	04078463          	beqz	a5,364c <_fflush_r+0x8c>
    3608:	00040593          	mv	a1,s0
    360c:	00048513          	mv	a0,s1
    3610:	d65ff0ef          	jal	3374 <__sflush_r>
    3614:	06442783          	lw	a5,100(s0)
    3618:	00050913          	mv	s2,a0
    361c:	0017f793          	and	a5,a5,1
    3620:	00079863          	bnez	a5,3630 <_fflush_r+0x70>
    3624:	00c45783          	lhu	a5,12(s0)
    3628:	2007f793          	and	a5,a5,512
    362c:	04078463          	beqz	a5,3674 <_fflush_r+0xb4>
    3630:	00c12083          	lw	ra,12(sp)
    3634:	00812403          	lw	s0,8(sp)
    3638:	00412483          	lw	s1,4(sp)
    363c:	00090513          	mv	a0,s2
    3640:	00012903          	lw	s2,0(sp)
    3644:	01010113          	add	sp,sp,16
    3648:	00008067          	ret
    364c:	05842503          	lw	a0,88(s0)
    3650:	c2cff0ef          	jal	2a7c <__retarget_lock_acquire_recursive>
    3654:	00040593          	mv	a1,s0
    3658:	00048513          	mv	a0,s1
    365c:	d19ff0ef          	jal	3374 <__sflush_r>
    3660:	06442783          	lw	a5,100(s0)
    3664:	00050913          	mv	s2,a0
    3668:	0017f793          	and	a5,a5,1
    366c:	fc0792e3          	bnez	a5,3630 <_fflush_r+0x70>
    3670:	fb5ff06f          	j	3624 <_fflush_r+0x64>
    3674:	05842503          	lw	a0,88(s0)
    3678:	c1cff0ef          	jal	2a94 <__retarget_lock_release_recursive>
    367c:	00c12083          	lw	ra,12(sp)
    3680:	00812403          	lw	s0,8(sp)
    3684:	00412483          	lw	s1,4(sp)
    3688:	00090513          	mv	a0,s2
    368c:	00012903          	lw	s2,0(sp)
    3690:	01010113          	add	sp,sp,16
    3694:	00008067          	ret
    3698:	8b0fe0ef          	jal	1748 <__sinit>
    369c:	f4dff06f          	j	35e8 <_fflush_r+0x28>

000036a0 <fflush>:
    36a0:	0a050a63          	beqz	a0,3754 <fflush+0xb4>
    36a4:	ff010113          	add	sp,sp,-16
    36a8:	00812423          	sw	s0,8(sp)
    36ac:	01212023          	sw	s2,0(sp)
    36b0:	00112623          	sw	ra,12(sp)
    36b4:	00912223          	sw	s1,4(sp)
    36b8:	8201a903          	lw	s2,-2016(gp) # 16b18 <_impure_ptr>
    36bc:	00050413          	mv	s0,a0
    36c0:	00090663          	beqz	s2,36cc <fflush+0x2c>
    36c4:	03492783          	lw	a5,52(s2)
    36c8:	06078463          	beqz	a5,3730 <fflush+0x90>
    36cc:	00c41783          	lh	a5,12(s0)
    36d0:	00000493          	li	s1,0
    36d4:	04078063          	beqz	a5,3714 <fflush+0x74>
    36d8:	06442703          	lw	a4,100(s0)
    36dc:	00177713          	and	a4,a4,1
    36e0:	00071663          	bnez	a4,36ec <fflush+0x4c>
    36e4:	2007f793          	and	a5,a5,512
    36e8:	04078a63          	beqz	a5,373c <fflush+0x9c>
    36ec:	00040593          	mv	a1,s0
    36f0:	00090513          	mv	a0,s2
    36f4:	c81ff0ef          	jal	3374 <__sflush_r>
    36f8:	06442783          	lw	a5,100(s0)
    36fc:	00050493          	mv	s1,a0
    3700:	0017f793          	and	a5,a5,1
    3704:	00079863          	bnez	a5,3714 <fflush+0x74>
    3708:	00c45783          	lhu	a5,12(s0)
    370c:	2007f793          	and	a5,a5,512
    3710:	02078c63          	beqz	a5,3748 <fflush+0xa8>
    3714:	00c12083          	lw	ra,12(sp)
    3718:	00812403          	lw	s0,8(sp)
    371c:	00012903          	lw	s2,0(sp)
    3720:	00048513          	mv	a0,s1
    3724:	00412483          	lw	s1,4(sp)
    3728:	01010113          	add	sp,sp,16
    372c:	00008067          	ret
    3730:	00090513          	mv	a0,s2
    3734:	814fe0ef          	jal	1748 <__sinit>
    3738:	f95ff06f          	j	36cc <fflush+0x2c>
    373c:	05842503          	lw	a0,88(s0)
    3740:	b3cff0ef          	jal	2a7c <__retarget_lock_acquire_recursive>
    3744:	fa9ff06f          	j	36ec <fflush+0x4c>
    3748:	05842503          	lw	a0,88(s0)
    374c:	b48ff0ef          	jal	2a94 <__retarget_lock_release_recursive>
    3750:	fc5ff06f          	j	3714 <fflush+0x74>
    3754:	00013617          	auipc	a2,0x13
    3758:	e2460613          	add	a2,a2,-476 # 16578 <__sglue>
    375c:	00000597          	auipc	a1,0x0
    3760:	e6458593          	add	a1,a1,-412 # 35c0 <_fflush_r>
    3764:	00013517          	auipc	a0,0x13
    3768:	cf450513          	add	a0,a0,-780 # 16458 <_impure_data>
    376c:	bc8fe06f          	j	1b34 <_fwalk_sglue>

00003770 <_close_r>:
    3770:	ff010113          	add	sp,sp,-16
    3774:	00812423          	sw	s0,8(sp)
    3778:	00050413          	mv	s0,a0
    377c:	00058513          	mv	a0,a1
    3780:	00015797          	auipc	a5,0x15
    3784:	cc07a823          	sw	zero,-816(a5) # 18450 <errno>
    3788:	00112623          	sw	ra,12(sp)
    378c:	584100ef          	jal	13d10 <_close>
    3790:	fff00793          	li	a5,-1
    3794:	00f50a63          	beq	a0,a5,37a8 <_close_r+0x38>
    3798:	00c12083          	lw	ra,12(sp)
    379c:	00812403          	lw	s0,8(sp)
    37a0:	01010113          	add	sp,sp,16
    37a4:	00008067          	ret
    37a8:	00015797          	auipc	a5,0x15
    37ac:	ca87a783          	lw	a5,-856(a5) # 18450 <errno>
    37b0:	fe0784e3          	beqz	a5,3798 <_close_r+0x28>
    37b4:	00c12083          	lw	ra,12(sp)
    37b8:	00f42023          	sw	a5,0(s0)
    37bc:	00812403          	lw	s0,8(sp)
    37c0:	01010113          	add	sp,sp,16
    37c4:	00008067          	ret

000037c8 <_fstat_r>:
    37c8:	ff010113          	add	sp,sp,-16
    37cc:	00058713          	mv	a4,a1
    37d0:	00812423          	sw	s0,8(sp)
    37d4:	00060593          	mv	a1,a2
    37d8:	00050413          	mv	s0,a0
    37dc:	00070513          	mv	a0,a4
    37e0:	00015797          	auipc	a5,0x15
    37e4:	c607a823          	sw	zero,-912(a5) # 18450 <errno>
    37e8:	00112623          	sw	ra,12(sp)
    37ec:	5fc100ef          	jal	13de8 <_fstat>
    37f0:	fff00793          	li	a5,-1
    37f4:	00f50a63          	beq	a0,a5,3808 <_fstat_r+0x40>
    37f8:	00c12083          	lw	ra,12(sp)
    37fc:	00812403          	lw	s0,8(sp)
    3800:	01010113          	add	sp,sp,16
    3804:	00008067          	ret
    3808:	00015797          	auipc	a5,0x15
    380c:	c487a783          	lw	a5,-952(a5) # 18450 <errno>
    3810:	fe0784e3          	beqz	a5,37f8 <_fstat_r+0x30>
    3814:	00c12083          	lw	ra,12(sp)
    3818:	00f42023          	sw	a5,0(s0)
    381c:	00812403          	lw	s0,8(sp)
    3820:	01010113          	add	sp,sp,16
    3824:	00008067          	ret

00003828 <_isatty_r>:
    3828:	ff010113          	add	sp,sp,-16
    382c:	00812423          	sw	s0,8(sp)
    3830:	00050413          	mv	s0,a0
    3834:	00058513          	mv	a0,a1
    3838:	00015797          	auipc	a5,0x15
    383c:	c007ac23          	sw	zero,-1000(a5) # 18450 <errno>
    3840:	00112623          	sw	ra,12(sp)
    3844:	62c100ef          	jal	13e70 <_isatty>
    3848:	fff00793          	li	a5,-1
    384c:	00f50a63          	beq	a0,a5,3860 <_isatty_r+0x38>
    3850:	00c12083          	lw	ra,12(sp)
    3854:	00812403          	lw	s0,8(sp)
    3858:	01010113          	add	sp,sp,16
    385c:	00008067          	ret
    3860:	00015797          	auipc	a5,0x15
    3864:	bf07a783          	lw	a5,-1040(a5) # 18450 <errno>
    3868:	fe0784e3          	beqz	a5,3850 <_isatty_r+0x28>
    386c:	00c12083          	lw	ra,12(sp)
    3870:	00f42023          	sw	a5,0(s0)
    3874:	00812403          	lw	s0,8(sp)
    3878:	01010113          	add	sp,sp,16
    387c:	00008067          	ret

00003880 <_lseek_r>:
    3880:	ff010113          	add	sp,sp,-16
    3884:	00058713          	mv	a4,a1
    3888:	00812423          	sw	s0,8(sp)
    388c:	00060593          	mv	a1,a2
    3890:	00050413          	mv	s0,a0
    3894:	00068613          	mv	a2,a3
    3898:	00070513          	mv	a0,a4
    389c:	00015797          	auipc	a5,0x15
    38a0:	ba07aa23          	sw	zero,-1100(a5) # 18450 <errno>
    38a4:	00112623          	sw	ra,12(sp)
    38a8:	734100ef          	jal	13fdc <_lseek>
    38ac:	fff00793          	li	a5,-1
    38b0:	00f50a63          	beq	a0,a5,38c4 <_lseek_r+0x44>
    38b4:	00c12083          	lw	ra,12(sp)
    38b8:	00812403          	lw	s0,8(sp)
    38bc:	01010113          	add	sp,sp,16
    38c0:	00008067          	ret
    38c4:	00015797          	auipc	a5,0x15
    38c8:	b8c7a783          	lw	a5,-1140(a5) # 18450 <errno>
    38cc:	fe0784e3          	beqz	a5,38b4 <_lseek_r+0x34>
    38d0:	00c12083          	lw	ra,12(sp)
    38d4:	00f42023          	sw	a5,0(s0)
    38d8:	00812403          	lw	s0,8(sp)
    38dc:	01010113          	add	sp,sp,16
    38e0:	00008067          	ret

000038e4 <_read_r>:
    38e4:	ff010113          	add	sp,sp,-16
    38e8:	00058713          	mv	a4,a1
    38ec:	00812423          	sw	s0,8(sp)
    38f0:	00060593          	mv	a1,a2
    38f4:	00050413          	mv	s0,a0
    38f8:	00068613          	mv	a2,a3
    38fc:	00070513          	mv	a0,a4
    3900:	00015797          	auipc	a5,0x15
    3904:	b407a823          	sw	zero,-1200(a5) # 18450 <errno>
    3908:	00112623          	sw	ra,12(sp)
    390c:	0d1100ef          	jal	141dc <_read>
    3910:	fff00793          	li	a5,-1
    3914:	00f50a63          	beq	a0,a5,3928 <_read_r+0x44>
    3918:	00c12083          	lw	ra,12(sp)
    391c:	00812403          	lw	s0,8(sp)
    3920:	01010113          	add	sp,sp,16
    3924:	00008067          	ret
    3928:	00015797          	auipc	a5,0x15
    392c:	b287a783          	lw	a5,-1240(a5) # 18450 <errno>
    3930:	fe0784e3          	beqz	a5,3918 <_read_r+0x34>
    3934:	00c12083          	lw	ra,12(sp)
    3938:	00f42023          	sw	a5,0(s0)
    393c:	00812403          	lw	s0,8(sp)
    3940:	01010113          	add	sp,sp,16
    3944:	00008067          	ret

00003948 <_vfprintf_r>:
    3948:	e3010113          	add	sp,sp,-464
    394c:	1c112623          	sw	ra,460(sp)
    3950:	1c812423          	sw	s0,456(sp)
    3954:	1c912223          	sw	s1,452(sp)
    3958:	1d212023          	sw	s2,448(sp)
    395c:	00058413          	mv	s0,a1
    3960:	00060913          	mv	s2,a2
    3964:	00d12623          	sw	a3,12(sp)
    3968:	00050493          	mv	s1,a0
    396c:	02a12023          	sw	a0,32(sp)
    3970:	56d020ef          	jal	66dc <_localeconv_r>
    3974:	00052703          	lw	a4,0(a0)
    3978:	00070513          	mv	a0,a4
    397c:	02e12423          	sw	a4,40(sp)
    3980:	5c1020ef          	jal	6740 <strlen>
    3984:	02a12223          	sw	a0,36(sp)
    3988:	0c012823          	sw	zero,208(sp)
    398c:	0c012a23          	sw	zero,212(sp)
    3990:	0c012c23          	sw	zero,216(sp)
    3994:	0c012e23          	sw	zero,220(sp)
    3998:	00048863          	beqz	s1,39a8 <_vfprintf_r+0x60>
    399c:	0344a703          	lw	a4,52(s1)
    39a0:	00071463          	bnez	a4,39a8 <_vfprintf_r+0x60>
    39a4:	77c0106f          	j	5120 <_vfprintf_r+0x17d8>
    39a8:	06442703          	lw	a4,100(s0)
    39ac:	00c41683          	lh	a3,12(s0)
    39b0:	00177613          	and	a2,a4,1
    39b4:	00061863          	bnez	a2,39c4 <_vfprintf_r+0x7c>
    39b8:	2006f613          	and	a2,a3,512
    39bc:	00061463          	bnez	a2,39c4 <_vfprintf_r+0x7c>
    39c0:	31c0106f          	j	4cdc <_vfprintf_r+0x1394>
    39c4:	01269613          	sll	a2,a3,0x12
    39c8:	02064063          	bltz	a2,39e8 <_vfprintf_r+0xa0>
    39cc:	ffffe637          	lui	a2,0xffffe
    39d0:	fff60613          	add	a2,a2,-1 # ffffdfff <__alt_data_end+0xfbffdfff>
    39d4:	000025b7          	lui	a1,0x2
    39d8:	00b6e6b3          	or	a3,a3,a1
    39dc:	00c77733          	and	a4,a4,a2
    39e0:	00d41623          	sh	a3,12(s0)
    39e4:	06e42223          	sw	a4,100(s0)
    39e8:	01271693          	sll	a3,a4,0x12
    39ec:	0006d463          	bgez	a3,39f4 <_vfprintf_r+0xac>
    39f0:	7d40206f          	j	61c4 <_vfprintf_r+0x287c>
    39f4:	00c41683          	lh	a3,12(s0)
    39f8:	0086f713          	and	a4,a3,8
    39fc:	30070863          	beqz	a4,3d0c <_vfprintf_r+0x3c4>
    3a00:	01042703          	lw	a4,16(s0)
    3a04:	30070463          	beqz	a4,3d0c <_vfprintf_r+0x3c4>
    3a08:	01a6f713          	and	a4,a3,26
    3a0c:	00a00613          	li	a2,10
    3a10:	32c70063          	beq	a4,a2,3d30 <_vfprintf_r+0x3e8>
    3a14:	1b312e23          	sw	s3,444(sp)
    3a18:	1b412c23          	sw	s4,440(sp)
    3a1c:	1b712623          	sw	s7,428(sp)
    3a20:	1ba12023          	sw	s10,416(sp)
    3a24:	1b512a23          	sw	s5,436(sp)
    3a28:	1b612823          	sw	s6,432(sp)
    3a2c:	1b812423          	sw	s8,424(sp)
    3a30:	1b912223          	sw	s9,420(sp)
    3a34:	19b12e23          	sw	s11,412(sp)
    3a38:	00090d13          	mv	s10,s2
    3a3c:	000d4703          	lbu	a4,0(s10)
    3a40:	0ec10993          	add	s3,sp,236
    3a44:	0d312223          	sw	s3,196(sp)
    3a48:	0c012623          	sw	zero,204(sp)
    3a4c:	0c012423          	sw	zero,200(sp)
    3a50:	00012a23          	sw	zero,20(sp)
    3a54:	02012623          	sw	zero,44(sp)
    3a58:	02012c23          	sw	zero,56(sp)
    3a5c:	02012a23          	sw	zero,52(sp)
    3a60:	02012e23          	sw	zero,60(sp)
    3a64:	04012023          	sw	zero,64(sp)
    3a68:	00012223          	sw	zero,4(sp)
    3a6c:	02012b83          	lw	s7,32(sp)
    3a70:	01000493          	li	s1,16
    3a74:	00098a13          	mv	s4,s3
    3a78:	22070463          	beqz	a4,3ca0 <_vfprintf_r+0x358>
    3a7c:	000d0a93          	mv	s5,s10
    3a80:	02500693          	li	a3,37
    3a84:	34d70263          	beq	a4,a3,3dc8 <_vfprintf_r+0x480>
    3a88:	001ac703          	lbu	a4,1(s5)
    3a8c:	001a8a93          	add	s5,s5,1
    3a90:	fe071ae3          	bnez	a4,3a84 <_vfprintf_r+0x13c>
    3a94:	41aa8933          	sub	s2,s5,s10
    3a98:	21aa8463          	beq	s5,s10,3ca0 <_vfprintf_r+0x358>
    3a9c:	0cc12683          	lw	a3,204(sp)
    3aa0:	0c812703          	lw	a4,200(sp)
    3aa4:	01aa2023          	sw	s10,0(s4)
    3aa8:	012686b3          	add	a3,a3,s2
    3aac:	00170713          	add	a4,a4,1
    3ab0:	012a2223          	sw	s2,4(s4)
    3ab4:	0cd12623          	sw	a3,204(sp)
    3ab8:	0ce12423          	sw	a4,200(sp)
    3abc:	00700693          	li	a3,7
    3ac0:	008a0a13          	add	s4,s4,8
    3ac4:	30e6ca63          	blt	a3,a4,3dd8 <_vfprintf_r+0x490>
    3ac8:	00412783          	lw	a5,4(sp)
    3acc:	000ac703          	lbu	a4,0(s5)
    3ad0:	012787b3          	add	a5,a5,s2
    3ad4:	00f12223          	sw	a5,4(sp)
    3ad8:	1c070463          	beqz	a4,3ca0 <_vfprintf_r+0x358>
    3adc:	001ac883          	lbu	a7,1(s5)
    3ae0:	0a0103a3          	sb	zero,167(sp)
    3ae4:	001a8a93          	add	s5,s5,1
    3ae8:	fff00b13          	li	s6,-1
    3aec:	00000c93          	li	s9,0
    3af0:	00000d93          	li	s11,0
    3af4:	05a00913          	li	s2,90
    3af8:	001a8a93          	add	s5,s5,1
    3afc:	fe088793          	add	a5,a7,-32
    3b00:	04f96a63          	bltu	s2,a5,3b54 <_vfprintf_r+0x20c>
    3b04:	00011717          	auipc	a4,0x11
    3b08:	e9870713          	add	a4,a4,-360 # 1499c <__flash_rodata_start+0x1bc>
    3b0c:	00279793          	sll	a5,a5,0x2
    3b10:	00e787b3          	add	a5,a5,a4
    3b14:	0007a783          	lw	a5,0(a5)
    3b18:	00e787b3          	add	a5,a5,a4
    3b1c:	00078067          	jr	a5
    3b20:	00000c93          	li	s9,0
    3b24:	fd088793          	add	a5,a7,-48
    3b28:	00900693          	li	a3,9
    3b2c:	000ac883          	lbu	a7,0(s5)
    3b30:	002c9713          	sll	a4,s9,0x2
    3b34:	01970cb3          	add	s9,a4,s9
    3b38:	001c9c93          	sll	s9,s9,0x1
    3b3c:	01978cb3          	add	s9,a5,s9
    3b40:	fd088793          	add	a5,a7,-48
    3b44:	001a8a93          	add	s5,s5,1
    3b48:	fef6f2e3          	bgeu	a3,a5,3b2c <_vfprintf_r+0x1e4>
    3b4c:	fe088793          	add	a5,a7,-32
    3b50:	faf97ae3          	bgeu	s2,a5,3b04 <_vfprintf_r+0x1bc>
    3b54:	14088663          	beqz	a7,3ca0 <_vfprintf_r+0x358>
    3b58:	13110623          	sb	a7,300(sp)
    3b5c:	0a0103a3          	sb	zero,167(sp)
    3b60:	00100c13          	li	s8,1
    3b64:	00100913          	li	s2,1
    3b68:	12c10d13          	add	s10,sp,300
    3b6c:	00012423          	sw	zero,8(sp)
    3b70:	00000b13          	li	s6,0
    3b74:	00012e23          	sw	zero,28(sp)
    3b78:	00012c23          	sw	zero,24(sp)
    3b7c:	00012823          	sw	zero,16(sp)
    3b80:	002df293          	and	t0,s11,2
    3b84:	00028463          	beqz	t0,3b8c <_vfprintf_r+0x244>
    3b88:	002c0c13          	add	s8,s8,2
    3b8c:	084dff93          	and	t6,s11,132
    3b90:	0cc12603          	lw	a2,204(sp)
    3b94:	000f9663          	bnez	t6,3ba0 <_vfprintf_r+0x258>
    3b98:	418c8733          	sub	a4,s9,s8
    3b9c:	46e046e3          	bgtz	a4,4808 <_vfprintf_r+0xec0>
    3ba0:	0a714703          	lbu	a4,167(sp)
    3ba4:	02070a63          	beqz	a4,3bd8 <_vfprintf_r+0x290>
    3ba8:	0c812703          	lw	a4,200(sp)
    3bac:	0a710593          	add	a1,sp,167
    3bb0:	00ba2023          	sw	a1,0(s4)
    3bb4:	00160613          	add	a2,a2,1
    3bb8:	00100593          	li	a1,1
    3bbc:	00170713          	add	a4,a4,1
    3bc0:	00ba2223          	sw	a1,4(s4)
    3bc4:	0cc12623          	sw	a2,204(sp)
    3bc8:	0ce12423          	sw	a4,200(sp)
    3bcc:	00700593          	li	a1,7
    3bd0:	008a0a13          	add	s4,s4,8
    3bd4:	34e5c063          	blt	a1,a4,3f14 <_vfprintf_r+0x5cc>
    3bd8:	02028a63          	beqz	t0,3c0c <_vfprintf_r+0x2c4>
    3bdc:	0c812703          	lw	a4,200(sp)
    3be0:	00200593          	li	a1,2
    3be4:	00260613          	add	a2,a2,2
    3be8:	00170713          	add	a4,a4,1
    3bec:	0a810793          	add	a5,sp,168
    3bf0:	00ba2223          	sw	a1,4(s4)
    3bf4:	00fa2023          	sw	a5,0(s4)
    3bf8:	0cc12623          	sw	a2,204(sp)
    3bfc:	0ce12423          	sw	a4,200(sp)
    3c00:	00700593          	li	a1,7
    3c04:	008a0a13          	add	s4,s4,8
    3c08:	50e5c6e3          	blt	a1,a4,4914 <_vfprintf_r+0xfcc>
    3c0c:	08000713          	li	a4,128
    3c10:	1eef80e3          	beq	t6,a4,45f0 <_vfprintf_r+0xca8>
    3c14:	412b0b33          	sub	s6,s6,s2
    3c18:	2d6046e3          	bgtz	s6,46e4 <_vfprintf_r+0xd9c>
    3c1c:	100df713          	and	a4,s11,256
    3c20:	7c071263          	bnez	a4,43e4 <_vfprintf_r+0xa9c>
    3c24:	0c812783          	lw	a5,200(sp)
    3c28:	01260633          	add	a2,a2,s2
    3c2c:	01aa2023          	sw	s10,0(s4)
    3c30:	00178793          	add	a5,a5,1
    3c34:	012a2223          	sw	s2,4(s4)
    3c38:	0cc12623          	sw	a2,204(sp)
    3c3c:	0cf12423          	sw	a5,200(sp)
    3c40:	00700713          	li	a4,7
    3c44:	40f74c63          	blt	a4,a5,405c <_vfprintf_r+0x714>
    3c48:	008a0a13          	add	s4,s4,8
    3c4c:	004dfe13          	and	t3,s11,4
    3c50:	000e0663          	beqz	t3,3c5c <_vfprintf_r+0x314>
    3c54:	418c8933          	sub	s2,s9,s8
    3c58:	4f2046e3          	bgtz	s2,4944 <_vfprintf_r+0xffc>
    3c5c:	000c8313          	mv	t1,s9
    3c60:	018cd463          	bge	s9,s8,3c68 <_vfprintf_r+0x320>
    3c64:	000c0313          	mv	t1,s8
    3c68:	00412783          	lw	a5,4(sp)
    3c6c:	006787b3          	add	a5,a5,t1
    3c70:	00f12223          	sw	a5,4(sp)
    3c74:	34061ce3          	bnez	a2,47cc <_vfprintf_r+0xe84>
    3c78:	00812783          	lw	a5,8(sp)
    3c7c:	0c012423          	sw	zero,200(sp)
    3c80:	00078863          	beqz	a5,3c90 <_vfprintf_r+0x348>
    3c84:	00812583          	lw	a1,8(sp)
    3c88:	000b8513          	mv	a0,s7
    3c8c:	be0ff0ef          	jal	306c <_free_r>
    3c90:	00098a13          	mv	s4,s3
    3c94:	000a8d13          	mv	s10,s5
    3c98:	000d4703          	lbu	a4,0(s10)
    3c9c:	de0710e3          	bnez	a4,3a7c <_vfprintf_r+0x134>
    3ca0:	0cc12783          	lw	a5,204(sp)
    3ca4:	00078463          	beqz	a5,3cac <_vfprintf_r+0x364>
    3ca8:	15d0106f          	j	5604 <_vfprintf_r+0x1cbc>
    3cac:	0c012423          	sw	zero,200(sp)
    3cb0:	06442703          	lw	a4,100(s0)
    3cb4:	00c41783          	lh	a5,12(s0)
    3cb8:	00177713          	and	a4,a4,1
    3cbc:	3c070063          	beqz	a4,407c <_vfprintf_r+0x734>
    3cc0:	0407f793          	and	a5,a5,64
    3cc4:	1bc12983          	lw	s3,444(sp)
    3cc8:	1b812a03          	lw	s4,440(sp)
    3ccc:	1b412a83          	lw	s5,436(sp)
    3cd0:	1b012b03          	lw	s6,432(sp)
    3cd4:	1ac12b83          	lw	s7,428(sp)
    3cd8:	1a812c03          	lw	s8,424(sp)
    3cdc:	1a412c83          	lw	s9,420(sp)
    3ce0:	1a012d03          	lw	s10,416(sp)
    3ce4:	19c12d83          	lw	s11,412(sp)
    3ce8:	00078463          	beqz	a5,3cf0 <_vfprintf_r+0x3a8>
    3cec:	1ec0206f          	j	5ed8 <_vfprintf_r+0x2590>
    3cf0:	1cc12083          	lw	ra,460(sp)
    3cf4:	1c812403          	lw	s0,456(sp)
    3cf8:	00412503          	lw	a0,4(sp)
    3cfc:	1c412483          	lw	s1,452(sp)
    3d00:	1c012903          	lw	s2,448(sp)
    3d04:	1d010113          	add	sp,sp,464
    3d08:	00008067          	ret
    3d0c:	02012503          	lw	a0,32(sp)
    3d10:	00040593          	mv	a1,s0
    3d14:	7bc020ef          	jal	64d0 <__swsetup_r>
    3d18:	00050463          	beqz	a0,3d20 <_vfprintf_r+0x3d8>
    3d1c:	1b00206f          	j	5ecc <_vfprintf_r+0x2584>
    3d20:	00c41683          	lh	a3,12(s0)
    3d24:	00a00613          	li	a2,10
    3d28:	01a6f713          	and	a4,a3,26
    3d2c:	cec714e3          	bne	a4,a2,3a14 <_vfprintf_r+0xcc>
    3d30:	00e41703          	lh	a4,14(s0)
    3d34:	ce0740e3          	bltz	a4,3a14 <_vfprintf_r+0xcc>
    3d38:	06442703          	lw	a4,100(s0)
    3d3c:	00177713          	and	a4,a4,1
    3d40:	00071863          	bnez	a4,3d50 <_vfprintf_r+0x408>
    3d44:	2006f693          	and	a3,a3,512
    3d48:	00069463          	bnez	a3,3d50 <_vfprintf_r+0x408>
    3d4c:	1090106f          	j	5654 <_vfprintf_r+0x1d0c>
    3d50:	00c12683          	lw	a3,12(sp)
    3d54:	02012503          	lw	a0,32(sp)
    3d58:	00090613          	mv	a2,s2
    3d5c:	00040593          	mv	a1,s0
    3d60:	58c020ef          	jal	62ec <__sbprintf>
    3d64:	1cc12083          	lw	ra,460(sp)
    3d68:	1c812403          	lw	s0,456(sp)
    3d6c:	00a12223          	sw	a0,4(sp)
    3d70:	00412503          	lw	a0,4(sp)
    3d74:	1c412483          	lw	s1,452(sp)
    3d78:	1c012903          	lw	s2,448(sp)
    3d7c:	1d010113          	add	sp,sp,464
    3d80:	00008067          	ret
    3d84:	000b8513          	mv	a0,s7
    3d88:	155020ef          	jal	66dc <_localeconv_r>
    3d8c:	00452783          	lw	a5,4(a0)
    3d90:	00078513          	mv	a0,a5
    3d94:	04f12023          	sw	a5,64(sp)
    3d98:	1a9020ef          	jal	6740 <strlen>
    3d9c:	00050793          	mv	a5,a0
    3da0:	000b8513          	mv	a0,s7
    3da4:	00078c13          	mv	s8,a5
    3da8:	02f12e23          	sw	a5,60(sp)
    3dac:	131020ef          	jal	66dc <_localeconv_r>
    3db0:	00852703          	lw	a4,8(a0)
    3db4:	02e12a23          	sw	a4,52(sp)
    3db8:	000c0463          	beqz	s8,3dc0 <_vfprintf_r+0x478>
    3dbc:	0040106f          	j	4dc0 <_vfprintf_r+0x1478>
    3dc0:	000ac883          	lbu	a7,0(s5)
    3dc4:	d35ff06f          	j	3af8 <_vfprintf_r+0x1b0>
    3dc8:	41aa8933          	sub	s2,s5,s10
    3dcc:	cdaa98e3          	bne	s5,s10,3a9c <_vfprintf_r+0x154>
    3dd0:	000ac703          	lbu	a4,0(s5)
    3dd4:	d05ff06f          	j	3ad8 <_vfprintf_r+0x190>
    3dd8:	0c410613          	add	a2,sp,196
    3ddc:	00040593          	mv	a1,s0
    3de0:	000b8513          	mv	a0,s7
    3de4:	111020ef          	jal	66f4 <__sprint_r>
    3de8:	ec0514e3          	bnez	a0,3cb0 <_vfprintf_r+0x368>
    3dec:	00098a13          	mv	s4,s3
    3df0:	cd9ff06f          	j	3ac8 <_vfprintf_r+0x180>
    3df4:	008df713          	and	a4,s11,8
    3df8:	00070463          	beqz	a4,3e00 <_vfprintf_r+0x4b8>
    3dfc:	0140106f          	j	4e10 <_vfprintf_r+0x14c8>
    3e00:	00c12783          	lw	a5,12(sp)
    3e04:	09010513          	add	a0,sp,144
    3e08:	01112423          	sw	a7,8(sp)
    3e0c:	00778c13          	add	s8,a5,7
    3e10:	ff8c7c13          	and	s8,s8,-8
    3e14:	000c2583          	lw	a1,0(s8)
    3e18:	004c2603          	lw	a2,4(s8)
    3e1c:	008c0793          	add	a5,s8,8
    3e20:	00f12623          	sw	a5,12(sp)
    3e24:	3450f0ef          	jal	13968 <__extenddftf2>
    3e28:	09012583          	lw	a1,144(sp)
    3e2c:	09412603          	lw	a2,148(sp)
    3e30:	09812683          	lw	a3,152(sp)
    3e34:	09c12703          	lw	a4,156(sp)
    3e38:	00812883          	lw	a7,8(sp)
    3e3c:	0d010513          	add	a0,sp,208
    3e40:	01112423          	sw	a7,8(sp)
    3e44:	0ce12e23          	sw	a4,220(sp)
    3e48:	0cb12823          	sw	a1,208(sp)
    3e4c:	0cc12a23          	sw	a2,212(sp)
    3e50:	0cd12c23          	sw	a3,216(sp)
    3e54:	5dd020ef          	jal	6c30 <_ldcheck>
    3e58:	0aa12623          	sw	a0,172(sp)
    3e5c:	00200713          	li	a4,2
    3e60:	00812883          	lw	a7,8(sp)
    3e64:	00e51463          	bne	a0,a4,3e6c <_vfprintf_r+0x524>
    3e68:	2fc0106f          	j	5164 <_vfprintf_r+0x181c>
    3e6c:	00100713          	li	a4,1
    3e70:	00e51463          	bne	a0,a4,3e78 <_vfprintf_r+0x530>
    3e74:	4d00106f          	j	5344 <_vfprintf_r+0x19fc>
    3e78:	06100713          	li	a4,97
    3e7c:	00e89463          	bne	a7,a4,3e84 <_vfprintf_r+0x53c>
    3e80:	0f00106f          	j	4f70 <_vfprintf_r+0x1628>
    3e84:	04100713          	li	a4,65
    3e88:	05800793          	li	a5,88
    3e8c:	00e89463          	bne	a7,a4,3e94 <_vfprintf_r+0x54c>
    3e90:	0e40106f          	j	4f74 <_vfprintf_r+0x162c>
