
main.elf:     file format elf32-littleriscv
main.elf
architecture: riscv:rv32, flags 0x00000112:
EXEC_P, HAS_SYMS, D_PAGED
start address 0x00000344

Program Header:
0x70000003 off    0x00009032 vaddr 0x00000000 paddr 0x00000000 align 2**0
         filesz 0x00000020 memsz 0x00000000 flags r--
    LOAD off    0x00001000 vaddr 0x00000000 paddr 0x00000000 align 2**12
         filesz 0x00005d68 memsz 0x00005d68 flags r-x
    LOAD off    0x00006d68 vaddr 0x00005d68 paddr 0x000074d8 align 2**12
         filesz 0x00001770 memsz 0x00001770 flags rw-
    LOAD off    0x00000c48 vaddr 0x00008c48 paddr 0x00008c48 align 2**12
         filesz 0x00000000 memsz 0x000003dc flags rw-
    LOAD off    0x00009000 vaddr 0x04000000 paddr 0x04000000 align 2**12
         filesz 0x00000020 memsz 0x00000020 flags r-x

Sections:
Idx Name          Size      VMA       LMA       File off  Algn
  0 .entry        00000020  04000000  04000000  00009000  2**5
                  CONTENTS, ALLOC, LOAD, READONLY, CODE
  1 .exceptions   000002f4  00000000  00000000  00001000  2**2
                  CONTENTS, ALLOC, LOAD, READONLY, CODE
  2 .text         00005a18  000002f4  000002f4  000012f4  2**2
                  CONTENTS, ALLOC, LOAD, READONLY, CODE
  3 .rodata       0000005c  00005d0c  00005d0c  00006d0c  2**2
                  CONTENTS, ALLOC, LOAD, READONLY, DATA
  4 .rwdata       00001770  00005d68  000074d8  00006d68  2**3
                  CONTENTS, ALLOC, LOAD, DATA
  5 .bss          000003dc  00008c48  00008c48  00008c48  2**3
                  ALLOC
  6 .SDRAM        00000000  00009024  00009024  00009020  2**0
                  CONTENTS
  7 .RAM          00000000  04000020  04000020  00009020  2**0
                  CONTENTS
  8 .comment      00000012  00000000  00000000  00009020  2**0
                  CONTENTS, READONLY
  9 .riscv.attributes 00000020  00000000  00000000  00009032  2**0
                  CONTENTS, READONLY
 10 .debug_aranges 00000578  00000000  00000000  00009058  2**3
                  CONTENTS, READONLY, DEBUGGING, OCTETS
 11 .debug_info   0000737b  00000000  00000000  000095d0  2**0
                  CONTENTS, READONLY, DEBUGGING, OCTETS
 12 .debug_abbrev 00002e1a  00000000  00000000  0001094b  2**0
                  CONTENTS, READONLY, DEBUGGING, OCTETS
 13 .debug_line   00003523  00000000  00000000  00013765  2**0
                  CONTENTS, READONLY, DEBUGGING, OCTETS
 14 .debug_frame  00000d1c  00000000  00000000  00016c88  2**2
                  CONTENTS, READONLY, DEBUGGING, OCTETS
 15 .debug_str    000010ec  00000000  00000000  000179a4  2**0
                  CONTENTS, READONLY, DEBUGGING, OCTETS
 16 .debug_line_str 00001837  00000000  00000000  00018a90  2**0
                  CONTENTS, READONLY, DEBUGGING, OCTETS
 17 .debug_ranges 00000020  00000000  00000000  0001a2c8  2**3
                  CONTENTS, READONLY, DEBUGGING, OCTETS
 18 .debug_rnglists 0000005f  00000000  00000000  0001a2e8  2**0
                  CONTENTS, READONLY, DEBUGGING, OCTETS
SYMBOL TABLE:
04000000 l    d  .entry	00000000 .entry
00000000 l    d  .exceptions	00000000 .exceptions
000002f4 l    d  .text	00000000 .text
00005d0c l    d  .rodata	00000000 .rodata
00005d68 l    d  .rwdata	00000000 .rwdata
00008c48 l    d  .bss	00000000 .bss
00009024 l    d  .SDRAM	00000000 .SDRAM
04000020 l    d  .RAM	00000000 .RAM
00000000 l    d  .comment	00000000 .comment
00000000 l    d  .riscv.attributes	00000000 .riscv.attributes
00000000 l    d  .debug_aranges	00000000 .debug_aranges
00000000 l    d  .debug_info	00000000 .debug_info
00000000 l    d  .debug_abbrev	00000000 .debug_abbrev
00000000 l    d  .debug_line	00000000 .debug_line
00000000 l    d  .debug_frame	00000000 .debug_frame
00000000 l    d  .debug_str	00000000 .debug_str
00000000 l    d  .debug_line_str	00000000 .debug_line_str
00000000 l    d  .debug_ranges	00000000 .debug_ranges
00000000 l    d  .debug_rnglists	00000000 .debug_rnglists
00000000 l    df *ABS*	00000000 crt0.S.obj
000003ec l       .text	00000000 alt_after_alt_main
00000000 l    df *ABS*	00000000 machine_trap.S.obj
00000000 l       .exceptions	00000000 save_registers
00000000 l    df *ABS*	00000000 alt_irq_handler.c
00000000 l    df *ABS*	00000000 main.c
00000000 l    df *ABS*	00000000 alt_load.c
000003f0 l     F .text	00000064 alt_load_section
00000000 l    df *ABS*	00000000 alt_main.c
00000000 l    df *ABS*	00000000 alt_usleep.c
00000000 l    df *ABS*	00000000 alt_sys_init.c
00005d68 l     O .rwdata	00001060 JTAG_UART
00000000 l    df *ABS*	00000000 altera_avalon_jtag_uart_fd.c
00000000 l    df *ABS*	00000000 altera_avalon_jtag_uart_init.c
00000880 l     F .text	00000238 altera_avalon_jtag_uart_irq
00000ab8 l     F .text	000000bc altera_avalon_jtag_uart_timeout
00000000 l    df *ABS*	00000000 altera_avalon_jtag_uart_ioctl.c
00000000 l    df *ABS*	00000000 altera_avalon_jtag_uart_read.c
00000000 l    df *ABS*	00000000 altera_avalon_jtag_uart_write.c
00000000 l    df *ABS*	00000000 alt_alarm_start.c
00000000 l    df *ABS*	00000000 alt_busy_sleep.c
00000000 l    df *ABS*	00000000 alt_dcache_flush_all.c
00000000 l    df *ABS*	00000000 alt_dev.c
00001354 l     F .text	0000002c alt_dev_null_write
00000000 l    df *ABS*	00000000 alt_dev_llist_insert.c
000013bc l     F .text	00000044 alt_get_errno
00000000 l    df *ABS*	00000000 alt_do_ctors.c
00000000 l    df *ABS*	00000000 alt_do_dtors.c
00000000 l    df *ABS*	00000000 alt_errno.c
00000000 l    df *ABS*	00000000 alt_icache_flush_all.c
00000000 l    df *ABS*	00000000 alt_iic.c
00000000 l    df *ABS*	00000000 alt_iic_isr_register.c
00000000 l    df *ABS*	00000000 alt_io_redirect.c
00001754 l     F .text	000000dc alt_open_fd
00000000 l    df *ABS*	00000000 alt_release_fd.c
00000000 l    df *ABS*	00000000 alt_tick.c
00000000 l    df *ABS*	00000000 intel_niosv_irq.c
00000000 l    df *ABS*	00000000 mtimer.c
00000000 l    df *ABS*	00000000 libc_a-exit.o
00000000 l    df *ABS*	00000000 libc_a-sysopen.o
00000000 l    df *ABS*	00000000 libc_a-reent.o
00000000 l    df *ABS*	00000000 libc_a-findfp.o
00002080 l     F .text	0000001c stdio_exit_handler
0000209c l     F .text	00000070 cleanup_stdio
0000210c l     F .text	00000040 __fp_lock
0000214c l     F .text	00000040 __fp_unlock
0000218c l     F .text	00000190 global_stdio_init.part.0
00000000 l    df *ABS*	00000000 libc_a-setvbuf.o
00000000 l    df *ABS*	00000000 libc_a-openr.o
00000000 l    df *ABS*	00000000 libc_a-fwalk.o
00000000 l    df *ABS*	00000000 libc_a-stdio.o
00000000 l    df *ABS*	00000000 libc_a-malloc.o
00000000 l    df *ABS*	00000000 libc_a-mallocr.o
00000000 l    df *ABS*	00000000 libc_a-__call_atexit.o
000033c8 l     F .text	00000018 register_fini
00000000 l    df *ABS*	00000000 libc_a-sbrkr.o
00000000 l    df *ABS*	00000000 libc_a-writer.o
00000000 l    df *ABS*	00000000 libc_a-makebuf.o
00000000 l    df *ABS*	00000000 libc_a-mlock.o
00000000 l    df *ABS*	00000000 libc_a-atexit.o
00000000 l    df *ABS*	00000000 libc_a-fini.o
00000000 l    df *ABS*	00000000 libc_a-lock.o
00000000 l    df *ABS*	00000000 libc_a-sysclose.o
00000000 l    df *ABS*	00000000 libc_a-fclose.o
00000000 l    df *ABS*	00000000 libc_a-memset.o
00000000 l    df *ABS*	00000000 libc_a-memcpy.o
00000000 l    df *ABS*	00000000 libc_a-freer.o
00000000 l    df *ABS*	00000000 libc_a-fflush.o
00000000 l    df *ABS*	00000000 libc_a-closer.o
00000000 l    df *ABS*	00000000 libc_a-fstatr.o
00000000 l    df *ABS*	00000000 libc_a-isattyr.o
00000000 l    df *ABS*	00000000 libc_a-lseekr.o
00000000 l    df *ABS*	00000000 libc_a-readr.o
00000000 l    df *ABS*	00000000 libc_a-__atexit.o
00000000 l    df *ABS*	00000000 alt_close.c
000046d4 l     F .text	00000044 alt_get_errno
00000000 l    df *ABS*	00000000 alt_exit.c
00000000 l    df *ABS*	00000000 alt_fstat.c
00004838 l     F .text	00000044 alt_get_errno
00000000 l    df *ABS*	00000000 alt_isatty.c
0000493c l     F .text	00000044 alt_get_errno
00000000 l    df *ABS*	00000000 alt_lseek.c
00004a7c l     F .text	00000044 alt_get_errno
00000000 l    df *ABS*	00000000 alt_open.c
00004ba0 l     F .text	00000044 alt_get_errno
00004be4 l     F .text	000000e8 alt_file_locked
00000000 l    df *ABS*	00000000 alt_read.c
00004e34 l     F .text	00000044 alt_get_errno
00000000 l    df *ABS*	00000000 alt_sbrk.c
000074d4 l     O .rwdata	00000004 heap_end
00000000 l    df *ABS*	00000000 alt_write.c
00005034 l     F .text	00000044 alt_get_errno
00000000 l    df *ABS*	00000000 alt_find_dev.c
00000000 l    df *ABS*	00000000 alt_find_file.c
00000000 l    df *ABS*	00000000 alt_get_fd.c
00000000 l    df *ABS*	00000000 libc_a-stack_protector.o
00000000 l    df *ABS*	00000000 libc_a-sysfstat.o
00000000 l    df *ABS*	00000000 libc_a-strlen.o
00000000 l    df *ABS*	00000000 libc_a-signal.o
00000000 l    df *ABS*	00000000 libc_a-syswrite.o
00000000 l    df *ABS*	00000000 libc_a-signalr.o
00000000 l    df *ABS*	00000000 alt_getpid.c
00000000 l    df *ABS*	00000000 alt_kill.c
00005bcc l     F .text	00000044 alt_get_errno
00005530 g     F .text	0000000c .hidden __stack_chk_fail_local
000044c8 g     F .text	00000058 _isatty_r
000004c8 g     F .text	00000088 alt_main
00005bac g     F .text	00000020 _getpid
00008cb4 g     O .bss	00000080 alt_irq
00004520 g     F .text	00000064 _lseek_r
000074d8 g       *ABS*	00000000 __flash_rwdata_start
00009024 g       *ABS*	00000000 __alt_heap_start
00005b48 g     F .text	00000060 _kill_r
00007ca4 g       *ABS*	00000000 __global_pointer$
00008ca8 g     O .bss	00000001 __lock___atexit_recursive_mutex
00005650 g     F .text	0000009c _signal_r
00002a00 g     F .text	00000078 __sseek
00002474 g     F .text	00000070 __sinit
00005d68 g       *ABS*	00000000 __tls_base
00003718 g     F .text	0000000c __malloc_unlock
00008c90 g     O .bss	00000001 __lock___arc4random_mutex
000000a0 g     F .exceptions	00000028 is_ecc_handler_present
00008cb0 g     O .bss	00000004 __stack_chk_guard
000074d0 g     O .rwdata	00000004 __atexit_recursive_mutex
0000379c g     F .text	00000004 __retarget_lock_close
04000000 g     F .entry	00000004 __reset
00008c7c g     O .bss	00000004 __stdio_exit_handler
00000000 g       *ABS*	00000000 __flash_exceptions_start
00004468 g     F .text	00000060 _fstat_r
00008c78 g     O .bss	00000004 errno
00002970 g     F .text	00000008 __seofread
00008c54 g     O .bss	00000004 alt_argv
00000550 g     F .text	00000034 usleep
00006df0 g     O .rwdata	00000180 alt_fd_list
0000517c g     F .text	00000120 alt_find_dev
00003a28 g     F .text	000001a4 memcpy
00002564 g     F .text	00000298 setvbuf
00001dfc g     F .text	000000ac alt_niosv_timer_sc_isr
00001830 g     F .text	000000fc alt_io_redirect
00005d0c g       *ABS*	00000000 __fini_array_end
00000ce0 g     F .text	0000022c altera_avalon_jtag_uart_read
00002a80 g     F .text	0000000c malloc
000056ec g     F .text	000000c4 _raise_r
0000487c g     F .text	000000c0 _fstat
000001dc g     F .exceptions	00000118 handle_trap
00008c88 g     O .bss	00000004 __malloc_top_pad
00005ba8 g     F .text	00000004 _getpid_r
00008c5c g     O .bss	00000004 __dso_handle
000057b0 g     F .text	000000e0 __sigtramp_r
000033e0 g     F .text	00000058 _sbrk_r
00004584 g     F .text	00000064 _read_r
000074b4 g     O .rwdata	00000004 alt_max_fd
000037d0 g     F .text	00000170 _fclose_r
00004340 g     F .text	000000d0 fflush
00008c84 g     O .bss	00000004 __malloc_max_sbrked_mem
0000553c g     F .text	0000001c __stack_chk_init
00008c9c g     O .bss	00000001 __lock___env_recursive_mutex
00004980 g     F .text	000000fc _isatty
00009024 g       *ABS*	00000000 __bss_end
000015d8 g     F .text	0000017c alt_iic_isr_register
00001a38 g     F .text	00000158 alt_tick
00004ccc g     F .text	00000168 _open
00004f80 g     F .text	000000b4 _sbrk
00005498 g     F .text	00000098 __stack_chk_fail
00005d68 g       *ABS*	00000000 __tbss_start
00001ea8 g     F .text	0000007c alt_niosv_mtimecmp_interrupt_init
000024fc g     F .text	00000034 __fp_lock_all
000019a0 g     F .text	00000098 alt_alarm_stop
000000e8 g     F .exceptions	000000f4 alt_irq_handler
00006dc8 g     O .rwdata	00000028 alt_dev_null
00003738 g     F .text	0000005c __libc_fini_array
00001c70 g     F .text	00000084 alt_niosv_mtime_get
00001f9c g     F .text	000000e4 _reclaim_reent
00001338 g     F .text	0000001c alt_dcache_flush_all
000000c8 g     F .exceptions	00000020 break_operation
00008ca0 g     O .bss	00000001 __lock___malloc_recursive_mutex
000074d8 g       *ABS*	00000000 __ram_rwdata_end
00008d34 g     O .bss	00000138 __sf
000074ac g     O .rwdata	00000008 alt_dev_list
00005b34 g     F .text	00000014 write
00001c4c g     F .text	00000024 alt_timestamp_freq
00005d68 g       *ABS*	00000000 __ram_rodata_end
00005558 g     F .text	00000010 fstat
00000000 g       *ABS*	00000000 __alt_mem_SDRAM
00009024 g       *ABS*	00000000 end
00001380 g     F .text	0000003c alt_dev_reg
000037c0 g     F .text	00000004 __retarget_lock_release_recursive
000037b4 g     F .text	00000008 __retarget_lock_try_acquire_recursive
000007c0 g     F .text	000000c0 altera_avalon_jtag_uart_init
04000000 g       *ABS*	00000000 __alt_stack_pointer
00000f0c g     F .text	0000023c altera_avalon_jtag_uart_write
000024e4 g     F .text	0000000c __sfp_lock_acquire
00003d0c g     F .text	00000308 _free_r
00003274 g     F .text	00000154 __call_exitprocs
00008e94 g     O .bss	00000190 __atexit0
000074c8 g     O .rwdata	00000004 __malloc_sbrk_base
00000344 g     F .text	000000ac _start
00008c60 g     O .bss	00000004 _alt_tick_rate
000037ac g     F .text	00000008 __retarget_lock_try_acquire
00004ac0 g     F .text	000000e0 _lseek
00008c68 g     O .bss	00000008 _alt_nticks
00005950 g     F .text	000000a4 signal
00001d70 g     F .text	0000008c alt_niosv_mtimecmp_get
000005bc g     F .text	00000090 alt_sys_init
000027fc g     F .text	00000064 _open_r
00005d68 g       *ABS*	00000000 __tdata_source
000045e8 g     F .text	000000ec __register_exitproc
00000b74 g     F .text	0000006c altera_avalon_jtag_uart_close
00005d68 g       *ABS*	00000000 __ram_rwdata_start
00005d0c g       *ABS*	00000000 __ram_rodata_start
00008e6c g     O .bss	00000028 __malloc_current_mallinfo
00008c70 g     O .bss	00000008 alt_niosv_timestamp_offset
00008c4c g     O .bss	00000004 alt_niosv_timer_interrupt_handler
0000064c g     F .text	00000064 altera_avalon_jtag_uart_read_fd
000053d8 g     F .text	000000c0 alt_get_fd
000012b0 g     F .text	00000088 alt_busy_sleep
00004410 g     F .text	00000058 _close_r
00000714 g     F .text	00000054 altera_avalon_jtag_uart_close_fd
00009024 g       *ABS*	00000000 __alt_stack_base
00000768 g     F .text	00000058 altera_avalon_jtag_uart_ioctl_fd
000037a0 g     F .text	00000004 __retarget_lock_close_recursive
0000231c g     F .text	00000158 __sfp
0000709c g     O .rwdata	00000408 __malloc_av_
00008c8c g     O .bss	00000004 __atexit
00002914 g     F .text	0000005c __sread
0000529c g     F .text	0000013c alt_find_file
00001400 g     F .text	000000a8 alt_dev_llist_insert
0000370c g     F .text	0000000c __malloc_lock
00005d0c g       *ABS*	00000000 __fini_array_start
00004260 g     F .text	000000e0 _fflush_r
000037a8 g     F .text	00000004 __retarget_lock_acquire_recursive
00008c48 g       *ABS*	00000000 __bss_start
00005d68 g       *ABS*	00000000 __tdata_start
00005d68 g       *ABS*	00000000 __tdata_end
0000394c g     F .text	000000dc memset
000002f4 g     F .text	00000050 main
04000000 g       *ABS*	00000000 __alt_mem_RAM
00008c58 g     O .bss	00000004 alt_envp
00008c80 g     O .bss	00000004 __malloc_max_total_mem
000006b0 g     F .text	00000064 altera_avalon_jtag_uart_write_fd
00003798 g     F .text	00000004 __retarget_lock_init_recursive
00002a78 g     F .text	00000008 __sclose
04000000 g       *ABS*	00000000 __alt_heap_limit
00003940 g     F .text	0000000c fclose
00001bb4 g     F .text	00000040 alt_timestamp_start
00005d0c g       *ABS*	00000000 __init_array_end
00002a98 g     F .text	000007dc _malloc_r
000074b8 g     O .rwdata	00000004 alt_errno
000059f4 g     F .text	0000005c _init_signal
00003bcc g     F .text	00000140 _malloc_trim_r
00005d0c g       *ABS*	00000000 __flash_rodata_start
00003794 g     F .text	00000004 __retarget_lock_init
00000584 g     F .text	00000038 alt_irq_init
0000192c g     F .text	00000074 alt_release_fd
00003724 g     F .text	00000014 atexit
00003438 g     F .text	00000064 _write_r
000074c4 g     O .rwdata	00000004 _impure_ptr
00008c50 g     O .bss	00000004 alt_argc
00004014 g     F .text	0000024c __sflush_r
00001508 g     F .text	00000060 _do_dtors
00002860 g     F .text	000000b4 _fwalk_sglue
00002530 g     F .text	00000034 __fp_unlock_all
000074a4 g     O .rwdata	00000008 alt_fs_list
00000000 g       *ABS*	00000000 __ram_exceptions_start
00001bf4 g     F .text	00000058 alt_timestamp
00003634 g     F .text	000000d8 __swhatbuf_r
00001584 g     F .text	00000054 alt_ic_isr_register
00007090 g     O .rwdata	0000000c __sglue
00000000 g     F .exceptions	00000000 trap_vector
00005078 g     F .text	00000104 _write
000074d8 g       *ABS*	00000000 _edata
00009024 g       *ABS*	00000000 _end
000002f4 g       *ABS*	00000000 __ram_exceptions_end
00008ca4 g     O .bss	00000001 __lock___at_quick_exit_mutex
00000be0 g     F .text	00000100 altera_avalon_jtag_uart_ioctl
00001b90 g     F .text	00000024 intel_niosv_irq_init
00002978 g     F .text	00000088 __swrite
000074cc g     O .rwdata	00000004 __malloc_trim_threshold
00001f24 g     F .text	00000030 exit
00005c10 g     F .text	000000f4 _kill
00006f70 g     O .rwdata	00000120 _impure_data
04000000 g       *ABS*	00000000 __alt_data_end
00005d68 g       *ABS*	00000000 __tbss_end
000024f0 g     F .text	0000000c __sfp_lock_release
00004e78 g     F .text	00000108 _read
00005d04 g       *ABS*	00000000 __init_array_start
000037a4 g     F .text	00000004 __retarget_lock_acquire
000037bc g     F .text	00000004 __retarget_lock_release
000047f8 g     F .text	00000040 _exit
00001148 g     F .text	00000168 alt_alarm_start
00008c94 g     O .bss	00000001 __lock___dd_hash_mutex
0000349c g     F .text	00000198 __smakebuf_r
00008c98 g     O .bss	00000001 __lock___tz_mutex
00005568 g     F .text	0000008c strlen
000055f4 g     F .text	0000005c _init_signal_r
00001f54 g     F .text	00000048 open
00001568 g     F .text	0000001c alt_icache_flush_all
00001cf4 g     F .text	0000007c alt_niosv_mtimecmp_set
000074bc g     O .rwdata	00000008 alt_alarm_list
000014a8 g     F .text	00000060 _do_ctors
00005a50 g     F .text	000000e4 __sigtramp
000037c4 g     F .text	0000000c close
00000454 g     F .text	00000074 alt_load
00008c48 g     O .bss	00000004 alt_niosv_software_interrupt_handler
00008cac g     O .bss	00000001 __lock___sfp_recursive_mutex
00005890 g     F .text	000000c0 raise
00004718 g     F .text	000000e0 _close
00002a8c g     F .text	0000000c free



Disassembly of section .entry:

04000000 <__reset>:
 * Jump to the _start entry point in the .text section if reset code
 * is allowed or if optimizing for RTL simulation.
 */

    /* Jump to the _start entry point in the .text section. */
    tail _start
 4000000:	34400067          	jr	836(zero) # 344 <_start>
	...

Disassembly of section .exceptions:

00000000 <trap_vector>:
    /* Save caller-saved registers on the stack */

#if __riscv_flen == 32 // rv32if
    addi sp, sp, -36 * 4
#elif ALT_CPU_NUM_GPR == 32 // rv32i
	addi sp, sp, -16 * 4
   0:	fc010113          	add	sp,sp,-64
#else // rv32e (16-bit)
	addi sp, sp, -10 * 4
#endif

    /* rv32e (16-bit), rv32i and rv32if */
    sw ra,  0 * 4(sp)
   4:	00112023          	sw	ra,0(sp)
    sw t0,  1 * 4(sp)
   8:	00512223          	sw	t0,4(sp)
    sw t1,  2 * 4(sp)
   c:	00612423          	sw	t1,8(sp)
    sw t2,  3 * 4(sp)
  10:	00712623          	sw	t2,12(sp)
    sw a0,  4 * 4(sp)
  14:	00a12823          	sw	a0,16(sp)
    sw a1,  5 * 4(sp)
  18:	00b12a23          	sw	a1,20(sp)
    sw a2,  6 * 4(sp)
  1c:	00c12c23          	sw	a2,24(sp)
    sw a3,  7 * 4(sp)
  20:	00d12e23          	sw	a3,28(sp)
    sw a4,  8 * 4(sp)
  24:	02e12023          	sw	a4,32(sp)
    sw a5,  9 * 4(sp)
  28:	02f12223          	sw	a5,36(sp)

    /* rv32i and rv32if */
#if ALT_CPU_NUM_GPR == 32 
    sw a6, 10 * 4(sp)
  2c:	03012423          	sw	a6,40(sp)
    sw a7, 11 * 4(sp)
  30:	03112623          	sw	a7,44(sp)
    sw t3, 12 * 4(sp)
  34:	03c12823          	sw	t3,48(sp)
    sw t4, 13 * 4(sp)
  38:	03d12a23          	sw	t4,52(sp)
    sw t5, 14 * 4(sp)
  3c:	03e12c23          	sw	t5,56(sp)
    sw t6, 15 * 4(sp)
  40:	03f12e23          	sw	t6,60(sp)
    fsw fa6, 34 * 4(sp)
    fsw fa7, 35 * 4(sp)
#endif
   
    /* Call handle_trap to dispatch the correct handler, if available */
    csrr a0, mcause
  44:	34202573          	csrr	a0,mcause
    csrr a1, mepc
  48:	341025f3          	csrr	a1,mepc
    csrr a2, mtval
  4c:	34302673          	csrr	a2,mtval
    jal handle_trap
  50:	18c000ef          	jal	1dc <handle_trap>
    csrw mepc, a0
  54:	34151073          	csrw	mepc,a0

    /* Restore caller-saved registers */

    /* rv32e (16-bit), rv32i and rv32if */
    lw ra,  0 * 4(sp)
  58:	00012083          	lw	ra,0(sp)
    lw t0,  1 * 4(sp)
  5c:	00412283          	lw	t0,4(sp)
    lw t1,  2 * 4(sp)
  60:	00812303          	lw	t1,8(sp)
    lw t2,  3 * 4(sp)
  64:	00c12383          	lw	t2,12(sp)
    lw a0,  4 * 4(sp)
  68:	01012503          	lw	a0,16(sp)
    lw a1,  5 * 4(sp)
  6c:	01412583          	lw	a1,20(sp)
    lw a2,  6 * 4(sp)
  70:	01812603          	lw	a2,24(sp)
    lw a3,  7 * 4(sp)
  74:	01c12683          	lw	a3,28(sp)
    lw a4,  8 * 4(sp)
  78:	02012703          	lw	a4,32(sp)
    lw a5,  9 * 4(sp)
  7c:	02412783          	lw	a5,36(sp)

    /* rv32i and rv32if */
#if ALT_CPU_NUM_GPR == 32	
    lw a6, 10 * 4(sp)
  80:	02812803          	lw	a6,40(sp)
    lw a7, 11 * 4(sp)
  84:	02c12883          	lw	a7,44(sp)
    lw t3, 12 * 4(sp)
  88:	03012e03          	lw	t3,48(sp)
    lw t4, 13 * 4(sp)
  8c:	03412e83          	lw	t4,52(sp)
    lw t5, 14 * 4(sp)
  90:	03812f03          	lw	t5,56(sp)
    lw t6, 15 * 4(sp)
  94:	03c12f83          	lw	t6,60(sp)
#endif

#if __riscv_flen == 32 // rv32if
    addi sp, sp, 36 * 4
#elif ALT_CPU_NUM_GPR == 32 // rv32i
	addi sp, sp, 16 * 4
  98:	04010113          	add	sp,sp,64
    lw s0, 0(sp)
    lw s1, 4(sp)
    addi sp, sp, 8
#endif

    mret
  9c:	30200073          	mret

000000a0 <is_ecc_handler_present>:
    }

    return epc;
}

alt_u32 is_ecc_handler_present (alt_u32 e_code) {
  a0:	fd010113          	add	sp,sp,-48
  a4:	02812623          	sw	s0,44(sp)
  a8:	03010413          	add	s0,sp,48
  ac:	fca42e23          	sw	a0,-36(s0)
#ifdef ALT_CPU_ECC_PRESENT
    alt_u32 present = (e_code == NIOSV_ECC_EXCEPTION && alt_ecc_exception_handler);
#else
    alt_u32 present = 0;
  b0:	fe042623          	sw	zero,-20(s0)
#endif
    return present;
  b4:	fec42783          	lw	a5,-20(s0)
} 
  b8:	00078513          	mv	a0,a5
  bc:	02c12403          	lw	s0,44(sp)
  c0:	03010113          	add	sp,sp,48
  c4:	00008067          	ret

000000c8 <break_operation>:

void break_operation (void)
{
  c8:	ff010113          	add	sp,sp,-16
  cc:	00812623          	sw	s0,12(sp)
  d0:	01010413          	add	s0,sp,16
#ifdef ALT_CPU_HAS_DEBUG_STUB
            NIOSV_EBREAK();
  d4:	00100073          	ebreak
#else  // ALT_CPU_HAS_DEBUG_STUB
            while(1)
                ;
#endif // ALT_CPU_HAS_DEBUG_STUB  
}
  d8:	00000013          	nop
  dc:	00c12403          	lw	s0,12(sp)
  e0:	01010113          	add	sp,sp,16
  e4:	00008067          	ret

000000e8 <alt_irq_handler>:
 * This means that if there is never a call to alt_irq_register() then
 * this function will not get linked in to the executable. This is acceptable
 * since if no handler is ever registered, then an interrupt can never occur.
 */
void alt_irq_handler (void)
{
  e8:	fd010113          	add	sp,sp,-48
  ec:	02112623          	sw	ra,44(sp)
  f0:	02812423          	sw	s0,40(sp)
  f4:	03010413          	add	s0,sp,48
    alt_u32 i;

    /*
     * Notify the operating system that we are at interrupt level.
     */  
    ALT_OS_INT_ENTER();
  f8:	00000013          	nop
{
#if ALT_HAS_IRQ_SUPPORT
    alt_u32 active;
    alt_u32 enabled;

    NIOSV_READ_CSR(NIOSV_MIP_CSR, active);
  fc:	344027f3          	csrr	a5,mip
 100:	fef42023          	sw	a5,-32(s0)
    NIOSV_READ_CSR(NIOSV_MIE_CSR, enabled);
 104:	304027f3          	csrr	a5,mie
 108:	fef42223          	sw	a5,-28(s0)

    // Since this is used by alt_irq_handler, we want to only process the upper 16-bits
    // --> the interrupt lines connected via Platform Designer...
    return (active & enabled) >> 16;
 10c:	fe042703          	lw	a4,-32(s0)
 110:	fe442783          	lw	a5,-28(s0)
 114:	00f777b3          	and	a5,a4,a5
 118:	0107d793          	srl	a5,a5,0x10
     * reduced by finding out which interrupts are pending as late as possible.
     * Consider the case where the high priority interupt is asserted during
     * the interrupt entry sequence for a lower priority interrupt to see why
     * this is the case.
     */
    active = alt_irq_pending();
 11c:	fcf42a23          	sw	a5,-44(s0)

    do
    {
        i = 0;
 120:	fc042e23          	sw	zero,-36(s0)
        mask = 1;
 124:	00100793          	li	a5,1
 128:	fcf42c23          	sw	a5,-40(s0)
         * called to clear the interrupt condition.
         */

        do
        {
            if (active & mask)
 12c:	fd442703          	lw	a4,-44(s0)
 130:	fd842783          	lw	a5,-40(s0)
 134:	00f777b3          	and	a5,a4,a5
 138:	06078263          	beqz	a5,19c <alt_irq_handler+0xb4>
            {
                alt_irq[i].handler(alt_irq[i].context); 
 13c:	000097b7          	lui	a5,0x9
 140:	cb478713          	add	a4,a5,-844 # 8cb4 <alt_irq>
 144:	fdc42783          	lw	a5,-36(s0)
 148:	00379793          	sll	a5,a5,0x3
 14c:	00f707b3          	add	a5,a4,a5
 150:	0007a703          	lw	a4,0(a5)
 154:	000097b7          	lui	a5,0x9
 158:	cb478693          	add	a3,a5,-844 # 8cb4 <alt_irq>
 15c:	fdc42783          	lw	a5,-36(s0)
 160:	00379793          	sll	a5,a5,0x3
 164:	00f687b3          	add	a5,a3,a5
 168:	0047a783          	lw	a5,4(a5)
 16c:	00078513          	mv	a0,a5
 170:	000700e7          	jalr	a4
                break;
 174:	00000013          	nop
    NIOSV_READ_CSR(NIOSV_MIP_CSR, active);
 178:	344027f3          	csrr	a5,mip
 17c:	fef42423          	sw	a5,-24(s0)
    NIOSV_READ_CSR(NIOSV_MIE_CSR, enabled);
 180:	304027f3          	csrr	a5,mie
 184:	fef42623          	sw	a5,-20(s0)
    return (active & enabled) >> 16;
 188:	fe842703          	lw	a4,-24(s0)
 18c:	fec42783          	lw	a5,-20(s0)
 190:	00f777b3          	and	a5,a4,a5
 194:	0107d793          	srl	a5,a5,0x10
 198:	0200006f          	j	1b8 <alt_irq_handler+0xd0>
            }
            
            mask <<= 1;
 19c:	fd842783          	lw	a5,-40(s0)
 1a0:	00179793          	sll	a5,a5,0x1
 1a4:	fcf42c23          	sw	a5,-40(s0)
            i++;
 1a8:	fdc42783          	lw	a5,-36(s0)
 1ac:	00178793          	add	a5,a5,1
 1b0:	fcf42e23          	sw	a5,-36(s0)
            if (active & mask)
 1b4:	f79ff06f          	j	12c <alt_irq_handler+0x44>
            
        } while (1);

        active = alt_irq_pending();
 1b8:	fcf42a23          	sw	a5,-44(s0)
    
    } while (active);
 1bc:	fd442783          	lw	a5,-44(s0)
 1c0:	f60790e3          	bnez	a5,120 <alt_irq_handler+0x38>

    /*
     * Notify the operating system that interrupt processing is complete.
     */ 

    ALT_OS_INT_EXIT();
 1c4:	00000013          	nop
}
 1c8:	00000013          	nop
 1cc:	02c12083          	lw	ra,44(sp)
 1d0:	02812403          	lw	s0,40(sp)
 1d4:	03010113          	add	sp,sp,48
 1d8:	00008067          	ret

000001dc <handle_trap>:
{
 1dc:	fd010113          	add	sp,sp,-48
 1e0:	02112623          	sw	ra,44(sp)
 1e4:	02812423          	sw	s0,40(sp)
 1e8:	03010413          	add	s0,sp,48
 1ec:	fca42e23          	sw	a0,-36(s0)
 1f0:	fcb42c23          	sw	a1,-40(s0)
 1f4:	fcc42a23          	sw	a2,-44(s0)
    is_irq = (cause & NIOSV_MCAUSE_INTERRUPT_MASK);
 1f8:	fdc42703          	lw	a4,-36(s0)
 1fc:	800007b7          	lui	a5,0x80000
 200:	00f777b3          	and	a5,a4,a5
 204:	fef42423          	sw	a5,-24(s0)
    exception_code = (cause & ~NIOSV_MCAUSE_INTERRUPT_MASK);
 208:	fdc42703          	lw	a4,-36(s0)
 20c:	800007b7          	lui	a5,0x80000
 210:	fff78793          	add	a5,a5,-1 # 7fffffff <__reset+0x7bffffff>
 214:	00f777b3          	and	a5,a4,a5
 218:	fef42623          	sw	a5,-20(s0)
    if (is_irq) {
 21c:	fe842783          	lw	a5,-24(s0)
 220:	08078863          	beqz	a5,2b0 <handle_trap+0xd4>
        switch (exception_code) {
 224:	fec42703          	lw	a4,-20(s0)
 228:	00300793          	li	a5,3
 22c:	04f70063          	beq	a4,a5,26c <handle_trap+0x90>
 230:	fec42703          	lw	a4,-20(s0)
 234:	00700793          	li	a5,7
 238:	06f71263          	bne	a4,a5,29c <handle_trap+0xc0>
                if (alt_niosv_timer_interrupt_handler) {
 23c:	000097b7          	lui	a5,0x9
 240:	c4c7a783          	lw	a5,-948(a5) # 8c4c <alt_niosv_timer_interrupt_handler>
 244:	08078263          	beqz	a5,2c8 <handle_trap+0xec>
                    ALT_OS_INT_ENTER();
 248:	00000013          	nop
                    alt_niosv_timer_interrupt_handler(cause, epc, tval);
 24c:	000097b7          	lui	a5,0x9
 250:	c4c7a783          	lw	a5,-948(a5) # 8c4c <alt_niosv_timer_interrupt_handler>
 254:	fd442603          	lw	a2,-44(s0)
 258:	fd842583          	lw	a1,-40(s0)
 25c:	fdc42503          	lw	a0,-36(s0)
 260:	000780e7          	jalr	a5
                    ALT_OS_INT_EXIT();
 264:	00000013          	nop
                break;
 268:	0600006f          	j	2c8 <handle_trap+0xec>
                if (alt_niosv_software_interrupt_handler) {
 26c:	000097b7          	lui	a5,0x9
 270:	c487a783          	lw	a5,-952(a5) # 8c48 <alt_niosv_software_interrupt_handler>
 274:	04078e63          	beqz	a5,2d0 <handle_trap+0xf4>
                    ALT_OS_INT_ENTER();
 278:	00000013          	nop
                    alt_niosv_software_interrupt_handler(cause, epc, tval);
 27c:	000097b7          	lui	a5,0x9
 280:	c487a783          	lw	a5,-952(a5) # 8c48 <alt_niosv_software_interrupt_handler>
 284:	fd442603          	lw	a2,-44(s0)
 288:	fd842583          	lw	a1,-40(s0)
 28c:	fdc42503          	lw	a0,-36(s0)
 290:	000780e7          	jalr	a5
                    ALT_OS_INT_EXIT();
 294:	00000013          	nop
                break;
 298:	0380006f          	j	2d0 <handle_trap+0xf4>
                if (exception_code >= 16) {
 29c:	fec42703          	lw	a4,-20(s0)
 2a0:	00f00793          	li	a5,15
 2a4:	02e7fa63          	bgeu	a5,a4,2d8 <handle_trap+0xfc>
                    alt_irq_handler();
 2a8:	e41ff0ef          	jal	e8 <alt_irq_handler>
                break;
 2ac:	02c0006f          	j	2d8 <handle_trap+0xfc>
        if (!is_ecc_handler_present(exception_code)) {
 2b0:	fec42503          	lw	a0,-20(s0)
 2b4:	dedff0ef          	jal	a0 <is_ecc_handler_present>
 2b8:	00050793          	mv	a5,a0
 2bc:	02079063          	bnez	a5,2dc <handle_trap+0x100>
             break_operation();
 2c0:	e09ff0ef          	jal	c8 <break_operation>
 2c4:	0180006f          	j	2dc <handle_trap+0x100>
                break;
 2c8:	00000013          	nop
 2cc:	0100006f          	j	2dc <handle_trap+0x100>
                break;
 2d0:	00000013          	nop
 2d4:	0080006f          	j	2dc <handle_trap+0x100>
                break;
 2d8:	00000013          	nop
    return epc;
 2dc:	fd842783          	lw	a5,-40(s0)
}
 2e0:	00078513          	mv	a0,a5
 2e4:	02c12083          	lw	ra,44(sp)
 2e8:	02812403          	lw	s0,40(sp)
 2ec:	03010113          	add	sp,sp,48
 2f0:	00008067          	ret

Disassembly of section .text:

000002f4 <main>:

#define LED_REG (*(volatile uint32_t*)PIO_LED_BASE)
#define ms		1000

int main()
{
     2f4:	fe010113          	add	sp,sp,-32
     2f8:	00112e23          	sw	ra,28(sp)
     2fc:	00812c23          	sw	s0,24(sp)
     300:	02010413          	add	s0,sp,32
	int i = 0;
     304:	fe042623          	sw	zero,-20(s0)
    while(1)
    {
    	if(i<=0xFF){
     308:	fec42703          	lw	a4,-20(s0)
     30c:	0ff00793          	li	a5,255
     310:	02e7c063          	blt	a5,a4,330 <main+0x3c>
    		LED_REG = (uint32_t)i++;
     314:	fec42783          	lw	a5,-20(s0)
     318:	00178713          	add	a4,a5,1
     31c:	fee42623          	sw	a4,-20(s0)
     320:	04090737          	lui	a4,0x4090
     324:	04070713          	add	a4,a4,64 # 4090040 <__reset+0x90040>
     328:	00f72023          	sw	a5,0(a4)
     32c:	0080006f          	j	334 <main+0x40>
    	}
    	else{
    		i = 0;
     330:	fe042623          	sw	zero,-20(s0)
    	}
    	usleep(100*ms);
     334:	000187b7          	lui	a5,0x18
     338:	6a078513          	add	a0,a5,1696 # 186a0 <__alt_heap_start+0xf67c>
     33c:	214000ef          	jal	550 <usleep>
    	if(i<=0xFF){
     340:	fc9ff06f          	j	308 <main+0x14>

00000344 <_start>:
    .type _start, @function
_start:
#if ALT_CPU_HAS_CSR_SUPPORT
    /* assume that we are in machine mode on startup */
    /* setup trap to catch anything that goes wrong early in the boot process */
    la t0, trap_vector
     344:	00000297          	auipc	t0,0x0
     348:	cbc28293          	add	t0,t0,-836 # 0 <trap_vector>
    csrw mtvec, t0
     34c:	30529073          	csrw	mtvec,t0

    /* disable all interrupt */
    li t0, 0x88
     350:	08800293          	li	t0,136
    csrc mstatus, t0
     354:	3002b073          	csrc	mstatus,t0
    csrw mie, zero
     358:	30401073          	csrw	mie,zero
    csrw mip, zero
     35c:	34401073          	csrw	mip,zero
#endif /* Initialize Data Cache */
#endif /* ALT_SIM_OPTIMIZE */

    .option push
    .option norelax
    la gp, __global_pointer$
     360:	00008197          	auipc	gp,0x8
     364:	94418193          	add	gp,gp,-1724 # 7ca4 <__global_pointer$>

    /*
     * Now that the caches are initialized, set up the stack pointer and global pointer.
     * The values provided by the linker are assumed to be correctly aligned.
     */
    la sp, __alt_stack_pointer
     368:	04000117          	auipc	sp,0x4000
     36c:	c9810113          	add	sp,sp,-872 # 4000000 <__reset>
    /* Log that the BSS is about to be cleared. */
#ifdef ALT_LOG_ENABLE
    ALT_LOG_PUTS(alt_log_msg_bss)
#endif /* ALT_LOG_ENABLE */

    la t1, __bss_start
     370:	00009317          	auipc	t1,0x9
     374:	8d830313          	add	t1,t1,-1832 # 8c48 <alt_niosv_software_interrupt_handler>
    la t2, __bss_end
     378:	00009397          	auipc	t2,0x9
     37c:	cac38393          	add	t2,t2,-852 # 9024 <__alt_heap_start>
0:
    sw zero, (t1)
     380:	00032023          	sw	zero,0(t1)
    addi t1, t1, 4
     384:	00430313          	add	t1,t1,4
    bltu t1, t2, 0b
     388:	fe736ce3          	bltu	t1,t2,380 <_start+0x3c>
/*
 * The alt_load() facility is normally used when there is no bootloader.
 * It copies some sections into RAM so it acts like a mini-bootloader.
 */
#ifdef CALL_ALT_LOAD
    call alt_load
     38c:	0c8000ef          	jal	454 <alt_load>
 */
#ifndef ALT_SIM_OPTIMIZE
.globl __tbss_start
.globl __tbss_end

    la t1, __tbss_start
     390:	00006317          	auipc	t1,0x6
     394:	9d830313          	add	t1,t1,-1576 # 5d68 <JTAG_UART>
    la t2, __tbss_end
     398:	00006397          	auipc	t2,0x6
     39c:	9d038393          	add	t2,t2,-1584 # 5d68 <JTAG_UART>
    
    // Check if we need to skip this (if .tbss is empty)
    bgeu t1, t2, 1f
     3a0:	00737863          	bgeu	t1,t2,3b0 <_start+0x6c>
0:
    sw zero, (t1)
     3a4:	00032023          	sw	zero,0(t1)
    addi t1, t1, 4
     3a8:	00430313          	add	t1,t1,4
    bltu t1, t2, 0b
     3ac:	fe736ce3          	bltu	t1,t2,3a4 <_start+0x60>
// Copy tdata to tdata golden source location
.globl __tdata_start
.globl __tdata_end
.globl __tdata_source

    la t0, __tdata_start
     3b0:	00006297          	auipc	t0,0x6
     3b4:	9b828293          	add	t0,t0,-1608 # 5d68 <JTAG_UART>
    la t1, __tdata_end
     3b8:	00006317          	auipc	t1,0x6
     3bc:	9b030313          	add	t1,t1,-1616 # 5d68 <JTAG_UART>
    la t2, __tdata_source
     3c0:	00006397          	auipc	t2,0x6
     3c4:	9a838393          	add	t2,t2,-1624 # 5d68 <JTAG_UART>

    // Check if we need to skip this (if .tdata is empty)
    bgeu t0, t1, 1f
     3c8:	0062fc63          	bgeu	t0,t1,3e0 <_start+0x9c>
0:
    lw s1, (t0)
     3cc:	0002a483          	lw	s1,0(t0)
    sw s1, (t2)
     3d0:	0093a023          	sw	s1,0(t2)
    addi t0, t0, 4
     3d4:	00428293          	add	t0,t0,4
    addi t2, t2, 4
     3d8:	00438393          	add	t2,t2,4
    bltu t0, t1, 0b
     3dc:	fe62e8e3          	bltu	t0,t1,3cc <_start+0x88>
1:

// Assign thread pointer register (tp) to main thread tls base
.globl __tls_base
    la tp, __tls_base
     3e0:	00006217          	auipc	tp,0x6
     3e4:	98820213          	add	tp,tp,-1656 # 5d68 <JTAG_UART>
#ifdef ALT_LOG_ENABLE
    ALT_LOG_PUTS(alt_log_msg_alt_main)
#endif /* ALT_LOG_ENABLE */

    /* Call the C entry point. It should never return. */
    call alt_main
     3e8:	0e0000ef          	jal	4c8 <alt_main>

000003ec <alt_after_alt_main>:

    /* Wait in infinite loop in case alt_main does return. */
alt_after_alt_main:
    j alt_after_alt_main
     3ec:	0000006f          	j	3ec <alt_after_alt_main>

000003f0 <alt_load_section>:
     3f0:	fe010113          	add	sp,sp,-32
     3f4:	00812e23          	sw	s0,28(sp)
 */  

void alt_load (void)
{
  /* 
   * Copy the .rwdata section. 
     3f8:	02010413          	add	s0,sp,32
     3fc:	fea42623          	sw	a0,-20(s0)
     400:	feb42423          	sw	a1,-24(s0)
     404:	fec42223          	sw	a2,-28(s0)
   */
     408:	fe842703          	lw	a4,-24(s0)
     40c:	fec42783          	lw	a5,-20(s0)
     410:	02f70a63          	beq	a4,a5,444 <alt_load_section+0x54>

  alt_load_section (&__flash_rwdata_start, 
     414:	0240006f          	j	438 <alt_load_section+0x48>
		               &__ram_rwdata_start,
		               &__ram_rwdata_end);
     418:	fec42703          	lw	a4,-20(s0)
     41c:	00470793          	add	a5,a4,4
     420:	fef42623          	sw	a5,-20(s0)
     424:	fe842783          	lw	a5,-24(s0)
     428:	00478693          	add	a3,a5,4
     42c:	fed42423          	sw	a3,-24(s0)
     430:	00072703          	lw	a4,0(a4)
     434:	00e7a023          	sw	a4,0(a5)
  alt_load_section (&__flash_rwdata_start, 
     438:	fe842703          	lw	a4,-24(s0)
     43c:	fe442783          	lw	a5,-28(s0)
     440:	fcf71ce3          	bne	a4,a5,418 <alt_load_section+0x28>

  /*
   * Copy the exception handler.
     444:	00000013          	nop
     448:	01c12403          	lw	s0,28(sp)
     44c:	02010113          	add	sp,sp,32
     450:	00008067          	ret

00000454 <alt_load>:
{
     454:	ff010113          	add	sp,sp,-16
     458:	00112623          	sw	ra,12(sp)
     45c:	00812423          	sw	s0,8(sp)
     460:	01010413          	add	s0,sp,16
  alt_load_section (&__flash_rwdata_start, 
     464:	000077b7          	lui	a5,0x7
     468:	4d878613          	add	a2,a5,1240 # 74d8 <__flash_rwdata_start>
     46c:	000067b7          	lui	a5,0x6
     470:	d6878593          	add	a1,a5,-664 # 5d68 <JTAG_UART>
     474:	000077b7          	lui	a5,0x7
     478:	4d878513          	add	a0,a5,1240 # 74d8 <__flash_rwdata_start>
     47c:	f75ff0ef          	jal	3f0 <alt_load_section>
   */

  alt_load_section (&__flash_exceptions_start, 
     480:	2f400613          	li	a2,756
     484:	00000593          	li	a1,0
     488:	00000513          	li	a0,0
     48c:	f65ff0ef          	jal	3f0 <alt_load_section>

  /*
   * Copy the .rodata section.
   */

  alt_load_section (&__flash_rodata_start, 
     490:	000067b7          	lui	a5,0x6
     494:	d6878613          	add	a2,a5,-664 # 5d68 <JTAG_UART>
     498:	000067b7          	lui	a5,0x6
     49c:	d0c78593          	add	a1,a5,-756 # 5d0c <__fini_array_end>
     4a0:	000067b7          	lui	a5,0x6
     4a4:	d0c78513          	add	a0,a5,-756 # 5d0c <__fini_array_end>
     4a8:	f49ff0ef          	jal	3f0 <alt_load_section>
  
  /*
   * Now ensure that the caches are in synch.
   */
  
  alt_dcache_flush_all();
     4ac:	68d000ef          	jal	1338 <alt_dcache_flush_all>
  alt_icache_flush_all();
     4b0:	0b8010ef          	jal	1568 <alt_icache_flush_all>
}
     4b4:	00000013          	nop
     4b8:	00c12083          	lw	ra,12(sp)
     4bc:	00812403          	lw	s0,8(sp)
     4c0:	01010113          	add	sp,sp,16
     4c4:	00008067          	ret

000004c8 <alt_main>:
 * devices/filesystems/components in the system; and call the entry point for
 * the users application, i.e. main().
 */

void alt_main (void)
{
     4c8:	fe010113          	add	sp,sp,-32
     4cc:	00112e23          	sw	ra,28(sp)
     4d0:	00812c23          	sw	s0,24(sp)
     4d4:	02010413          	add	s0,sp,32
#endif

  /* ALT LOG - please see HAL/sys/alt_log_printf.h for details */
  ALT_LOG_PRINT_BOOT("[alt_main.c] Entering alt_main, calling alt_irq_init.\r\n");
  /* Initialize the interrupt controller. */
  alt_irq_init (NULL);
     4d8:	00000513          	li	a0,0
     4dc:	0a8000ef          	jal	584 <alt_irq_init>

  /* Initialize the operating system */
  ALT_LOG_PRINT_BOOT("[alt_main.c] Done alt_irq_init, calling alt_os_init.\r\n");
  ALT_OS_INIT();
     4e0:	00000013          	nop
  ALT_LOG_PRINT_BOOT("[alt_main.c] Done OS Init, calling alt_sem_create.\r\n");
  ALT_SEM_CREATE (&alt_fd_list_lock, 1);

  /* Initialize the device drivers/software components. */
  ALT_LOG_PRINT_BOOT("[alt_main.c] Calling alt_sys_init.\r\n");
  alt_sys_init();
     4e4:	0d8000ef          	jal	5bc <alt_sys_init>
   * devices be present (not equal to /dev/null) and if direct drivers
   * aren't being used.
   */

    ALT_LOG_PRINT_BOOT("[alt_main.c] Redirecting IO.\r\n");
    alt_io_redirect(ALT_STDOUT, ALT_STDIN, ALT_STDERR);
     4e8:	000067b7          	lui	a5,0x6
     4ec:	d0c78613          	add	a2,a5,-756 # 5d0c <__fini_array_end>
     4f0:	000067b7          	lui	a5,0x6
     4f4:	d0c78593          	add	a1,a5,-756 # 5d0c <__fini_array_end>
     4f8:	000067b7          	lui	a5,0x6
     4fc:	d0c78513          	add	a0,a5,-756 # 5d0c <__fini_array_end>
     500:	330010ef          	jal	1830 <alt_io_redirect>
  /* 
   * Call the C++ constructors 
   */

  ALT_LOG_PRINT_BOOT("[alt_main.c] Calling C++ constructors.\r\n");
  _do_ctors ();
     504:	7a5000ef          	jal	14a8 <_do_ctors>
   * redefined as _exit()). This is in the interest of reducing code footprint,
   * in that the atexit() overhead is removed when it's not needed.
   */

  ALT_LOG_PRINT_BOOT("[alt_main.c] Calling atexit.\r\n");
  atexit (_do_dtors);
     508:	000017b7          	lui	a5,0x1
     50c:	50878513          	add	a0,a5,1288 # 1508 <_do_dtors>
     510:	214030ef          	jal	3724 <atexit>
  ALT_LOG_PRINT_BOOT("[alt_main.c] Calling main.\r\n");

#ifdef ALT_NO_EXIT
  main (alt_argc, alt_argv, alt_envp);
#else
  result = main (alt_argc, alt_argv, alt_envp);
     514:	000097b7          	lui	a5,0x9
     518:	c507a703          	lw	a4,-944(a5) # 8c50 <alt_argc>
     51c:	000097b7          	lui	a5,0x9
     520:	c547a683          	lw	a3,-940(a5) # 8c54 <alt_argv>
     524:	000097b7          	lui	a5,0x9
     528:	c587a783          	lw	a5,-936(a5) # 8c58 <alt_envp>
     52c:	00078613          	mv	a2,a5
     530:	00068593          	mv	a1,a3
     534:	00070513          	mv	a0,a4
     538:	dbdff0ef          	jal	2f4 <main>
     53c:	fea42623          	sw	a0,-20(s0)
  close(STDOUT_FILENO);
     540:	00100513          	li	a0,1
     544:	280030ef          	jal	37c4 <close>
  exit (result);
     548:	fec42503          	lw	a0,-20(s0)
     54c:	1d9010ef          	jal	1f24 <exit>

00000550 <usleep>:
#if defined (__GNUC__) && __GNUC__ >= 4
int ALT_USLEEP (useconds_t us)
#else
unsigned int ALT_USLEEP (unsigned int us)
#endif
{
     550:	fe010113          	add	sp,sp,-32
     554:	00112e23          	sw	ra,28(sp)
     558:	00812c23          	sw	s0,24(sp)
     55c:	02010413          	add	s0,sp,32
     560:	fea42623          	sw	a0,-20(s0)
  return alt_busy_sleep(us);
     564:	fec42503          	lw	a0,-20(s0)
     568:	549000ef          	jal	12b0 <alt_busy_sleep>
     56c:	00050793          	mv	a5,a0
}
     570:	00078513          	mv	a0,a5
     574:	01c12083          	lw	ra,28(sp)
     578:	01812403          	lw	s0,24(sp)
     57c:	02010113          	add	sp,sp,32
     580:	00008067          	ret

00000584 <alt_irq_init>:
 * The "base" parameter is ignored and only
 * present for backwards-compatibility.
 */

void alt_irq_init ( const void* base )
{
     584:	fe010113          	add	sp,sp,-32
     588:	00112e23          	sw	ra,28(sp)
     58c:	00812c23          	sw	s0,24(sp)
     590:	02010413          	add	s0,sp,32
     594:	fea42623          	sw	a0,-20(s0)
    INTEL_NIOSV_M_IRQ_INIT ( NIOSV, NiosV);
     598:	5f8010ef          	jal	1b90 <intel_niosv_irq_init>
    NIOSV_SET_CSR(NIOSV_MSTATUS_CSR, NIOSV_MSTATUS_MIE_MASK);
     59c:	00800793          	li	a5,8
     5a0:	3007a073          	csrs	mstatus,a5
}
     5a4:	00000013          	nop
    alt_irq_cpu_enable_interrupts();
}
     5a8:	00000013          	nop
     5ac:	01c12083          	lw	ra,28(sp)
     5b0:	01812403          	lw	s0,24(sp)
     5b4:	02010113          	add	sp,sp,32
     5b8:	00008067          	ret

000005bc <alt_sys_init>:
 * Initialize the non-interrupt controller devices.
 * Called after alt_irq_init().
 */

void alt_sys_init( void )
{
     5bc:	fe010113          	add	sp,sp,-32
     5c0:	00112e23          	sw	ra,28(sp)
     5c4:	00812c23          	sw	s0,24(sp)
     5c8:	02010413          	add	s0,sp,32
    ALTERA_AVALON_JTAG_UART_INIT ( JTAG_UART, JTAG_UART);
     5cc:	00000613          	li	a2,0
     5d0:	00000593          	li	a1,0
     5d4:	000067b7          	lui	a5,0x6
     5d8:	d9078513          	add	a0,a5,-624 # 5d90 <JTAG_UART+0x28>
     5dc:	1e4000ef          	jal	7c0 <altera_avalon_jtag_uart_init>
     5e0:	000067b7          	lui	a5,0x6
     5e4:	d6878513          	add	a0,a5,-664 # 5d68 <JTAG_UART>
     5e8:	599000ef          	jal	1380 <alt_dev_reg>
    ALTERA_AVALON_SYSID_QSYS_INIT ( SYSID_QSYS_0, sysid_qsys_0);
     5ec:	00000013          	nop
     5f0:	3e800793          	li	a5,1000
     5f4:	fef42623          	sw	a5,-20(s0)
 * in order to initialise the value of the clock frequency.
 */

static ALT_INLINE int ALT_ALWAYS_INLINE alt_sysclk_init (alt_u32 nticks)
{
  if (! _alt_tick_rate)
     5f8:	000097b7          	lui	a5,0x9
     5fc:	c607a783          	lw	a5,-928(a5) # 8c60 <_alt_tick_rate>
     600:	00079a63          	bnez	a5,614 <alt_sys_init+0x58>
  {
    _alt_tick_rate = nticks;
     604:	000097b7          	lui	a5,0x9
     608:	fec42703          	lw	a4,-20(s0)
     60c:	c6e7a023          	sw	a4,-928(a5) # 8c60 <_alt_tick_rate>
    return 0;
     610:	0080006f          	j	618 <alt_sys_init+0x5c>
  }
  else
  {
    return -1;
     614:	00000013          	nop
     618:	000027b7          	lui	a5,0x2
     61c:	dfc78793          	add	a5,a5,-516 # 1dfc <alt_niosv_timer_sc_isr>
     620:	fef42423          	sw	a5,-24(s0)
alt_u64 alt_niosv_mtimecmp_get();
void alt_niosv_mtimecmp_interrupt_init();
extern alt_niosv_timer_isr_t alt_niosv_timer_interrupt_handler;

static ALT_INLINE void ALT_ALWAYS_INLINE alt_niosv_register_mtimecmp_interrupt_handle(alt_niosv_timer_isr_t handle) {
    alt_niosv_timer_interrupt_handler = handle;
     624:	000097b7          	lui	a5,0x9
     628:	fe842703          	lw	a4,-24(s0)
     62c:	c4e7a623          	sw	a4,-948(a5) # 8c4c <alt_niosv_timer_interrupt_handler>
}
     630:	00000013          	nop
    INTEL_NIOSV_M_INIT ( NIOSV, NiosV);
     634:	075010ef          	jal	1ea8 <alt_niosv_mtimecmp_interrupt_init>
}
     638:	00000013          	nop
     63c:	01c12083          	lw	ra,28(sp)
     640:	01812403          	lw	s0,24(sp)
     644:	02010113          	add	sp,sp,32
     648:	00008067          	ret

0000064c <altera_avalon_jtag_uart_read_fd>:
 *
 */

int 
altera_avalon_jtag_uart_read_fd(alt_fd* fd, char* buffer, int space)
{
     64c:	fd010113          	add	sp,sp,-48
     650:	02112623          	sw	ra,44(sp)
     654:	02812423          	sw	s0,40(sp)
     658:	03010413          	add	s0,sp,48
     65c:	fca42e23          	sw	a0,-36(s0)
     660:	fcb42c23          	sw	a1,-40(s0)
     664:	fcc42a23          	sw	a2,-44(s0)
    altera_avalon_jtag_uart_dev* dev = (altera_avalon_jtag_uart_dev*) fd->dev; 
     668:	fdc42783          	lw	a5,-36(s0)
     66c:	0007a783          	lw	a5,0(a5)
     670:	fef42623          	sw	a5,-20(s0)

    return altera_avalon_jtag_uart_read(&dev->state, buffer, space,
     674:	fec42783          	lw	a5,-20(s0)
     678:	02878713          	add	a4,a5,40
     67c:	fdc42783          	lw	a5,-36(s0)
     680:	0087a783          	lw	a5,8(a5)
     684:	00078693          	mv	a3,a5
     688:	fd442603          	lw	a2,-44(s0)
     68c:	fd842583          	lw	a1,-40(s0)
     690:	00070513          	mv	a0,a4
     694:	64c000ef          	jal	ce0 <altera_avalon_jtag_uart_read>
     698:	00050793          	mv	a5,a0
      fd->fd_flags);
}
     69c:	00078513          	mv	a0,a5
     6a0:	02c12083          	lw	ra,44(sp)
     6a4:	02812403          	lw	s0,40(sp)
     6a8:	03010113          	add	sp,sp,48
     6ac:	00008067          	ret

000006b0 <altera_avalon_jtag_uart_write_fd>:

int 
altera_avalon_jtag_uart_write_fd(alt_fd* fd, const char* buffer, int space)
{
     6b0:	fd010113          	add	sp,sp,-48
     6b4:	02112623          	sw	ra,44(sp)
     6b8:	02812423          	sw	s0,40(sp)
     6bc:	03010413          	add	s0,sp,48
     6c0:	fca42e23          	sw	a0,-36(s0)
     6c4:	fcb42c23          	sw	a1,-40(s0)
     6c8:	fcc42a23          	sw	a2,-44(s0)
    altera_avalon_jtag_uart_dev* dev = (altera_avalon_jtag_uart_dev*) fd->dev; 
     6cc:	fdc42783          	lw	a5,-36(s0)
     6d0:	0007a783          	lw	a5,0(a5)
     6d4:	fef42623          	sw	a5,-20(s0)

    return altera_avalon_jtag_uart_write(&dev->state, buffer, space,
     6d8:	fec42783          	lw	a5,-20(s0)
     6dc:	02878713          	add	a4,a5,40
     6e0:	fdc42783          	lw	a5,-36(s0)
     6e4:	0087a783          	lw	a5,8(a5)
     6e8:	00078693          	mv	a3,a5
     6ec:	fd442603          	lw	a2,-44(s0)
     6f0:	fd842583          	lw	a1,-40(s0)
     6f4:	00070513          	mv	a0,a4
     6f8:	015000ef          	jal	f0c <altera_avalon_jtag_uart_write>
     6fc:	00050793          	mv	a5,a0
      fd->fd_flags);
}
     700:	00078513          	mv	a0,a5
     704:	02c12083          	lw	ra,44(sp)
     708:	02812403          	lw	s0,40(sp)
     70c:	03010113          	add	sp,sp,48
     710:	00008067          	ret

00000714 <altera_avalon_jtag_uart_close_fd>:

#ifndef ALTERA_AVALON_JTAG_UART_SMALL

int 
altera_avalon_jtag_uart_close_fd(alt_fd* fd)
{
     714:	fd010113          	add	sp,sp,-48
     718:	02112623          	sw	ra,44(sp)
     71c:	02812423          	sw	s0,40(sp)
     720:	03010413          	add	s0,sp,48
     724:	fca42e23          	sw	a0,-36(s0)
    altera_avalon_jtag_uart_dev* dev = (altera_avalon_jtag_uart_dev*) fd->dev; 
     728:	fdc42783          	lw	a5,-36(s0)
     72c:	0007a783          	lw	a5,0(a5)
     730:	fef42623          	sw	a5,-20(s0)

    return altera_avalon_jtag_uart_close(&dev->state, fd->fd_flags);
     734:	fec42783          	lw	a5,-20(s0)
     738:	02878713          	add	a4,a5,40
     73c:	fdc42783          	lw	a5,-36(s0)
     740:	0087a783          	lw	a5,8(a5)
     744:	00078593          	mv	a1,a5
     748:	00070513          	mv	a0,a4
     74c:	428000ef          	jal	b74 <altera_avalon_jtag_uart_close>
     750:	00050793          	mv	a5,a0
}
     754:	00078513          	mv	a0,a5
     758:	02c12083          	lw	ra,44(sp)
     75c:	02812403          	lw	s0,40(sp)
     760:	03010113          	add	sp,sp,48
     764:	00008067          	ret

00000768 <altera_avalon_jtag_uart_ioctl_fd>:

int 
altera_avalon_jtag_uart_ioctl_fd(alt_fd* fd, int req, void* arg)
{
     768:	fd010113          	add	sp,sp,-48
     76c:	02112623          	sw	ra,44(sp)
     770:	02812423          	sw	s0,40(sp)
     774:	03010413          	add	s0,sp,48
     778:	fca42e23          	sw	a0,-36(s0)
     77c:	fcb42c23          	sw	a1,-40(s0)
     780:	fcc42a23          	sw	a2,-44(s0)
    altera_avalon_jtag_uart_dev* dev = (altera_avalon_jtag_uart_dev*) fd->dev;
     784:	fdc42783          	lw	a5,-36(s0)
     788:	0007a783          	lw	a5,0(a5)
     78c:	fef42623          	sw	a5,-20(s0)

    return altera_avalon_jtag_uart_ioctl(&dev->state, req, arg);
     790:	fec42783          	lw	a5,-20(s0)
     794:	02878793          	add	a5,a5,40
     798:	fd442603          	lw	a2,-44(s0)
     79c:	fd842583          	lw	a1,-40(s0)
     7a0:	00078513          	mv	a0,a5
     7a4:	43c000ef          	jal	be0 <altera_avalon_jtag_uart_ioctl>
     7a8:	00050793          	mv	a5,a0
}
     7ac:	00078513          	mv	a0,a5
     7b0:	02c12083          	lw	ra,44(sp)
     7b4:	02812403          	lw	s0,40(sp)
     7b8:	03010113          	add	sp,sp,48
     7bc:	00008067          	ret

000007c0 <altera_avalon_jtag_uart_init>:
 * Return 1 on sucessful IRQ register and 0 on failure.
 */

void altera_avalon_jtag_uart_init(altera_avalon_jtag_uart_state* sp, 
                                  int irq_controller_id, int irq)
{
     7c0:	fd010113          	add	sp,sp,-48
     7c4:	02112623          	sw	ra,44(sp)
     7c8:	02812423          	sw	s0,40(sp)
     7cc:	03010413          	add	s0,sp,48
     7d0:	fca42e23          	sw	a0,-36(s0)
     7d4:	fcb42c23          	sw	a1,-40(s0)
     7d8:	fcc42a23          	sw	a2,-44(s0)
  ALT_FLAG_CREATE(&sp->events, 0);
  ALT_SEM_CREATE(&sp->read_lock, 1);
  ALT_SEM_CREATE(&sp->write_lock, 1);

  /* enable read interrupts at the device */
  sp->irq_enable = ALTERA_AVALON_JTAG_UART_CONTROL_RE_MSK;
     7dc:	fdc42783          	lw	a5,-36(s0)
     7e0:	00100713          	li	a4,1
     7e4:	02e7a023          	sw	a4,32(a5)

  IOWR_ALTERA_AVALON_JTAG_UART_CONTROL(sp->base, sp->irq_enable); 
     7e8:	fdc42783          	lw	a5,-36(s0)
     7ec:	0207a783          	lw	a5,32(a5)
     7f0:	fef42623          	sw	a5,-20(s0)
     7f4:	fdc42783          	lw	a5,-36(s0)
     7f8:	0007a783          	lw	a5,0(a5)
     7fc:	00478793          	add	a5,a5,4
     800:	00078713          	mv	a4,a5
     804:	fec42783          	lw	a5,-20(s0)
     808:	00f72023          	sw	a5,0(a4)
  
  /* register the interrupt handler */
#ifdef ALT_ENHANCED_INTERRUPT_API_PRESENT
  alt_ic_isr_register(irq_controller_id, irq, altera_avalon_jtag_uart_irq, 
     80c:	fd842503          	lw	a0,-40(s0)
     810:	fd442583          	lw	a1,-44(s0)
     814:	00000713          	li	a4,0
     818:	fdc42683          	lw	a3,-36(s0)
     81c:	000017b7          	lui	a5,0x1
     820:	88078613          	add	a2,a5,-1920 # 880 <altera_avalon_jtag_uart_irq>
     824:	561000ef          	jal	1584 <alt_ic_isr_register>
#else
  alt_irq_register(irq, sp, altera_avalon_jtag_uart_irq);
#endif  

  /* Register an alarm to go off every second to check for presence of host */
  sp->host_inactive = 0;
     828:	fdc42783          	lw	a5,-36(s0)
     82c:	0207a223          	sw	zero,36(a5)

  if (alt_alarm_start(&sp->alarm, alt_ticks_per_second(), 
     830:	fdc42783          	lw	a5,-36(s0)
     834:	00878713          	add	a4,a5,8
  return _alt_tick_rate;
     838:	000097b7          	lui	a5,0x9
     83c:	c607a583          	lw	a1,-928(a5) # 8c60 <_alt_tick_rate>
     840:	fdc42683          	lw	a3,-36(s0)
     844:	000017b7          	lui	a5,0x1
     848:	ab878613          	add	a2,a5,-1352 # ab8 <altera_avalon_jtag_uart_timeout>
     84c:	00070513          	mv	a0,a4
     850:	0f9000ef          	jal	1148 <alt_alarm_start>
     854:	00050793          	mv	a5,a0
     858:	0007da63          	bgez	a5,86c <altera_avalon_jtag_uart_init+0xac>
    &altera_avalon_jtag_uart_timeout, sp) < 0)
  {
    /* If we can't set the alarm then record "don't know if host present" 
     * and behave as though the host is present.
     */
    sp->timeout = INT_MAX;
     85c:	fdc42783          	lw	a5,-36(s0)
     860:	80000737          	lui	a4,0x80000
     864:	fff70713          	add	a4,a4,-1 # 7fffffff <__reset+0x7bffffff>
     868:	00e7a223          	sw	a4,4(a5)
  }

  /* ALT_LOG - see altera_hal/HAL/inc/sys/alt_log_printf.h */ 
  ALT_LOG_JTAG_UART_ALARM_REGISTER(sp, sp->base);
}
     86c:	00000013          	nop
     870:	02c12083          	lw	ra,44(sp)
     874:	02812403          	lw	s0,40(sp)
     878:	03010113          	add	sp,sp,48
     87c:	00008067          	ret

00000880 <altera_avalon_jtag_uart_irq>:
#ifdef ALT_ENHANCED_INTERRUPT_API_PRESENT
static void altera_avalon_jtag_uart_irq(void* context)
#else
static void altera_avalon_jtag_uart_irq(void* context, alt_u32 id)
#endif
{
     880:	fa010113          	add	sp,sp,-96
     884:	04812e23          	sw	s0,92(sp)
     888:	06010413          	add	s0,sp,96
     88c:	faa42623          	sw	a0,-84(s0)
  altera_avalon_jtag_uart_state* sp = (altera_avalon_jtag_uart_state*) context;
     890:	fac42783          	lw	a5,-84(s0)
     894:	fcf42223          	sw	a5,-60(s0)
  unsigned int base = sp->base;
     898:	fc442783          	lw	a5,-60(s0)
     89c:	0007a783          	lw	a5,0(a5)
     8a0:	fcf42423          	sw	a5,-56(s0)
  unsigned int postflag=0;
     8a4:	fa042c23          	sw	zero,-72(s0)
  /* ALT_LOG - see altera_hal/HAL/inc/sys/alt_log_printf.h */ 
  ALT_LOG_JTAG_UART_ISR_FUNCTION(base, sp);

  for ( ; ; )
  {
    unsigned int control = IORD_ALTERA_AVALON_JTAG_UART_CONTROL(base);
     8a8:	fc842783          	lw	a5,-56(s0)
     8ac:	00478793          	add	a5,a5,4
     8b0:	0007a783          	lw	a5,0(a5)
     8b4:	fcf42623          	sw	a5,-52(s0)
     8b8:	fcc42783          	lw	a5,-52(s0)
     8bc:	fcf42823          	sw	a5,-48(s0)

    /* Return once nothing more to do */
    if ((control & (ALTERA_AVALON_JTAG_UART_CONTROL_RI_MSK | ALTERA_AVALON_JTAG_UART_CONTROL_WI_MSK)) == 0)
     8c0:	fd042783          	lw	a5,-48(s0)
     8c4:	3007f793          	and	a5,a5,768
     8c8:	1c078e63          	beqz	a5,aa4 <altera_avalon_jtag_uart_irq+0x224>
      break;

    if (control & ALTERA_AVALON_JTAG_UART_CONTROL_RI_MSK)
     8cc:	fd042783          	lw	a5,-48(s0)
     8d0:	1007f793          	and	a5,a5,256
     8d4:	0e078663          	beqz	a5,9c0 <altera_avalon_jtag_uart_irq+0x140>
    {
      /* process a read irq.  Start by assuming that there is data in the
       * receive FIFO (otherwise why would we have been interrupted?)
       */
      unsigned int data = 1 << ALTERA_AVALON_JTAG_UART_DATA_RAVAIL_OFST;
     8d8:	000107b7          	lui	a5,0x10
     8dc:	faf42e23          	sw	a5,-68(s0)
      for ( ; ; )
      {
        /* Check whether there is space in the buffer.  If not then we must not
         * read any characters from the buffer as they will be lost.
         */
        unsigned int next = (sp->rx_in + 1) % ALTERA_AVALON_JTAG_UART_BUF_LEN;
     8e0:	fc442783          	lw	a5,-60(s0)
     8e4:	0287a783          	lw	a5,40(a5) # 10028 <__alt_heap_start+0x7004>
     8e8:	00178793          	add	a5,a5,1
     8ec:	7ff7f793          	and	a5,a5,2047
     8f0:	fcf42a23          	sw	a5,-44(s0)
        if (next == sp->rx_out)
     8f4:	fc442783          	lw	a5,-60(s0)
     8f8:	02c7a783          	lw	a5,44(a5)
     8fc:	fd442703          	lw	a4,-44(s0)
     900:	06f70263          	beq	a4,a5,964 <altera_avalon_jtag_uart_irq+0xe4>
          break;

        /* Try to remove a character from the FIFO and find out whether there
         * are any more characters remaining.
         */
        data = IORD_ALTERA_AVALON_JTAG_UART_DATA(base);
     904:	fc842783          	lw	a5,-56(s0)
     908:	0007a783          	lw	a5,0(a5)
     90c:	fcf42c23          	sw	a5,-40(s0)
     910:	fd842783          	lw	a5,-40(s0)
     914:	faf42e23          	sw	a5,-68(s0)
        
        if ((data & ALTERA_AVALON_JTAG_UART_DATA_RVALID_MSK) == 0)
     918:	fbc42703          	lw	a4,-68(s0)
     91c:	000087b7          	lui	a5,0x8
     920:	00f777b3          	and	a5,a4,a5
     924:	04078463          	beqz	a5,96c <altera_avalon_jtag_uart_irq+0xec>
          break;

        sp->rx_buf[sp->rx_in] = (data & ALTERA_AVALON_JTAG_UART_DATA_DATA_MSK) >> ALTERA_AVALON_JTAG_UART_DATA_DATA_OFST;
     928:	fc442783          	lw	a5,-60(s0)
     92c:	0287a783          	lw	a5,40(a5) # 8028 <__global_pointer$+0x384>
     930:	fbc42703          	lw	a4,-68(s0)
     934:	0ff77713          	zext.b	a4,a4
     938:	fc442683          	lw	a3,-60(s0)
     93c:	00f687b3          	add	a5,a3,a5
     940:	02e78c23          	sb	a4,56(a5)
        sp->rx_in = (sp->rx_in + 1) % ALTERA_AVALON_JTAG_UART_BUF_LEN;
     944:	fc442783          	lw	a5,-60(s0)
     948:	0287a783          	lw	a5,40(a5)
     94c:	00178793          	add	a5,a5,1
     950:	7ff7f713          	and	a4,a5,2047
     954:	fc442783          	lw	a5,-60(s0)
     958:	02e7a423          	sw	a4,40(a5)
 * HAL.
 */

static ALT_INLINE int ALT_ALWAYS_INLINE alt_no_error (void)
{
  return 0;
     95c:	00000013          	nop
      {
     960:	f81ff06f          	j	8e0 <altera_avalon_jtag_uart_irq+0x60>
          break;
     964:	00000013          	nop
     968:	0080006f          	j	970 <altera_avalon_jtag_uart_irq+0xf0>
          break;
     96c:	00000013          	nop

        /* Post an event to notify jtag_uart_read that a character has been read */
        ALT_FLAG_POST (sp->events, ALT_JTAG_UART_READ_RDY, ALT_FLAG_SET);
      }

      if (data & ALTERA_AVALON_JTAG_UART_DATA_RAVAIL_MSK)
     970:	fbc42703          	lw	a4,-68(s0)
     974:	000107b7          	lui	a5,0x10
     978:	04f76463          	bltu	a4,a5,9c0 <altera_avalon_jtag_uart_irq+0x140>
      {
        /* If there is still data available here then the buffer is full 
         * so turn off receive interrupts until some space becomes available.
         */
        sp->irq_enable &= ~ALTERA_AVALON_JTAG_UART_CONTROL_RE_MSK;
     97c:	fc442783          	lw	a5,-60(s0)
     980:	0207a783          	lw	a5,32(a5) # 10020 <__alt_heap_start+0x6ffc>
     984:	ffe7f713          	and	a4,a5,-2
     988:	fc442783          	lw	a5,-60(s0)
     98c:	02e7a023          	sw	a4,32(a5)
        IOWR_ALTERA_AVALON_JTAG_UART_CONTROL(base, sp->irq_enable);
     990:	fc442783          	lw	a5,-60(s0)
     994:	0207a783          	lw	a5,32(a5)
     998:	fcf42e23          	sw	a5,-36(s0)
     99c:	fc842783          	lw	a5,-56(s0)
     9a0:	00478793          	add	a5,a5,4
     9a4:	00078713          	mv	a4,a5
     9a8:	fdc42783          	lw	a5,-36(s0)
     9ac:	00f72023          	sw	a5,0(a4)
        
        /* Dummy read to ensure IRQ is cleared prior to ISR completion */
        IORD_ALTERA_AVALON_JTAG_UART_CONTROL(base);
     9b0:	fc842783          	lw	a5,-56(s0)
     9b4:	00478793          	add	a5,a5,4
     9b8:	0007a783          	lw	a5,0(a5)
     9bc:	fef42023          	sw	a5,-32(s0)
      }
    }

    if (control & ALTERA_AVALON_JTAG_UART_CONTROL_WI_MSK)
     9c0:	fd042783          	lw	a5,-48(s0)
     9c4:	2007f793          	and	a5,a5,512
     9c8:	ee0780e3          	beqz	a5,8a8 <altera_avalon_jtag_uart_irq+0x28>
    {
      /* process a write irq */
      unsigned int space = (control & ALTERA_AVALON_JTAG_UART_CONTROL_WSPACE_MSK) >> ALTERA_AVALON_JTAG_UART_CONTROL_WSPACE_OFST;
     9cc:	fd042783          	lw	a5,-48(s0)
     9d0:	0107d793          	srl	a5,a5,0x10
     9d4:	fcf42023          	sw	a5,-64(s0)

      while (space > 0 && sp->tx_out != sp->tx_in)
     9d8:	05c0006f          	j	a34 <altera_avalon_jtag_uart_irq+0x1b4>
      {
        IOWR_ALTERA_AVALON_JTAG_UART_DATA(base, sp->tx_buf[sp->tx_out]);
     9dc:	fc442783          	lw	a5,-60(s0)
     9e0:	0347a783          	lw	a5,52(a5)
     9e4:	fc442703          	lw	a4,-60(s0)
     9e8:	00f707b3          	add	a5,a4,a5
     9ec:	00001737          	lui	a4,0x1
     9f0:	00f707b3          	add	a5,a4,a5
     9f4:	8387c783          	lbu	a5,-1992(a5)
     9f8:	fef42223          	sw	a5,-28(s0)
     9fc:	fc842783          	lw	a5,-56(s0)
     a00:	fe442703          	lw	a4,-28(s0)
     a04:	00e7a023          	sw	a4,0(a5)

        sp->tx_out = (sp->tx_out + 1) % ALTERA_AVALON_JTAG_UART_BUF_LEN;
     a08:	fc442783          	lw	a5,-60(s0)
     a0c:	0347a783          	lw	a5,52(a5)
     a10:	00178793          	add	a5,a5,1
     a14:	7ff7f713          	and	a4,a5,2047
     a18:	fc442783          	lw	a5,-60(s0)
     a1c:	02e7aa23          	sw	a4,52(a5)
        
        /* indicate that the ALT_FLAG_POST routine must be called */
        postflag=1;
     a20:	00100793          	li	a5,1
     a24:	faf42c23          	sw	a5,-72(s0)

        space--;
     a28:	fc042783          	lw	a5,-64(s0)
     a2c:	fff78793          	add	a5,a5,-1
     a30:	fcf42023          	sw	a5,-64(s0)
      while (space > 0 && sp->tx_out != sp->tx_in)
     a34:	fc042783          	lw	a5,-64(s0)
     a38:	00078c63          	beqz	a5,a50 <altera_avalon_jtag_uart_irq+0x1d0>
     a3c:	fc442783          	lw	a5,-60(s0)
     a40:	0347a703          	lw	a4,52(a5)
     a44:	fc442783          	lw	a5,-60(s0)
     a48:	0307a783          	lw	a5,48(a5)
     a4c:	f8f718e3          	bne	a4,a5,9dc <altera_avalon_jtag_uart_irq+0x15c>
      {
        /* Post an event to notify jtag_uart_write that a character has been written */
        ALT_FLAG_POST (sp->events, ALT_JTAG_UART_WRITE_RDY, ALT_FLAG_SET);
      }

      if (space > 0)
     a50:	fc042783          	lw	a5,-64(s0)
     a54:	e4078ae3          	beqz	a5,8a8 <altera_avalon_jtag_uart_irq+0x28>
      {
        /* If we don't have any more data available then turn off the TX interrupt */
        sp->irq_enable &= ~ALTERA_AVALON_JTAG_UART_CONTROL_WE_MSK;
     a58:	fc442783          	lw	a5,-60(s0)
     a5c:	0207a783          	lw	a5,32(a5)
     a60:	ffd7f713          	and	a4,a5,-3
     a64:	fc442783          	lw	a5,-60(s0)
     a68:	02e7a023          	sw	a4,32(a5)
        IOWR_ALTERA_AVALON_JTAG_UART_CONTROL(sp->base, sp->irq_enable);
     a6c:	fc442783          	lw	a5,-60(s0)
     a70:	0207a783          	lw	a5,32(a5)
     a74:	fef42423          	sw	a5,-24(s0)
     a78:	fc442783          	lw	a5,-60(s0)
     a7c:	0007a783          	lw	a5,0(a5)
     a80:	00478793          	add	a5,a5,4
     a84:	00078713          	mv	a4,a5
     a88:	fe842783          	lw	a5,-24(s0)
     a8c:	00f72023          	sw	a5,0(a4) # 1000 <altera_avalon_jtag_uart_write+0xf4>
        
        /* Dummy read to ensure IRQ is cleared prior to ISR completion */
        IORD_ALTERA_AVALON_JTAG_UART_CONTROL(base);
     a90:	fc842783          	lw	a5,-56(s0)
     a94:	00478793          	add	a5,a5,4
     a98:	0007a783          	lw	a5,0(a5)
     a9c:	fef42623          	sw	a5,-20(s0)
  {
     aa0:	e09ff06f          	j	8a8 <altera_avalon_jtag_uart_irq+0x28>
      break;
     aa4:	00000013          	nop
      }
    }
  }
}
     aa8:	00000013          	nop
     aac:	05c12403          	lw	s0,92(sp)
     ab0:	06010113          	add	sp,sp,96
     ab4:	00008067          	ret

00000ab8 <altera_avalon_jtag_uart_timeout>:
 * Timeout routine is called every second
 */

static alt_u32 
altera_avalon_jtag_uart_timeout(void* context) 
{
     ab8:	fd010113          	add	sp,sp,-48
     abc:	02812623          	sw	s0,44(sp)
     ac0:	03010413          	add	s0,sp,48
     ac4:	fca42e23          	sw	a0,-36(s0)
  altera_avalon_jtag_uart_state* sp = (altera_avalon_jtag_uart_state *) context;
     ac8:	fdc42783          	lw	a5,-36(s0)
     acc:	fef42023          	sw	a5,-32(s0)

  unsigned int control = IORD_ALTERA_AVALON_JTAG_UART_CONTROL(sp->base);
     ad0:	fe042783          	lw	a5,-32(s0)
     ad4:	0007a783          	lw	a5,0(a5)
     ad8:	00478793          	add	a5,a5,4
     adc:	0007a783          	lw	a5,0(a5)
     ae0:	fef42223          	sw	a5,-28(s0)
     ae4:	fe442783          	lw	a5,-28(s0)
     ae8:	fef42423          	sw	a5,-24(s0)

  if (control & ALTERA_AVALON_JTAG_UART_CONTROL_AC_MSK)
     aec:	fe842783          	lw	a5,-24(s0)
     af0:	4007f793          	and	a5,a5,1024
     af4:	02078c63          	beqz	a5,b2c <altera_avalon_jtag_uart_timeout+0x74>
  {
    IOWR_ALTERA_AVALON_JTAG_UART_CONTROL(sp->base, sp->irq_enable | ALTERA_AVALON_JTAG_UART_CONTROL_AC_MSK);
     af8:	fe042783          	lw	a5,-32(s0)
     afc:	0207a783          	lw	a5,32(a5)
     b00:	4007e793          	or	a5,a5,1024
     b04:	fef42623          	sw	a5,-20(s0)
     b08:	fe042783          	lw	a5,-32(s0)
     b0c:	0007a783          	lw	a5,0(a5)
     b10:	00478793          	add	a5,a5,4
     b14:	00078713          	mv	a4,a5
     b18:	fec42783          	lw	a5,-20(s0)
     b1c:	00f72023          	sw	a5,0(a4)
    sp->host_inactive = 0;
     b20:	fe042783          	lw	a5,-32(s0)
     b24:	0207a223          	sw	zero,36(a5)
     b28:	0340006f          	j	b5c <altera_avalon_jtag_uart_timeout+0xa4>
  }
  else if (sp->host_inactive < INT_MAX - 2) {
     b2c:	fe042783          	lw	a5,-32(s0)
     b30:	0247a703          	lw	a4,36(a5)
     b34:	800007b7          	lui	a5,0x80000
     b38:	ffc78793          	add	a5,a5,-4 # 7ffffffc <__reset+0x7bfffffc>
     b3c:	02e7e063          	bltu	a5,a4,b5c <altera_avalon_jtag_uart_timeout+0xa4>
    sp->host_inactive++;
     b40:	fe042783          	lw	a5,-32(s0)
     b44:	0247a783          	lw	a5,36(a5)
     b48:	00178713          	add	a4,a5,1
     b4c:	fe042783          	lw	a5,-32(s0)
     b50:	02e7a223          	sw	a4,36(a5)
    
    if (sp->host_inactive >= sp->timeout) {
     b54:	fe042783          	lw	a5,-32(s0)
     b58:	0247a783          	lw	a5,36(a5)
     b5c:	000097b7          	lui	a5,0x9
     b60:	c607a783          	lw	a5,-928(a5) # 8c60 <_alt_tick_rate>
      ALT_FLAG_POST (sp->events, ALT_JTAG_UART_TIMEOUT, ALT_FLAG_SET);
    }
  }

  return alt_ticks_per_second();
}
     b64:	00078513          	mv	a0,a5
     b68:	02c12403          	lw	s0,44(sp)
     b6c:	03010113          	add	sp,sp,48
     b70:	00008067          	ret

00000b74 <altera_avalon_jtag_uart_close>:
 * The close routine is not implemented for the small driver; instead it will
 * map to null. This is because the small driver simply waits while characters
 * are transmitted; there is no interrupt-serviced buffer to empty 
 */
int altera_avalon_jtag_uart_close(altera_avalon_jtag_uart_state* sp, int flags)
{
     b74:	fe010113          	add	sp,sp,-32
     b78:	00812e23          	sw	s0,28(sp)
     b7c:	02010413          	add	s0,sp,32
     b80:	fea42623          	sw	a0,-20(s0)
     b84:	feb42423          	sw	a1,-24(s0)
  /* 
   * Wait for all transmit data to be emptied by the JTAG UART ISR, or
   * for a host-inactivity timeout, in which case transmit data will be lost
   */
  while ( (sp->tx_out != sp->tx_in) && (sp->host_inactive < sp->timeout) ) {
     b88:	01c0006f          	j	ba4 <altera_avalon_jtag_uart_close+0x30>
    if (flags & O_NONBLOCK) {
     b8c:	fe842703          	lw	a4,-24(s0)
     b90:	000047b7          	lui	a5,0x4
     b94:	00f777b3          	and	a5,a4,a5
     b98:	00078663          	beqz	a5,ba4 <altera_avalon_jtag_uart_close+0x30>
      return -EWOULDBLOCK; 
     b9c:	ff500793          	li	a5,-11
     ba0:	0300006f          	j	bd0 <altera_avalon_jtag_uart_close+0x5c>
  while ( (sp->tx_out != sp->tx_in) && (sp->host_inactive < sp->timeout) ) {
     ba4:	fec42783          	lw	a5,-20(s0)
     ba8:	0347a703          	lw	a4,52(a5) # 4034 <__sflush_r+0x20>
     bac:	fec42783          	lw	a5,-20(s0)
     bb0:	0307a783          	lw	a5,48(a5)
     bb4:	00f70c63          	beq	a4,a5,bcc <altera_avalon_jtag_uart_close+0x58>
     bb8:	fec42783          	lw	a5,-20(s0)
     bbc:	0247a703          	lw	a4,36(a5)
     bc0:	fec42783          	lw	a5,-20(s0)
     bc4:	0047a783          	lw	a5,4(a5)
     bc8:	fcf762e3          	bltu	a4,a5,b8c <altera_avalon_jtag_uart_close+0x18>
    }
  }

  return 0;
     bcc:	00000793          	li	a5,0
}
     bd0:	00078513          	mv	a0,a5
     bd4:	01c12403          	lw	s0,28(sp)
     bd8:	02010113          	add	sp,sp,32
     bdc:	00008067          	ret

00000be0 <altera_avalon_jtag_uart_ioctl>:
/* ----------------------------------------------------------- */

int 
altera_avalon_jtag_uart_ioctl(altera_avalon_jtag_uart_state* sp, int req,
  void* arg)
{
     be0:	fd010113          	add	sp,sp,-48
     be4:	02812623          	sw	s0,44(sp)
     be8:	03010413          	add	s0,sp,48
     bec:	fca42e23          	sw	a0,-36(s0)
     bf0:	fcb42c23          	sw	a1,-40(s0)
     bf4:	fcc42a23          	sw	a2,-44(s0)
  int rc = -ENOTTY;
     bf8:	fe700793          	li	a5,-25
     bfc:	fef42423          	sw	a5,-24(s0)

  switch (req)
     c00:	fd842703          	lw	a4,-40(s0)
     c04:	000077b7          	lui	a5,0x7
     c08:	a0178793          	add	a5,a5,-1535 # 6a01 <JTAG_UART+0xc99>
     c0c:	00f70c63          	beq	a4,a5,c24 <altera_avalon_jtag_uart_ioctl+0x44>
     c10:	fd842703          	lw	a4,-40(s0)
     c14:	000077b7          	lui	a5,0x7
     c18:	a0278793          	add	a5,a5,-1534 # 6a02 <JTAG_UART+0xc9a>
     c1c:	06f70263          	beq	a4,a5,c80 <altera_avalon_jtag_uart_ioctl+0xa0>
      rc = 0;
    }
    break;

  default:
    break;
     c20:	0ac0006f          	j	ccc <altera_avalon_jtag_uart_ioctl+0xec>
    if (sp->timeout != INT_MAX)
     c24:	fdc42783          	lw	a5,-36(s0)
     c28:	0047a703          	lw	a4,4(a5)
     c2c:	800007b7          	lui	a5,0x80000
     c30:	fff78793          	add	a5,a5,-1 # 7fffffff <__reset+0x7bffffff>
     c34:	08f70663          	beq	a4,a5,cc0 <altera_avalon_jtag_uart_ioctl+0xe0>
      int timeout = *((int *)arg);
     c38:	fd442783          	lw	a5,-44(s0)
     c3c:	0007a783          	lw	a5,0(a5)
     c40:	fef42623          	sw	a5,-20(s0)
      sp->timeout = (timeout >= 2 && timeout < INT_MAX) ? timeout : INT_MAX - 1;
     c44:	fec42703          	lw	a4,-20(s0)
     c48:	00100793          	li	a5,1
     c4c:	00e7de63          	bge	a5,a4,c68 <altera_avalon_jtag_uart_ioctl+0x88>
     c50:	fec42703          	lw	a4,-20(s0)
     c54:	800007b7          	lui	a5,0x80000
     c58:	fff78793          	add	a5,a5,-1 # 7fffffff <__reset+0x7bffffff>
     c5c:	00f70663          	beq	a4,a5,c68 <altera_avalon_jtag_uart_ioctl+0x88>
     c60:	fec42783          	lw	a5,-20(s0)
     c64:	00c0006f          	j	c70 <altera_avalon_jtag_uart_ioctl+0x90>
     c68:	800007b7          	lui	a5,0x80000
     c6c:	ffe78793          	add	a5,a5,-2 # 7ffffffe <__reset+0x7bfffffe>
     c70:	fdc42703          	lw	a4,-36(s0)
     c74:	00f72223          	sw	a5,4(a4)
      rc = 0;
     c78:	fe042423          	sw	zero,-24(s0)
    break;
     c7c:	0440006f          	j	cc0 <altera_avalon_jtag_uart_ioctl+0xe0>
    if (sp->timeout != INT_MAX)
     c80:	fdc42783          	lw	a5,-36(s0)
     c84:	0047a703          	lw	a4,4(a5)
     c88:	800007b7          	lui	a5,0x80000
     c8c:	fff78793          	add	a5,a5,-1 # 7fffffff <__reset+0x7bffffff>
     c90:	02f70c63          	beq	a4,a5,cc8 <altera_avalon_jtag_uart_ioctl+0xe8>
      *((int *)arg) = (sp->host_inactive < sp->timeout) ? 1 : 0;
     c94:	fdc42783          	lw	a5,-36(s0)
     c98:	0247a703          	lw	a4,36(a5)
     c9c:	fdc42783          	lw	a5,-36(s0)
     ca0:	0047a783          	lw	a5,4(a5)
     ca4:	00f737b3          	sltu	a5,a4,a5
     ca8:	0ff7f793          	zext.b	a5,a5
     cac:	00078713          	mv	a4,a5
     cb0:	fd442783          	lw	a5,-44(s0)
     cb4:	00e7a023          	sw	a4,0(a5)
      rc = 0;
     cb8:	fe042423          	sw	zero,-24(s0)
    break;
     cbc:	00c0006f          	j	cc8 <altera_avalon_jtag_uart_ioctl+0xe8>
    break;
     cc0:	00000013          	nop
     cc4:	0080006f          	j	ccc <altera_avalon_jtag_uart_ioctl+0xec>
    break;
     cc8:	00000013          	nop
  }

  return rc;
     ccc:	fe842783          	lw	a5,-24(s0)
}
     cd0:	00078513          	mv	a0,a5
     cd4:	02c12403          	lw	s0,44(sp)
     cd8:	03010113          	add	sp,sp,48
     cdc:	00008067          	ret

00000ce0 <altera_avalon_jtag_uart_read>:
/* ----------------------------------------------------------- */

int 
altera_avalon_jtag_uart_read(altera_avalon_jtag_uart_state* sp, 
  char * buffer, int space, int flags)
{
     ce0:	fc010113          	add	sp,sp,-64
     ce4:	02112e23          	sw	ra,60(sp)
     ce8:	02812c23          	sw	s0,56(sp)
     cec:	04010413          	add	s0,sp,64
     cf0:	fca42623          	sw	a0,-52(s0)
     cf4:	fcb42423          	sw	a1,-56(s0)
     cf8:	fcc42223          	sw	a2,-60(s0)
     cfc:	fcd42023          	sw	a3,-64(s0)
  char * ptr = buffer;
     d00:	fc842783          	lw	a5,-56(s0)
     d04:	fcf42823          	sw	a5,-48(s0)
   * When running in a multi threaded environment, obtain the "read_lock"
   * semaphore. This ensures that reading from the device is thread-safe.
   */
  ALT_SEM_PEND (sp->read_lock, 0);

  while (space > 0)
     d08:	1280006f          	j	e30 <altera_avalon_jtag_uart_read+0x150>
    unsigned int in, out;

    /* Read as much data as possible */
    do
    {
      in  = sp->rx_in;
     d0c:	fcc42783          	lw	a5,-52(s0)
     d10:	0287a783          	lw	a5,40(a5)
     d14:	fcf42c23          	sw	a5,-40(s0)
      out = sp->rx_out;
     d18:	fcc42783          	lw	a5,-52(s0)
     d1c:	02c7a783          	lw	a5,44(a5)
     d20:	fcf42e23          	sw	a5,-36(s0)

      if (in >= out)
     d24:	fd842703          	lw	a4,-40(s0)
     d28:	fdc42783          	lw	a5,-36(s0)
     d2c:	00f76c63          	bltu	a4,a5,d44 <altera_avalon_jtag_uart_read+0x64>
        n = in - out;
     d30:	fd842703          	lw	a4,-40(s0)
     d34:	fdc42783          	lw	a5,-36(s0)
     d38:	40f707b3          	sub	a5,a4,a5
     d3c:	fcf42a23          	sw	a5,-44(s0)
     d40:	0180006f          	j	d58 <altera_avalon_jtag_uart_read+0x78>
      else
        n = ALTERA_AVALON_JTAG_UART_BUF_LEN - out;
     d44:	000017b7          	lui	a5,0x1
     d48:	80078713          	add	a4,a5,-2048 # 800 <altera_avalon_jtag_uart_init+0x40>
     d4c:	fdc42783          	lw	a5,-36(s0)
     d50:	40f707b3          	sub	a5,a4,a5
     d54:	fcf42a23          	sw	a5,-44(s0)

      if (n == 0)
     d58:	fd442783          	lw	a5,-44(s0)
     d5c:	06078e63          	beqz	a5,dd8 <altera_avalon_jtag_uart_read+0xf8>
        break; /* No more data available */

      if (n > space)
     d60:	fc442783          	lw	a5,-60(s0)
     d64:	fd442703          	lw	a4,-44(s0)
     d68:	00e7f663          	bgeu	a5,a4,d74 <altera_avalon_jtag_uart_read+0x94>
        n = space;
     d6c:	fc442783          	lw	a5,-60(s0)
     d70:	fcf42a23          	sw	a5,-44(s0)

      memcpy(ptr, sp->rx_buf + out, n);
     d74:	fcc42783          	lw	a5,-52(s0)
     d78:	03878713          	add	a4,a5,56
     d7c:	fdc42783          	lw	a5,-36(s0)
     d80:	00f707b3          	add	a5,a4,a5
     d84:	fd442603          	lw	a2,-44(s0)
     d88:	00078593          	mv	a1,a5
     d8c:	fd042503          	lw	a0,-48(s0)
     d90:	499020ef          	jal	3a28 <memcpy>
      ptr   += n;
     d94:	fd042703          	lw	a4,-48(s0)
     d98:	fd442783          	lw	a5,-44(s0)
     d9c:	00f707b3          	add	a5,a4,a5
     da0:	fcf42823          	sw	a5,-48(s0)
      space -= n;
     da4:	fc442703          	lw	a4,-60(s0)
     da8:	fd442783          	lw	a5,-44(s0)
     dac:	40f707b3          	sub	a5,a4,a5
     db0:	fcf42223          	sw	a5,-60(s0)

      sp->rx_out = (out + n) % ALTERA_AVALON_JTAG_UART_BUF_LEN;
     db4:	fdc42703          	lw	a4,-36(s0)
     db8:	fd442783          	lw	a5,-44(s0)
     dbc:	00f707b3          	add	a5,a4,a5
     dc0:	7ff7f713          	and	a4,a5,2047
     dc4:	fcc42783          	lw	a5,-52(s0)
     dc8:	02e7a623          	sw	a4,44(a5)
    }
    while (space > 0);
     dcc:	fc442783          	lw	a5,-60(s0)
     dd0:	f2f04ee3          	bgtz	a5,d0c <altera_avalon_jtag_uart_read+0x2c>
     dd4:	0080006f          	j	ddc <altera_avalon_jtag_uart_read+0xfc>
        break; /* No more data available */
     dd8:	00000013          	nop

    /* If we read any data then return it */
    if (ptr != buffer)
     ddc:	fd042703          	lw	a4,-48(s0)
     de0:	fc842783          	lw	a5,-56(s0)
     de4:	04f71c63          	bne	a4,a5,e3c <altera_avalon_jtag_uart_read+0x15c>
      break;

    /* If in non-blocking mode then return error */
    if (flags & O_NONBLOCK)
     de8:	fc042703          	lw	a4,-64(s0)
     dec:	000047b7          	lui	a5,0x4
     df0:	00f777b3          	and	a5,a4,a5
     df4:	04079863          	bnez	a5,e44 <altera_avalon_jtag_uart_read+0x164>
      while (in == sp->rx_in && sp->host_inactive < sp->timeout)
        ;
    }
#else
    /* No OS: Always spin */
    while (in == sp->rx_in && sp->host_inactive < sp->timeout)
     df8:	00000013          	nop
     dfc:	fcc42783          	lw	a5,-52(s0)
     e00:	0287a783          	lw	a5,40(a5) # 4028 <__sflush_r+0x14>
     e04:	fd842703          	lw	a4,-40(s0)
     e08:	00f71c63          	bne	a4,a5,e20 <altera_avalon_jtag_uart_read+0x140>
     e0c:	fcc42783          	lw	a5,-52(s0)
     e10:	0247a703          	lw	a4,36(a5)
     e14:	fcc42783          	lw	a5,-52(s0)
     e18:	0047a783          	lw	a5,4(a5)
     e1c:	fef760e3          	bltu	a4,a5,dfc <altera_avalon_jtag_uart_read+0x11c>
      ;
#endif /* __ucosii__ */

    if (in == sp->rx_in)
     e20:	fcc42783          	lw	a5,-52(s0)
     e24:	0287a783          	lw	a5,40(a5)
     e28:	fd842703          	lw	a4,-40(s0)
     e2c:	02f70063          	beq	a4,a5,e4c <altera_avalon_jtag_uart_read+0x16c>
  while (space > 0)
     e30:	fc442783          	lw	a5,-60(s0)
     e34:	ecf04ce3          	bgtz	a5,d0c <altera_avalon_jtag_uart_read+0x2c>
     e38:	0180006f          	j	e50 <altera_avalon_jtag_uart_read+0x170>
      break;
     e3c:	00000013          	nop
     e40:	0100006f          	j	e50 <altera_avalon_jtag_uart_read+0x170>
      break;
     e44:	00000013          	nop
     e48:	0080006f          	j	e50 <altera_avalon_jtag_uart_read+0x170>
      break;
     e4c:	00000013          	nop
   * semaphore so that other threads can access the buffer.
   */

  ALT_SEM_POST (sp->read_lock);

  if (ptr != buffer)
     e50:	fd042703          	lw	a4,-48(s0)
     e54:	fc842783          	lw	a5,-56(s0)
     e58:	06f70463          	beq	a4,a5,ec0 <altera_avalon_jtag_uart_read+0x1e0>
    NIOSV_READ_AND_CLR_CSR(NIOSV_MSTATUS_CSR, context, NIOSV_MSTATUS_MIE_MASK);
     e5c:	00800793          	li	a5,8
     e60:	3007b7f3          	csrrc	a5,mstatus,a5
     e64:	fef42623          	sw	a5,-20(s0)
    return context;
     e68:	fec42783          	lw	a5,-20(s0)
  {
    /* If we read any data then there is space in the buffer so enable interrupts */
    context = alt_irq_disable_all();
     e6c:	fef42023          	sw	a5,-32(s0)
    sp->irq_enable |= ALTERA_AVALON_JTAG_UART_CONTROL_RE_MSK;
     e70:	fcc42783          	lw	a5,-52(s0)
     e74:	0207a783          	lw	a5,32(a5)
     e78:	0017e713          	or	a4,a5,1
     e7c:	fcc42783          	lw	a5,-52(s0)
     e80:	02e7a023          	sw	a4,32(a5)
    IOWR_ALTERA_AVALON_JTAG_UART_CONTROL(sp->base, sp->irq_enable);
     e84:	fcc42783          	lw	a5,-52(s0)
     e88:	0207a783          	lw	a5,32(a5)
     e8c:	fef42223          	sw	a5,-28(s0)
     e90:	fcc42783          	lw	a5,-52(s0)
     e94:	0007a783          	lw	a5,0(a5)
     e98:	00478793          	add	a5,a5,4
     e9c:	00078713          	mv	a4,a5
     ea0:	fe442783          	lw	a5,-28(s0)
     ea4:	00f72023          	sw	a5,0(a4)
     ea8:	fe042783          	lw	a5,-32(s0)
     eac:	fef42423          	sw	a5,-24(s0)
    NIOSV_SET_CSR(NIOSV_MSTATUS_CSR, context & NIOSV_MSTATUS_MIE_MASK);
     eb0:	fe842783          	lw	a5,-24(s0)
     eb4:	0087f793          	and	a5,a5,8
     eb8:	3007a073          	csrs	mstatus,a5
}
     ebc:	00000013          	nop
    alt_irq_enable_all(context);
  }

  if (ptr != buffer)
     ec0:	fd042703          	lw	a4,-48(s0)
     ec4:	fc842783          	lw	a5,-56(s0)
     ec8:	00f70a63          	beq	a4,a5,edc <altera_avalon_jtag_uart_read+0x1fc>
    return ptr - buffer;
     ecc:	fd042703          	lw	a4,-48(s0)
     ed0:	fc842783          	lw	a5,-56(s0)
     ed4:	40f707b3          	sub	a5,a4,a5
     ed8:	0200006f          	j	ef8 <altera_avalon_jtag_uart_read+0x218>
  else if (flags & O_NONBLOCK)
     edc:	fc042703          	lw	a4,-64(s0)
     ee0:	000047b7          	lui	a5,0x4
     ee4:	00f777b3          	and	a5,a4,a5
     ee8:	00078663          	beqz	a5,ef4 <altera_avalon_jtag_uart_read+0x214>
    return -EWOULDBLOCK;
     eec:	ff500793          	li	a5,-11
     ef0:	0080006f          	j	ef8 <altera_avalon_jtag_uart_read+0x218>
  else
    return -EIO;
     ef4:	ffb00793          	li	a5,-5
}
     ef8:	00078513          	mv	a0,a5
     efc:	03c12083          	lw	ra,60(sp)
     f00:	03812403          	lw	s0,56(sp)
     f04:	04010113          	add	sp,sp,64
     f08:	00008067          	ret

00000f0c <altera_avalon_jtag_uart_write>:
/* ----------------------------------------------------------- */

int 
altera_avalon_jtag_uart_write(altera_avalon_jtag_uart_state* sp, 
  const char * ptr, int count, int flags)
{
     f0c:	fc010113          	add	sp,sp,-64
     f10:	02112e23          	sw	ra,60(sp)
     f14:	02812c23          	sw	s0,56(sp)
     f18:	04010413          	add	s0,sp,64
     f1c:	fca42623          	sw	a0,-52(s0)
     f20:	fcb42423          	sw	a1,-56(s0)
     f24:	fcc42223          	sw	a2,-60(s0)
     f28:	fcd42023          	sw	a3,-64(s0)
  /* Remove warning at optimisation level 03 by seting out to 0 */
  unsigned int in, out=0;
     f2c:	fc042823          	sw	zero,-48(s0)
  unsigned int n;
  alt_irq_context context;

  const char * start = ptr;
     f30:	fc842783          	lw	a5,-56(s0)
     f34:	fcf42c23          	sw	a5,-40(s0)
  ALT_SEM_PEND (sp->write_lock, 0);

  do
  {
    /* Copy as much as we can into the transmit buffer */
    while (count > 0)
     f38:	0ec0006f          	j	1024 <altera_avalon_jtag_uart_write+0x118>
    {
      /* We need a stable value of the out pointer to calculate the space available */
      in  = sp->tx_in;
     f3c:	fcc42783          	lw	a5,-52(s0)
     f40:	0307a783          	lw	a5,48(a5) # 4030 <__sflush_r+0x1c>
     f44:	fcf42e23          	sw	a5,-36(s0)
      out = sp->tx_out;
     f48:	fcc42783          	lw	a5,-52(s0)
     f4c:	0347a783          	lw	a5,52(a5)
     f50:	fcf42823          	sw	a5,-48(s0)

      if (in < out)
     f54:	fdc42703          	lw	a4,-36(s0)
     f58:	fd042783          	lw	a5,-48(s0)
     f5c:	00f77e63          	bgeu	a4,a5,f78 <altera_avalon_jtag_uart_write+0x6c>
        n = out - 1 - in;
     f60:	fd042703          	lw	a4,-48(s0)
     f64:	fdc42783          	lw	a5,-36(s0)
     f68:	40f707b3          	sub	a5,a4,a5
     f6c:	fff78793          	add	a5,a5,-1
     f70:	fcf42a23          	sw	a5,-44(s0)
     f74:	0340006f          	j	fa8 <altera_avalon_jtag_uart_write+0x9c>
      else if (out > 0)
     f78:	fd042783          	lw	a5,-48(s0)
     f7c:	00078e63          	beqz	a5,f98 <altera_avalon_jtag_uart_write+0x8c>
        n = ALTERA_AVALON_JTAG_UART_BUF_LEN - in;
     f80:	000017b7          	lui	a5,0x1
     f84:	80078713          	add	a4,a5,-2048 # 800 <altera_avalon_jtag_uart_init+0x40>
     f88:	fdc42783          	lw	a5,-36(s0)
     f8c:	40f707b3          	sub	a5,a4,a5
     f90:	fcf42a23          	sw	a5,-44(s0)
     f94:	0140006f          	j	fa8 <altera_avalon_jtag_uart_write+0x9c>
      else
        n = ALTERA_AVALON_JTAG_UART_BUF_LEN - 1 - in;
     f98:	7ff00713          	li	a4,2047
     f9c:	fdc42783          	lw	a5,-36(s0)
     fa0:	40f707b3          	sub	a5,a4,a5
     fa4:	fcf42a23          	sw	a5,-44(s0)

      if (n == 0)
     fa8:	fd442783          	lw	a5,-44(s0)
     fac:	08078263          	beqz	a5,1030 <altera_avalon_jtag_uart_write+0x124>
        break;

      if (n > count)
     fb0:	fc442783          	lw	a5,-60(s0)
     fb4:	fd442703          	lw	a4,-44(s0)
     fb8:	00e7f663          	bgeu	a5,a4,fc4 <altera_avalon_jtag_uart_write+0xb8>
        n = count;
     fbc:	fc442783          	lw	a5,-60(s0)
     fc0:	fcf42a23          	sw	a5,-44(s0)

      memcpy(sp->tx_buf + in, ptr, n);
     fc4:	fcc42703          	lw	a4,-52(s0)
     fc8:	000017b7          	lui	a5,0x1
     fcc:	83878793          	add	a5,a5,-1992 # 838 <altera_avalon_jtag_uart_init+0x78>
     fd0:	00f70733          	add	a4,a4,a5
     fd4:	fdc42783          	lw	a5,-36(s0)
     fd8:	00f707b3          	add	a5,a4,a5
     fdc:	fd442603          	lw	a2,-44(s0)
     fe0:	fc842583          	lw	a1,-56(s0)
     fe4:	00078513          	mv	a0,a5
     fe8:	241020ef          	jal	3a28 <memcpy>
      ptr   += n;
     fec:	fc842703          	lw	a4,-56(s0)
     ff0:	fd442783          	lw	a5,-44(s0)
     ff4:	00f707b3          	add	a5,a4,a5
     ff8:	fcf42423          	sw	a5,-56(s0)
      count -= n;
     ffc:	fc442703          	lw	a4,-60(s0)
    1000:	fd442783          	lw	a5,-44(s0)
    1004:	40f707b3          	sub	a5,a4,a5
    1008:	fcf42223          	sw	a5,-60(s0)

      sp->tx_in = (in + n) % ALTERA_AVALON_JTAG_UART_BUF_LEN;
    100c:	fdc42703          	lw	a4,-36(s0)
    1010:	fd442783          	lw	a5,-44(s0)
    1014:	00f707b3          	add	a5,a4,a5
    1018:	7ff7f713          	and	a4,a5,2047
    101c:	fcc42783          	lw	a5,-52(s0)
    1020:	02e7a823          	sw	a4,48(a5)
    while (count > 0)
    1024:	fc442783          	lw	a5,-60(s0)
    1028:	f0f04ae3          	bgtz	a5,f3c <altera_avalon_jtag_uart_write+0x30>
    102c:	0080006f          	j	1034 <altera_avalon_jtag_uart_write+0x128>
        break;
    1030:	00000013          	nop
    NIOSV_READ_AND_CLR_CSR(NIOSV_MSTATUS_CSR, context, NIOSV_MSTATUS_MIE_MASK);
    1034:	00800793          	li	a5,8
    1038:	3007b7f3          	csrrc	a5,mstatus,a5
    103c:	fef42623          	sw	a5,-20(s0)
    return context;
    1040:	fec42783          	lw	a5,-20(s0)
     * to enable interrupts if there is no space left in the FIFO
     *
     * For now kick the interrupt routine every time to make it transmit 
     * the data 
     */
    context = alt_irq_disable_all();
    1044:	fef42023          	sw	a5,-32(s0)
    sp->irq_enable |= ALTERA_AVALON_JTAG_UART_CONTROL_WE_MSK;
    1048:	fcc42783          	lw	a5,-52(s0)
    104c:	0207a783          	lw	a5,32(a5)
    1050:	0027e713          	or	a4,a5,2
    1054:	fcc42783          	lw	a5,-52(s0)
    1058:	02e7a023          	sw	a4,32(a5)
    IOWR_ALTERA_AVALON_JTAG_UART_CONTROL(sp->base, sp->irq_enable);
    105c:	fcc42783          	lw	a5,-52(s0)
    1060:	0207a783          	lw	a5,32(a5)
    1064:	fef42223          	sw	a5,-28(s0)
    1068:	fcc42783          	lw	a5,-52(s0)
    106c:	0007a783          	lw	a5,0(a5)
    1070:	00478793          	add	a5,a5,4
    1074:	00078713          	mv	a4,a5
    1078:	fe442783          	lw	a5,-28(s0)
    107c:	00f72023          	sw	a5,0(a4)
    1080:	fe042783          	lw	a5,-32(s0)
    1084:	fef42423          	sw	a5,-24(s0)
    NIOSV_SET_CSR(NIOSV_MSTATUS_CSR, context & NIOSV_MSTATUS_MIE_MASK);
    1088:	fe842783          	lw	a5,-24(s0)
    108c:	0087f793          	and	a5,a5,8
    1090:	3007a073          	csrs	mstatus,a5
}
    1094:	00000013          	nop
    /* 
     * If there is any data left then either return now or block until 
     * some has been sent 
     */
    /* consider: test whether there is anything there while doing this and delay for at most 2s. */
    if (count > 0)
    1098:	fc442783          	lw	a5,-60(s0)
    109c:	04f05463          	blez	a5,10e4 <altera_avalon_jtag_uart_write+0x1d8>
    {
      if (flags & O_NONBLOCK)
    10a0:	fc042703          	lw	a4,-64(s0)
    10a4:	000047b7          	lui	a5,0x4
    10a8:	00f777b3          	and	a5,a4,a5
    10ac:	04079263          	bnez	a5,10f0 <altera_avalon_jtag_uart_write+0x1e4>
      /*
       * No OS present: Always wait for data to be removed from buffer.  Once
       * the interrupt routine has removed some data then we will be able to
       * insert some more.
       */
      while (out == sp->tx_out && sp->host_inactive < sp->timeout)
    10b0:	00000013          	nop
    10b4:	fcc42783          	lw	a5,-52(s0)
    10b8:	0347a783          	lw	a5,52(a5) # 4034 <__sflush_r+0x20>
    10bc:	fd042703          	lw	a4,-48(s0)
    10c0:	00f71c63          	bne	a4,a5,10d8 <altera_avalon_jtag_uart_write+0x1cc>
    10c4:	fcc42783          	lw	a5,-52(s0)
    10c8:	0247a703          	lw	a4,36(a5)
    10cc:	fcc42783          	lw	a5,-52(s0)
    10d0:	0047a783          	lw	a5,4(a5)
    10d4:	fef760e3          	bltu	a4,a5,10b4 <altera_avalon_jtag_uart_write+0x1a8>
        ;
#endif /* __ucosii__ */

      if  (sp->host_inactive)
    10d8:	fcc42783          	lw	a5,-52(s0)
    10dc:	0247a783          	lw	a5,36(a5)
    10e0:	00079c63          	bnez	a5,10f8 <altera_avalon_jtag_uart_write+0x1ec>
         break;
    }
  }
  while (count > 0);
    10e4:	fc442783          	lw	a5,-60(s0)
    10e8:	f2f04ee3          	bgtz	a5,1024 <altera_avalon_jtag_uart_write+0x118>
    10ec:	0100006f          	j	10fc <altera_avalon_jtag_uart_write+0x1f0>
        break;
    10f0:	00000013          	nop
    10f4:	0080006f          	j	10fc <altera_avalon_jtag_uart_write+0x1f0>
         break;
    10f8:	00000013          	nop
   * Now that access to the circular buffer is complete, release the write
   * semaphore so that other threads can access the buffer.
   */
  ALT_SEM_POST (sp->write_lock);

  if (ptr != start)
    10fc:	fc842703          	lw	a4,-56(s0)
    1100:	fd842783          	lw	a5,-40(s0)
    1104:	00f70a63          	beq	a4,a5,1118 <altera_avalon_jtag_uart_write+0x20c>
    return ptr - start;
    1108:	fc842703          	lw	a4,-56(s0)
    110c:	fd842783          	lw	a5,-40(s0)
    1110:	40f707b3          	sub	a5,a4,a5
    1114:	0200006f          	j	1134 <altera_avalon_jtag_uart_write+0x228>
  else if (flags & O_NONBLOCK)
    1118:	fc042703          	lw	a4,-64(s0)
    111c:	000047b7          	lui	a5,0x4
    1120:	00f777b3          	and	a5,a4,a5
    1124:	00078663          	beqz	a5,1130 <altera_avalon_jtag_uart_write+0x224>
    return -EWOULDBLOCK;
    1128:	ff500793          	li	a5,-11
    112c:	0080006f          	j	1134 <altera_avalon_jtag_uart_write+0x228>
    sp->tx_out = sp->tx_in = 0;
    return ptr - start + count;
  }
#endif
  else
    return -EIO; /* Host not connected */
    1130:	ffb00793          	li	a5,-5
}
    1134:	00078513          	mv	a0,a5
    1138:	03c12083          	lw	ra,60(sp)
    113c:	03812403          	lw	s0,56(sp)
    1140:	04010113          	add	sp,sp,64
    1144:	00008067          	ret

00001148 <alt_alarm_start>:
 */ 

int alt_alarm_start (alt_alarm* alarm, alt_u32 nticks,
                     alt_u32 (*callback) (void* context),
                     void* context)
{
    1148:	fc010113          	add	sp,sp,-64
    114c:	02812e23          	sw	s0,60(sp)
    1150:	04010413          	add	s0,sp,64
    1154:	fca42623          	sw	a0,-52(s0)
    1158:	fcb42423          	sw	a1,-56(s0)
    115c:	fcc42223          	sw	a2,-60(s0)
    1160:	fcd42023          	sw	a3,-64(s0)
  alt_irq_context irq_context;
  alt_u64 current_nticks = 0;
    1164:	00000713          	li	a4,0
    1168:	00000793          	li	a5,0
    116c:	fee42423          	sw	a4,-24(s0)
    1170:	fef42623          	sw	a5,-20(s0)
    1174:	000097b7          	lui	a5,0x9
    1178:	c607a783          	lw	a5,-928(a5) # 8c60 <_alt_tick_rate>
  
  if (alt_ticks_per_second ())
    117c:	12078063          	beqz	a5,129c <alt_alarm_start+0x154>
  {
    if (alarm)
    1180:	fcc42783          	lw	a5,-52(s0)
    1184:	10078863          	beqz	a5,1294 <alt_alarm_start+0x14c>
    {
      alarm->callback = callback;
    1188:	fcc42783          	lw	a5,-52(s0)
    118c:	fc442703          	lw	a4,-60(s0)
    1190:	00e7a823          	sw	a4,16(a5)
      alarm->context  = context;
    1194:	fcc42783          	lw	a5,-52(s0)
    1198:	fc042703          	lw	a4,-64(s0)
    119c:	00e7aa23          	sw	a4,20(a5)
    NIOSV_READ_AND_CLR_CSR(NIOSV_MSTATUS_CSR, context, NIOSV_MSTATUS_MIE_MASK);
    11a0:	00800793          	li	a5,8
    11a4:	3007b7f3          	csrrc	a5,mstatus,a5
    11a8:	fef42223          	sw	a5,-28(s0)
    return context;
    11ac:	fe442783          	lw	a5,-28(s0)
 
      irq_context = alt_irq_disable_all ();
    11b0:	fcf42a23          	sw	a5,-44(s0)
 * alt_nticks() returns the elapsed number of system clock ticks since reset.
 */

static ALT_INLINE alt_u64 ALT_ALWAYS_INLINE alt_nticks (void)
{
  return _alt_nticks;
    11b4:	000097b7          	lui	a5,0x9
    11b8:	c687a703          	lw	a4,-920(a5) # 8c68 <_alt_nticks>
    11bc:	c6c7a783          	lw	a5,-916(a5)
      
      current_nticks = alt_nticks();
    11c0:	fee42423          	sw	a4,-24(s0)
    11c4:	fef42623          	sw	a5,-20(s0)
      
      alarm->time = (alt_u64)nticks + current_nticks + 1; 
    11c8:	fc842783          	lw	a5,-56(s0)
    11cc:	00078813          	mv	a6,a5
    11d0:	00000893          	li	a7,0
    11d4:	fe842603          	lw	a2,-24(s0)
    11d8:	fec42683          	lw	a3,-20(s0)
    11dc:	00c80733          	add	a4,a6,a2
    11e0:	00070593          	mv	a1,a4
    11e4:	0105b5b3          	sltu	a1,a1,a6
    11e8:	00d887b3          	add	a5,a7,a3
    11ec:	00f586b3          	add	a3,a1,a5
    11f0:	00068793          	mv	a5,a3
    11f4:	00070613          	mv	a2,a4
    11f8:	00078693          	mv	a3,a5
    11fc:	00100513          	li	a0,1
    1200:	00000593          	li	a1,0
    1204:	00a60733          	add	a4,a2,a0
    1208:	00070813          	mv	a6,a4
    120c:	00c83833          	sltu	a6,a6,a2
    1210:	00b687b3          	add	a5,a3,a1
    1214:	00f806b3          	add	a3,a6,a5
    1218:	00068793          	mv	a5,a3
    121c:	fcc42683          	lw	a3,-52(s0)
    1220:	00e6a423          	sw	a4,8(a3)
    1224:	00f6a623          	sw	a5,12(a3)
          
      alt_llist_insert (&alt_alarm_list, &alarm->llist);
    1228:	fcc42783          	lw	a5,-52(s0)
    122c:	81818713          	add	a4,gp,-2024 # 74bc <alt_alarm_list>
    1230:	fce42e23          	sw	a4,-36(s0)
    1234:	fef42023          	sw	a5,-32(s0)
 */

static ALT_INLINE void ALT_ALWAYS_INLINE alt_llist_insert(alt_llist* list, 
                alt_llist* entry)
{
  entry->previous = list;
    1238:	fe042783          	lw	a5,-32(s0)
    123c:	fdc42703          	lw	a4,-36(s0)
    1240:	00e7a223          	sw	a4,4(a5)
  entry->next     = list->next;
    1244:	fdc42783          	lw	a5,-36(s0)
    1248:	0007a703          	lw	a4,0(a5)
    124c:	fe042783          	lw	a5,-32(s0)
    1250:	00e7a023          	sw	a4,0(a5)

  list->next->previous = entry;
    1254:	fdc42783          	lw	a5,-36(s0)
    1258:	0007a783          	lw	a5,0(a5)
    125c:	fe042703          	lw	a4,-32(s0)
    1260:	00e7a223          	sw	a4,4(a5)
  list->next           = entry;
    1264:	fdc42783          	lw	a5,-36(s0)
    1268:	fe042703          	lw	a4,-32(s0)
    126c:	00e7a023          	sw	a4,0(a5)
}
    1270:	00000013          	nop
    1274:	fd442783          	lw	a5,-44(s0)
    1278:	fcf42c23          	sw	a5,-40(s0)
    NIOSV_SET_CSR(NIOSV_MSTATUS_CSR, context & NIOSV_MSTATUS_MIE_MASK);
    127c:	fd842783          	lw	a5,-40(s0)
    1280:	0087f793          	and	a5,a5,8
    1284:	3007a073          	csrs	mstatus,a5
}
    1288:	00000013          	nop
      alt_irq_enable_all (irq_context);

      return 0;
    128c:	00000793          	li	a5,0
    1290:	0100006f          	j	12a0 <alt_alarm_start+0x158>
    }
    else
    {
      return -EINVAL;
    1294:	fea00793          	li	a5,-22
    1298:	0080006f          	j	12a0 <alt_alarm_start+0x158>
    }
  }
  else
  {
    return -ENOTSUP;
    129c:	f7a00793          	li	a5,-134
  }
}
    12a0:	00078513          	mv	a0,a5
    12a4:	03c12403          	lw	s0,60(sp)
    12a8:	04010113          	add	sp,sp,64
    12ac:	00008067          	ret

000012b0 <alt_busy_sleep>:

// For a 50 Mhz clock, this is 1,202,590,842.
#define US_PER_OUTER_LOOP ((alt_u64)CLOCKS_PER_OUTER_LOOP / (alt_u64)CPU_FREQUENCY_MHZ)

unsigned int alt_busy_sleep (unsigned int us)
{
    12b0:	fd010113          	add	sp,sp,-48
    12b4:	02112623          	sw	ra,44(sp)
    12b8:	02812423          	sw	s0,40(sp)
    12bc:	03010413          	add	s0,sp,48
    12c0:	fca42e23          	sw	a0,-36(s0)
 * is connected, use that. If no timer agent is connected, fallback to a low accuracy busy
 * loop. If accurate timing is desired for busy sleep (used by usleep), please be sure to
 * provide a timestamp source, or connect the timer agent.
 */
#if HAL_TIMESTAMP_ENABLED
    alt_timestamp_start();
    12c4:	0f1000ef          	jal	1bb4 <alt_timestamp_start>
    const alt_timestamp_type end_time = (CPU_FREQUENCY_MHZ * us);
    12c8:	fdc42703          	lw	a4,-36(s0)
    12cc:	00070793          	mv	a5,a4
    12d0:	00179793          	sll	a5,a5,0x1
    12d4:	00e787b3          	add	a5,a5,a4
    12d8:	00379793          	sll	a5,a5,0x3
    12dc:	00e787b3          	add	a5,a5,a4
    12e0:	00179793          	sll	a5,a5,0x1
    12e4:	fef42423          	sw	a5,-24(s0)
    12e8:	fe042623          	sw	zero,-20(s0)
    while (alt_timestamp() < end_time) {
    12ec:	00000013          	nop
    12f0:	105000ef          	jal	1bf4 <alt_timestamp>
    12f4:	00050713          	mv	a4,a0
    12f8:	00058793          	mv	a5,a1
    12fc:	fec42683          	lw	a3,-20(s0)
    1300:	00078613          	mv	a2,a5
    1304:	fed666e3          	bltu	a2,a3,12f0 <alt_busy_sleep+0x40>
    1308:	fec42683          	lw	a3,-20(s0)
    130c:	00078613          	mv	a2,a5
    1310:	00c69863          	bne	a3,a2,1320 <alt_busy_sleep+0x70>
    1314:	fe842683          	lw	a3,-24(s0)
    1318:	00070793          	mv	a5,a4
    131c:	fcd7eae3          	bltu	a5,a3,12f0 <alt_busy_sleep+0x40>
        );
    }
#endif
#endif /* #ifndef ALT_SIM_OPTIMIZE */

  return 0;
    1320:	00000793          	li	a5,0
}
    1324:	00078513          	mv	a0,a5
    1328:	02c12083          	lw	ra,44(sp)
    132c:	02812403          	lw	s0,40(sp)
    1330:	03010113          	add	sp,sp,48
    1334:	00008067          	ret

00001338 <alt_dcache_flush_all>:

/*
 * alt_dcache_flush_all() is called to flush the entire data cache.
 */
void alt_dcache_flush_all (void)
{
    1338:	ff010113          	add	sp,sp,-16
    133c:	00812623          	sw	s0,12(sp)
    1340:	01010413          	add	s0,sp,16
    for (i = (char*)0; i < (char*) ALT_CPU_DCACHE_SIZE; i+= ALT_CPU_DCACHE_LINE_SIZE)
    { 
      DCACHE_CLEAN_BY_INDEX_VAL(i); 
    }
#endif
}
    1344:	00000013          	nop
    1348:	00c12403          	lw	s0,12(sp)
    134c:	01010113          	add	sp,sp,16
    1350:	00008067          	ret

00001354 <alt_dev_null_write>:
 * by the alt_dev_null device. It simple discards all data passed to it, and
 * indicates that the data has been successfully transmitted.
 */

static int alt_dev_null_write (alt_fd* fd, const char* ptr, int len)
{
    1354:	fe010113          	add	sp,sp,-32
    1358:	00812e23          	sw	s0,28(sp)
    135c:	02010413          	add	s0,sp,32
    1360:	fea42623          	sw	a0,-20(s0)
    1364:	feb42423          	sw	a1,-24(s0)
    1368:	fec42223          	sw	a2,-28(s0)
  return len;
    136c:	fe442783          	lw	a5,-28(s0)
}
    1370:	00078513          	mv	a0,a5
    1374:	01c12403          	lw	s0,28(sp)
    1378:	02010113          	add	sp,sp,32
    137c:	00008067          	ret

00001380 <alt_dev_reg>:
    }
    /* all other elements are set to zero */
  };
  
int alt_dev_reg (alt_dev* dev)
{
    1380:	fe010113          	add	sp,sp,-32
    1384:	00112e23          	sw	ra,28(sp)
    1388:	00812c23          	sw	s0,24(sp)
    138c:	02010413          	add	s0,sp,32
    1390:	fea42623          	sw	a0,-20(s0)
    return alt_dev_llist_insert ((alt_dev_llist*) dev, &alt_dev_list);
    1394:	000077b7          	lui	a5,0x7
    1398:	4ac78593          	add	a1,a5,1196 # 74ac <alt_dev_list>
    139c:	fec42503          	lw	a0,-20(s0)
    13a0:	060000ef          	jal	1400 <alt_dev_llist_insert>
    13a4:	00050793          	mv	a5,a0
}
    13a8:	00078513          	mv	a0,a5
    13ac:	01c12083          	lw	ra,28(sp)
    13b0:	01812403          	lw	s0,24(sp)
    13b4:	02010113          	add	sp,sp,32
    13b8:	00008067          	ret

000013bc <alt_get_errno>:
    13bc:	ff010113          	add	sp,sp,-16
    13c0:	00112623          	sw	ra,12(sp)
    13c4:	00812423          	sw	s0,8(sp)
    13c8:	01010413          	add	s0,sp,16
    13cc:	8141a783          	lw	a5,-2028(gp) # 74b8 <alt_errno>
    13d0:	00078a63          	beqz	a5,13e4 <alt_get_errno+0x28>
    13d4:	8141a783          	lw	a5,-2028(gp) # 74b8 <alt_errno>
    13d8:	000780e7          	jalr	a5
    13dc:	00050793          	mv	a5,a0
    13e0:	00c0006f          	j	13ec <alt_get_errno+0x30>
    13e4:	000097b7          	lui	a5,0x9
    13e8:	c7878793          	add	a5,a5,-904 # 8c78 <errno>
    13ec:	00078513          	mv	a0,a5
    13f0:	00c12083          	lw	ra,12(sp)
    13f4:	00812403          	lw	s0,8(sp)
    13f8:	01010113          	add	sp,sp,16
    13fc:	00008067          	ret

00001400 <alt_dev_llist_insert>:
{
    1400:	fd010113          	add	sp,sp,-48
    1404:	02112623          	sw	ra,44(sp)
    1408:	02812423          	sw	s0,40(sp)
    140c:	03010413          	add	s0,sp,48
    1410:	fca42e23          	sw	a0,-36(s0)
    1414:	fcb42c23          	sw	a1,-40(s0)
  if (!dev || !dev->name)
    1418:	fdc42783          	lw	a5,-36(s0)
    141c:	00078863          	beqz	a5,142c <alt_dev_llist_insert+0x2c>
    1420:	fdc42783          	lw	a5,-36(s0)
    1424:	0087a783          	lw	a5,8(a5)
    1428:	00079e63          	bnez	a5,1444 <alt_dev_llist_insert+0x44>
    ALT_ERRNO = EINVAL;
    142c:	f91ff0ef          	jal	13bc <alt_get_errno>
    1430:	00050713          	mv	a4,a0
    1434:	01600793          	li	a5,22
    1438:	00f72023          	sw	a5,0(a4)
    return -EINVAL;
    143c:	fea00793          	li	a5,-22
    1440:	0540006f          	j	1494 <alt_dev_llist_insert+0x94>
  alt_llist_insert(list, &dev->llist);
    1444:	fdc42783          	lw	a5,-36(s0)
    1448:	fd842703          	lw	a4,-40(s0)
    144c:	fee42423          	sw	a4,-24(s0)
    1450:	fef42623          	sw	a5,-20(s0)
  entry->previous = list;
    1454:	fec42783          	lw	a5,-20(s0)
    1458:	fe842703          	lw	a4,-24(s0)
    145c:	00e7a223          	sw	a4,4(a5)
  entry->next     = list->next;
    1460:	fe842783          	lw	a5,-24(s0)
    1464:	0007a703          	lw	a4,0(a5)
    1468:	fec42783          	lw	a5,-20(s0)
    146c:	00e7a023          	sw	a4,0(a5)
  list->next->previous = entry;
    1470:	fe842783          	lw	a5,-24(s0)
    1474:	0007a783          	lw	a5,0(a5)
    1478:	fec42703          	lw	a4,-20(s0)
    147c:	00e7a223          	sw	a4,4(a5)
  list->next           = entry;
    1480:	fe842783          	lw	a5,-24(s0)
    1484:	fec42703          	lw	a4,-20(s0)
    1488:	00e7a023          	sw	a4,0(a5)
}
    148c:	00000013          	nop
  return 0;  
    1490:	00000793          	li	a5,0
}
    1494:	00078513          	mv	a0,a5
    1498:	02c12083          	lw	ra,44(sp)
    149c:	02812403          	lw	s0,40(sp)
    14a0:	03010113          	add	sp,sp,48
    14a4:	00008067          	ret

000014a8 <_do_ctors>:
/*
 * Run the C++ static constructors.
 */

void _do_ctors(void)
{
    14a8:	fe010113          	add	sp,sp,-32
    14ac:	00112e23          	sw	ra,28(sp)
    14b0:	00812c23          	sw	s0,24(sp)
    14b4:	02010413          	add	s0,sp,32
  constructor* ctor;

  for (ctor = __init_array_start; ctor < __init_array_end; ctor++)
    14b8:	000067b7          	lui	a5,0x6
    14bc:	d0478793          	add	a5,a5,-764 # 5d04 <__init_array_start>
    14c0:	fef42623          	sw	a5,-20(s0)
    14c4:	01c0006f          	j	14e0 <_do_ctors+0x38>
        (*ctor) (); 
    14c8:	fec42783          	lw	a5,-20(s0)
    14cc:	0007a783          	lw	a5,0(a5)
    14d0:	000780e7          	jalr	a5
  for (ctor = __init_array_start; ctor < __init_array_end; ctor++)
    14d4:	fec42783          	lw	a5,-20(s0)
    14d8:	00478793          	add	a5,a5,4
    14dc:	fef42623          	sw	a5,-20(s0)
    14e0:	fec42703          	lw	a4,-20(s0)
    14e4:	000067b7          	lui	a5,0x6
    14e8:	d0c78793          	add	a5,a5,-756 # 5d0c <__fini_array_end>
    14ec:	fcf76ee3          	bltu	a4,a5,14c8 <_do_ctors+0x20>
}
    14f0:	00000013          	nop
    14f4:	00000013          	nop
    14f8:	01c12083          	lw	ra,28(sp)
    14fc:	01812403          	lw	s0,24(sp)
    1500:	02010113          	add	sp,sp,32
    1504:	00008067          	ret

00001508 <_do_dtors>:
/*
 * Run the C++ static destructors.
 */

void _do_dtors(void)
{
    1508:	fe010113          	add	sp,sp,-32
    150c:	00112e23          	sw	ra,28(sp)
    1510:	00812c23          	sw	s0,24(sp)
    1514:	02010413          	add	s0,sp,32
  destructor* dtor;

  for (dtor = &__fini_array_end[-1]; dtor >= __fini_array_start; dtor--)
    1518:	000067b7          	lui	a5,0x6
    151c:	d0878793          	add	a5,a5,-760 # 5d08 <__init_array_start+0x4>
    1520:	fef42623          	sw	a5,-20(s0)
    1524:	01c0006f          	j	1540 <_do_dtors+0x38>
        (*dtor) (); 
    1528:	fec42783          	lw	a5,-20(s0)
    152c:	0007a783          	lw	a5,0(a5)
    1530:	000780e7          	jalr	a5
  for (dtor = &__fini_array_end[-1]; dtor >= __fini_array_start; dtor--)
    1534:	fec42783          	lw	a5,-20(s0)
    1538:	ffc78793          	add	a5,a5,-4
    153c:	fef42623          	sw	a5,-20(s0)
    1540:	fec42703          	lw	a4,-20(s0)
    1544:	000067b7          	lui	a5,0x6
    1548:	d0c78793          	add	a5,a5,-756 # 5d0c <__fini_array_end>
    154c:	fcf77ee3          	bgeu	a4,a5,1528 <_do_dtors+0x20>
}
    1550:	00000013          	nop
    1554:	00000013          	nop
    1558:	01c12083          	lw	ra,28(sp)
    155c:	01812403          	lw	s0,24(sp)
    1560:	02010113          	add	sp,sp,32
    1564:	00008067          	ret

00001568 <alt_icache_flush_all>:
/*
 * alt_icache_flush_all() is called to flush the entire instruction cache.
 */

void alt_icache_flush_all (void)
{
    1568:	ff010113          	add	sp,sp,-16
    156c:	00812623          	sw	s0,12(sp)
    1570:	01010413          	add	s0,sp,16
#if ALT_CPU_ICACHE_SIZE > 0
    __asm__ volatile("fence.i" ::: "memory");
#endif
}
    1574:	00000013          	nop
    1578:	00c12403          	lw	s0,12(sp)
    157c:	01010113          	add	sp,sp,16
    1580:	00008067          	ret

00001584 <alt_ic_isr_register>:
  * @return                 0 if successful, else error (-1)
  */
int 
alt_ic_isr_register(alt_u32 ic_id, alt_u32 irq, alt_isr_func isr, 
  void *isr_context, void *flags)
{
    1584:	fd010113          	add	sp,sp,-48
    1588:	02112623          	sw	ra,44(sp)
    158c:	02812423          	sw	s0,40(sp)
    1590:	03010413          	add	s0,sp,48
    1594:	fea42623          	sw	a0,-20(s0)
    1598:	feb42423          	sw	a1,-24(s0)
    159c:	fec42223          	sw	a2,-28(s0)
    15a0:	fed42023          	sw	a3,-32(s0)
    15a4:	fce42e23          	sw	a4,-36(s0)
    return alt_iic_isr_register(ic_id, irq, isr, isr_context, flags);
    15a8:	fdc42703          	lw	a4,-36(s0)
    15ac:	fe042683          	lw	a3,-32(s0)
    15b0:	fe442603          	lw	a2,-28(s0)
    15b4:	fe842583          	lw	a1,-24(s0)
    15b8:	fec42503          	lw	a0,-20(s0)
    15bc:	01c000ef          	jal	15d8 <alt_iic_isr_register>
    15c0:	00050793          	mv	a5,a0
}  
    15c4:	00078513          	mv	a0,a5
    15c8:	02c12083          	lw	ra,44(sp)
    15cc:	02812403          	lw	s0,40(sp)
    15d0:	03010113          	add	sp,sp,48
    15d4:	00008067          	ret

000015d8 <alt_iic_isr_register>:
  * @param flags            
  * @return                 0 if successful, else error (-1)
  */
int alt_iic_isr_register(alt_u32 ic_id, alt_u32 irq, alt_isr_func isr, 
  void *isr_context, void *flags)
{
    15d8:	fa010113          	add	sp,sp,-96
    15dc:	04812e23          	sw	s0,92(sp)
    15e0:	06010413          	add	s0,sp,96
    15e4:	faa42e23          	sw	a0,-68(s0)
    15e8:	fab42c23          	sw	a1,-72(s0)
    15ec:	fac42a23          	sw	a2,-76(s0)
    15f0:	fad42823          	sw	a3,-80(s0)
    15f4:	fae42623          	sw	a4,-84(s0)
  int rc = -EINVAL;  
    15f8:	fea00793          	li	a5,-22
    15fc:	fcf42223          	sw	a5,-60(s0)
  int id = irq;             /* IRQ interpreted as the interrupt ID. */
    1600:	fb842783          	lw	a5,-72(s0)
    1604:	fcf42423          	sw	a5,-56(s0)
  alt_irq_context status;

  if (id < ALT_NIRQ)
    1608:	fc842703          	lw	a4,-56(s0)
    160c:	00f00793          	li	a5,15
    1610:	12e7c863          	blt	a5,a4,1740 <alt_iic_isr_register+0x168>
    NIOSV_READ_AND_CLR_CSR(NIOSV_MSTATUS_CSR, context, NIOSV_MSTATUS_MIE_MASK);
    1614:	00800793          	li	a5,8
    1618:	3007b7f3          	csrrc	a5,mstatus,a5
    161c:	fcf42823          	sw	a5,-48(s0)
    return context;
    1620:	fd042783          	lw	a5,-48(s0)
     * interrupts are disabled while the handler tables are updated to ensure
     * that an interrupt doesn't occur while the tables are in an inconsistant
     * state.
     */

    status = alt_irq_disable_all();
    1624:	fcf42623          	sw	a5,-52(s0)

    alt_irq[id].handler = isr;
    1628:	000097b7          	lui	a5,0x9
    162c:	cb478713          	add	a4,a5,-844 # 8cb4 <alt_irq>
    1630:	fc842783          	lw	a5,-56(s0)
    1634:	00379793          	sll	a5,a5,0x3
    1638:	00f707b3          	add	a5,a4,a5
    163c:	fb442703          	lw	a4,-76(s0)
    1640:	00e7a023          	sw	a4,0(a5)
    alt_irq[id].context = isr_context;
    1644:	000097b7          	lui	a5,0x9
    1648:	cb478713          	add	a4,a5,-844 # 8cb4 <alt_irq>
    164c:	fc842783          	lw	a5,-56(s0)
    1650:	00379793          	sll	a5,a5,0x3
    1654:	00f707b3          	add	a5,a4,a5
    1658:	fb042703          	lw	a4,-80(s0)
    165c:	00e7a223          	sw	a4,4(a5)

    rc = (isr) ? alt_ic_irq_enable(ic_id, id) : alt_ic_irq_disable(ic_id, id);
    1660:	fb442783          	lw	a5,-76(s0)
    1664:	06078263          	beqz	a5,16c8 <alt_iic_isr_register+0xf0>
    1668:	fc842783          	lw	a5,-56(s0)
    166c:	fbc42703          	lw	a4,-68(s0)
    1670:	fce42a23          	sw	a4,-44(s0)
    1674:	fcf42c23          	sw	a5,-40(s0)
    int rc = ALT_REMAP_IRQ_NUM(irq);
    1678:	fd842703          	lw	a4,-40(s0)
    167c:	00f00793          	li	a5,15
    1680:	00e7e863          	bltu	a5,a4,1690 <alt_iic_isr_register+0xb8>
    1684:	fd842783          	lw	a5,-40(s0)
    1688:	01078793          	add	a5,a5,16
    168c:	0080006f          	j	1694 <alt_iic_isr_register+0xbc>
    1690:	fff00793          	li	a5,-1
    1694:	fcf42e23          	sw	a5,-36(s0)
    if (rc < 0)
    1698:	fdc42783          	lw	a5,-36(s0)
    169c:	0007d663          	bgez	a5,16a8 <alt_iic_isr_register+0xd0>
        return rc;
    16a0:	fdc42783          	lw	a5,-36(s0)
    16a4:	0800006f          	j	1724 <alt_iic_isr_register+0x14c>
        irq = (alt_u32)rc;
    16a8:	fdc42783          	lw	a5,-36(s0)
    16ac:	fcf42c23          	sw	a5,-40(s0)
    NIOSV_SET_CSR(NIOSV_MIE_CSR, 0x1 << irq);
    16b0:	fd842783          	lw	a5,-40(s0)
    16b4:	00100713          	li	a4,1
    16b8:	00f717b3          	sll	a5,a4,a5
    16bc:	3047a073          	csrs	mie,a5
    return 0;
    16c0:	00000793          	li	a5,0
    16c4:	0600006f          	j	1724 <alt_iic_isr_register+0x14c>
    16c8:	fc842783          	lw	a5,-56(s0)
    16cc:	fbc42703          	lw	a4,-68(s0)
    16d0:	fee42023          	sw	a4,-32(s0)
    16d4:	fef42223          	sw	a5,-28(s0)
    int rc = ALT_REMAP_IRQ_NUM(irq);
    16d8:	fe442703          	lw	a4,-28(s0)
    16dc:	00f00793          	li	a5,15
    16e0:	00e7e863          	bltu	a5,a4,16f0 <alt_iic_isr_register+0x118>
    16e4:	fe442783          	lw	a5,-28(s0)
    16e8:	01078793          	add	a5,a5,16
    16ec:	0080006f          	j	16f4 <alt_iic_isr_register+0x11c>
    16f0:	fff00793          	li	a5,-1
    16f4:	fef42423          	sw	a5,-24(s0)
    if (rc < 0)
    16f8:	fe842783          	lw	a5,-24(s0)
    16fc:	0007d663          	bgez	a5,1708 <alt_iic_isr_register+0x130>
        return rc;
    1700:	fe842783          	lw	a5,-24(s0)
    1704:	0200006f          	j	1724 <alt_iic_isr_register+0x14c>
        irq = (alt_u32)rc;
    1708:	fe842783          	lw	a5,-24(s0)
    170c:	fef42223          	sw	a5,-28(s0)
    NIOSV_CLR_CSR(NIOSV_MIE_CSR, 0x1 << irq);
    1710:	fe442783          	lw	a5,-28(s0)
    1714:	00100713          	li	a4,1
    1718:	00f717b3          	sll	a5,a4,a5
    171c:	3047b073          	csrc	mie,a5
    return 0;
    1720:	00000793          	li	a5,0
    1724:	fcf42223          	sw	a5,-60(s0)
    1728:	fcc42783          	lw	a5,-52(s0)
    172c:	fef42623          	sw	a5,-20(s0)
    NIOSV_SET_CSR(NIOSV_MSTATUS_CSR, context & NIOSV_MSTATUS_MIE_MASK);
    1730:	fec42783          	lw	a5,-20(s0)
    1734:	0087f793          	and	a5,a5,8
    1738:	3007a073          	csrs	mstatus,a5
}
    173c:	00000013          	nop

    alt_irq_enable_all(status);
  }

  return rc; 
    1740:	fc442783          	lw	a5,-60(s0)
}
    1744:	00078513          	mv	a0,a5
    1748:	05c12403          	lw	s0,92(sp)
    174c:	06010113          	add	sp,sp,96
    1750:	00008067          	ret

00001754 <alt_open_fd>:
 * If the device can not be succesfully opened, then the input file descriptor
 * remains unchanged.
 */

static void alt_open_fd(alt_fd* fd, const char* name, int flags, int mode)
{
    1754:	fd010113          	add	sp,sp,-48
    1758:	02112623          	sw	ra,44(sp)
    175c:	02812423          	sw	s0,40(sp)
    1760:	03010413          	add	s0,sp,48
    1764:	fca42e23          	sw	a0,-36(s0)
    1768:	fcb42c23          	sw	a1,-40(s0)
    176c:	fcc42a23          	sw	a2,-44(s0)
    1770:	fcd42823          	sw	a3,-48(s0)
  int old;

  old = open (name, flags, mode);
    1774:	fd042603          	lw	a2,-48(s0)
    1778:	fd442583          	lw	a1,-44(s0)
    177c:	fd842503          	lw	a0,-40(s0)
    1780:	7d4000ef          	jal	1f54 <open>
    1784:	fea42623          	sw	a0,-20(s0)

  if (old >= 0)
    1788:	fec42783          	lw	a5,-20(s0)
    178c:	0807c863          	bltz	a5,181c <alt_open_fd+0xc8>
  {
    fd->dev      = alt_fd_list[old].dev;
    1790:	000077b7          	lui	a5,0x7
    1794:	df078693          	add	a3,a5,-528 # 6df0 <alt_fd_list>
    1798:	fec42703          	lw	a4,-20(s0)
    179c:	00070793          	mv	a5,a4
    17a0:	00179793          	sll	a5,a5,0x1
    17a4:	00e787b3          	add	a5,a5,a4
    17a8:	00279793          	sll	a5,a5,0x2
    17ac:	00f687b3          	add	a5,a3,a5
    17b0:	0007a703          	lw	a4,0(a5)
    17b4:	fdc42783          	lw	a5,-36(s0)
    17b8:	00e7a023          	sw	a4,0(a5)
    fd->priv     = alt_fd_list[old].priv;
    17bc:	000077b7          	lui	a5,0x7
    17c0:	df078693          	add	a3,a5,-528 # 6df0 <alt_fd_list>
    17c4:	fec42703          	lw	a4,-20(s0)
    17c8:	00070793          	mv	a5,a4
    17cc:	00179793          	sll	a5,a5,0x1
    17d0:	00e787b3          	add	a5,a5,a4
    17d4:	00279793          	sll	a5,a5,0x2
    17d8:	00f687b3          	add	a5,a3,a5
    17dc:	0047a703          	lw	a4,4(a5)
    17e0:	fdc42783          	lw	a5,-36(s0)
    17e4:	00e7a223          	sw	a4,4(a5)
    fd->fd_flags = alt_fd_list[old].fd_flags;
    17e8:	000077b7          	lui	a5,0x7
    17ec:	df078693          	add	a3,a5,-528 # 6df0 <alt_fd_list>
    17f0:	fec42703          	lw	a4,-20(s0)
    17f4:	00070793          	mv	a5,a4
    17f8:	00179793          	sll	a5,a5,0x1
    17fc:	00e787b3          	add	a5,a5,a4
    1800:	00279793          	sll	a5,a5,0x2
    1804:	00f687b3          	add	a5,a3,a5
    1808:	0087a703          	lw	a4,8(a5)
    180c:	fdc42783          	lw	a5,-36(s0)
    1810:	00e7a423          	sw	a4,8(a5)

    alt_release_fd (old);
    1814:	fec42503          	lw	a0,-20(s0)
    1818:	114000ef          	jal	192c <alt_release_fd>
  }
} 
    181c:	00000013          	nop
    1820:	02c12083          	lw	ra,44(sp)
    1824:	02812403          	lw	s0,40(sp)
    1828:	03010113          	add	sp,sp,48
    182c:	00008067          	ret

00001830 <alt_io_redirect>:
 */
 
void alt_io_redirect(const char* stdout_dev, 
                     const char* stdin_dev, 
                     const char* stderr_dev)
{
    1830:	fe010113          	add	sp,sp,-32
    1834:	00112e23          	sw	ra,28(sp)
    1838:	00812c23          	sw	s0,24(sp)
    183c:	02010413          	add	s0,sp,32
    1840:	fea42623          	sw	a0,-20(s0)
    1844:	feb42423          	sw	a1,-24(s0)
    1848:	fec42223          	sw	a2,-28(s0)
  /* Redirect the channels */

  alt_open_fd (&alt_fd_list[STDOUT_FILENO], stdout_dev, O_WRONLY, 0777);
    184c:	1ff00693          	li	a3,511
    1850:	00100613          	li	a2,1
    1854:	fec42583          	lw	a1,-20(s0)
    1858:	000077b7          	lui	a5,0x7
    185c:	dfc78513          	add	a0,a5,-516 # 6dfc <alt_fd_list+0xc>
    1860:	ef5ff0ef          	jal	1754 <alt_open_fd>
  alt_open_fd (&alt_fd_list[STDIN_FILENO], stdin_dev, O_RDONLY, 0777);
    1864:	1ff00693          	li	a3,511
    1868:	00000613          	li	a2,0
    186c:	fe842583          	lw	a1,-24(s0)
    1870:	000077b7          	lui	a5,0x7
    1874:	df078513          	add	a0,a5,-528 # 6df0 <alt_fd_list>
    1878:	eddff0ef          	jal	1754 <alt_open_fd>
  alt_open_fd (&alt_fd_list[STDERR_FILENO], stderr_dev, O_WRONLY, 0777);
    187c:	1ff00693          	li	a3,511
    1880:	00100613          	li	a2,1
    1884:	fe442583          	lw	a1,-28(s0)
    1888:	000077b7          	lui	a5,0x7
    188c:	e0878513          	add	a0,a5,-504 # 6e08 <alt_fd_list+0x18>
    1890:	ec5ff0ef          	jal	1754 <alt_open_fd>

#ifndef USE_PICOLIBC
  /* Allocate a stream buffer if it is not yet done.
   * And use no buffering mode by default.
   */
  if ((FILE *)stdin->_bf._base == NULL)
    1894:	8201a783          	lw	a5,-2016(gp) # 74c4 <_impure_ptr>
    1898:	0047a783          	lw	a5,4(a5)
    189c:	0107a783          	lw	a5,16(a5)
    18a0:	02079063          	bnez	a5,18c0 <alt_io_redirect+0x90>
  {
    setvbuf(stdin, NULL, _IONBF, 0);
    18a4:	8201a783          	lw	a5,-2016(gp) # 74c4 <_impure_ptr>
    18a8:	0047a783          	lw	a5,4(a5)
    18ac:	00000693          	li	a3,0
    18b0:	00200613          	li	a2,2
    18b4:	00000593          	li	a1,0
    18b8:	00078513          	mv	a0,a5
    18bc:	4a9000ef          	jal	2564 <setvbuf>
  }

  if ((FILE *)stdout->_bf._base == NULL)
    18c0:	8201a783          	lw	a5,-2016(gp) # 74c4 <_impure_ptr>
    18c4:	0087a783          	lw	a5,8(a5)
    18c8:	0107a783          	lw	a5,16(a5)
    18cc:	02079063          	bnez	a5,18ec <alt_io_redirect+0xbc>
  {
    setvbuf(stdout, NULL, _IONBF, 0);
    18d0:	8201a783          	lw	a5,-2016(gp) # 74c4 <_impure_ptr>
    18d4:	0087a783          	lw	a5,8(a5)
    18d8:	00000693          	li	a3,0
    18dc:	00200613          	li	a2,2
    18e0:	00000593          	li	a1,0
    18e4:	00078513          	mv	a0,a5
    18e8:	47d000ef          	jal	2564 <setvbuf>
  }

  if ((FILE *)stderr->_bf._base == NULL)
    18ec:	8201a783          	lw	a5,-2016(gp) # 74c4 <_impure_ptr>
    18f0:	00c7a783          	lw	a5,12(a5)
    18f4:	0107a783          	lw	a5,16(a5)
    18f8:	02079063          	bnez	a5,1918 <alt_io_redirect+0xe8>
  {
    setvbuf(stderr, NULL, _IONBF, 0);
    18fc:	8201a783          	lw	a5,-2016(gp) # 74c4 <_impure_ptr>
    1900:	00c7a783          	lw	a5,12(a5)
    1904:	00000693          	li	a3,0
    1908:	00200613          	li	a2,2
    190c:	00000593          	li	a1,0
    1910:	00078513          	mv	a0,a5
    1914:	451000ef          	jal	2564 <setvbuf>
  }
#endif
}  
    1918:	00000013          	nop
    191c:	01c12083          	lw	ra,28(sp)
    1920:	01812403          	lw	s0,24(sp)
    1924:	02010113          	add	sp,sp,32
    1928:	00008067          	ret

0000192c <alt_release_fd>:
 * File descriptors correcponding to standard in, standard out and standard 
 * error cannont be released backed to the pool. They are always reserved.
 */

void alt_release_fd (int fd)
{
    192c:	fe010113          	add	sp,sp,-32
    1930:	00812e23          	sw	s0,28(sp)
    1934:	02010413          	add	s0,sp,32
    1938:	fea42623          	sw	a0,-20(s0)
  if (fd > 2)
    193c:	fec42703          	lw	a4,-20(s0)
    1940:	00200793          	li	a5,2
    1944:	04e7d663          	bge	a5,a4,1990 <alt_release_fd+0x64>
  {
    alt_fd_list[fd].fd_flags = 0;
    1948:	000077b7          	lui	a5,0x7
    194c:	df078693          	add	a3,a5,-528 # 6df0 <alt_fd_list>
    1950:	fec42703          	lw	a4,-20(s0)
    1954:	00070793          	mv	a5,a4
    1958:	00179793          	sll	a5,a5,0x1
    195c:	00e787b3          	add	a5,a5,a4
    1960:	00279793          	sll	a5,a5,0x2
    1964:	00f687b3          	add	a5,a3,a5
    1968:	0007a423          	sw	zero,8(a5)
    alt_fd_list[fd].dev      = 0;
    196c:	000077b7          	lui	a5,0x7
    1970:	df078693          	add	a3,a5,-528 # 6df0 <alt_fd_list>
    1974:	fec42703          	lw	a4,-20(s0)
    1978:	00070793          	mv	a5,a4
    197c:	00179793          	sll	a5,a5,0x1
    1980:	00e787b3          	add	a5,a5,a4
    1984:	00279793          	sll	a5,a5,0x2
    1988:	00f687b3          	add	a5,a3,a5
    198c:	0007a023          	sw	zero,0(a5)
  }
}
    1990:	00000013          	nop
    1994:	01c12403          	lw	s0,28(sp)
    1998:	02010113          	add	sp,sp,32
    199c:	00008067          	ret

000019a0 <alt_alarm_stop>:
 * alarms. Alternatively an alarm can unregister itself by returning zero when 
 * the alarm executes.
 */

void alt_alarm_stop (alt_alarm* alarm)
{
    19a0:	fd010113          	add	sp,sp,-48
    19a4:	02812623          	sw	s0,44(sp)
    19a8:	03010413          	add	s0,sp,48
    19ac:	fca42e23          	sw	a0,-36(s0)
    NIOSV_READ_AND_CLR_CSR(NIOSV_MSTATUS_CSR, context, NIOSV_MSTATUS_MIE_MASK);
    19b0:	00800793          	li	a5,8
    19b4:	3007b7f3          	csrrc	a5,mstatus,a5
    19b8:	fef42623          	sw	a5,-20(s0)
    return context;
    19bc:	fec42783          	lw	a5,-20(s0)
  alt_irq_context irq_context;

  irq_context = alt_irq_disable_all();
    19c0:	fef42023          	sw	a5,-32(s0)
  alt_llist_remove (&alarm->llist);
    19c4:	fdc42783          	lw	a5,-36(s0)
    19c8:	fef42423          	sw	a5,-24(s0)
 * input argument is the element to remove.
 */
     
static ALT_INLINE void ALT_ALWAYS_INLINE alt_llist_remove(alt_llist* entry)
{
  entry->next->previous = entry->previous;
    19cc:	fe842783          	lw	a5,-24(s0)
    19d0:	0007a783          	lw	a5,0(a5)
    19d4:	fe842703          	lw	a4,-24(s0)
    19d8:	00472703          	lw	a4,4(a4)
    19dc:	00e7a223          	sw	a4,4(a5)
  entry->previous->next = entry->next;
    19e0:	fe842783          	lw	a5,-24(s0)
    19e4:	0047a783          	lw	a5,4(a5)
    19e8:	fe842703          	lw	a4,-24(s0)
    19ec:	00072703          	lw	a4,0(a4)
    19f0:	00e7a023          	sw	a4,0(a5)
  /* 
   * Set the entry to point to itself, so that any further calls to
   * alt_llist_remove() are harmless.
   */

  entry->previous = entry;
    19f4:	fe842783          	lw	a5,-24(s0)
    19f8:	fe842703          	lw	a4,-24(s0)
    19fc:	00e7a223          	sw	a4,4(a5)
  entry->next     = entry;
    1a00:	fe842783          	lw	a5,-24(s0)
    1a04:	fe842703          	lw	a4,-24(s0)
    1a08:	00e7a023          	sw	a4,0(a5)
} 
    1a0c:	00000013          	nop
    1a10:	fe042783          	lw	a5,-32(s0)
    1a14:	fef42223          	sw	a5,-28(s0)
    NIOSV_SET_CSR(NIOSV_MSTATUS_CSR, context & NIOSV_MSTATUS_MIE_MASK);
    1a18:	fe442783          	lw	a5,-28(s0)
    1a1c:	0087f793          	and	a5,a5,8
    1a20:	3007a073          	csrs	mstatus,a5
}
    1a24:	00000013          	nop
  alt_irq_enable_all (irq_context);
}
    1a28:	00000013          	nop
    1a2c:	02c12403          	lw	s0,44(sp)
    1a30:	03010113          	add	sp,sp,48
    1a34:	00008067          	ret

00001a38 <alt_tick>:
 * 
 * alt_tick() is expected to run at interrupt level.
 */

void alt_tick (void)
{
    1a38:	fe010113          	add	sp,sp,-32
    1a3c:	00112e23          	sw	ra,28(sp)
    1a40:	00812c23          	sw	s0,24(sp)
    1a44:	01212a23          	sw	s2,20(sp)
    1a48:	01312823          	sw	s3,16(sp)
    1a4c:	02010413          	add	s0,sp,32
  alt_alarm* next;
  alt_alarm* alarm = (alt_alarm*) alt_alarm_list.next;
    1a50:	81818793          	add	a5,gp,-2024 # 74bc <alt_alarm_list>
    1a54:	0007a783          	lw	a5,0(a5)
    1a58:	fef42223          	sw	a5,-28(s0)

  alt_u32    next_callback;

  /* update the tick counter */

  _alt_nticks++;
    1a5c:	000097b7          	lui	a5,0x9
    1a60:	c687a703          	lw	a4,-920(a5) # 8c68 <_alt_nticks>
    1a64:	c6c7a783          	lw	a5,-916(a5)
    1a68:	00100513          	li	a0,1
    1a6c:	00000593          	li	a1,0
    1a70:	00a70633          	add	a2,a4,a0
    1a74:	00060813          	mv	a6,a2
    1a78:	00e83833          	sltu	a6,a6,a4
    1a7c:	00b786b3          	add	a3,a5,a1
    1a80:	00d807b3          	add	a5,a6,a3
    1a84:	00078693          	mv	a3,a5
    1a88:	00060713          	mv	a4,a2
    1a8c:	00068793          	mv	a5,a3
    1a90:	000096b7          	lui	a3,0x9
    1a94:	c6e6a423          	sw	a4,-920(a3) # 8c68 <_alt_nticks>
    1a98:	c6f6a623          	sw	a5,-916(a3)
 
  /* process the registered callbacks */

  while (alarm != (alt_alarm*) &alt_alarm_list)
    1a9c:	0c80006f          	j	1b64 <alt_tick+0x12c>
  {
    next = (alt_alarm*) alarm->llist.next;
    1aa0:	fe442783          	lw	a5,-28(s0)
    1aa4:	0007a783          	lw	a5,0(a5)
    1aa8:	fef42423          	sw	a5,-24(s0)
    
    /* if the alarm period has expired, make the callback */    
    if (alarm->time <= _alt_nticks)
    1aac:	fe442783          	lw	a5,-28(s0)
    1ab0:	0087a603          	lw	a2,8(a5)
    1ab4:	00c7a683          	lw	a3,12(a5)
    1ab8:	000097b7          	lui	a5,0x9
    1abc:	c687a703          	lw	a4,-920(a5) # 8c68 <_alt_nticks>
    1ac0:	c6c7a783          	lw	a5,-916(a5)
    1ac4:	00068513          	mv	a0,a3
    1ac8:	00078593          	mv	a1,a5
    1acc:	08a5e863          	bltu	a1,a0,1b5c <alt_tick+0x124>
    1ad0:	00068513          	mv	a0,a3
    1ad4:	00078593          	mv	a1,a5
    1ad8:	00b51863          	bne	a0,a1,1ae8 <alt_tick+0xb0>
    1adc:	00060693          	mv	a3,a2
    1ae0:	00070793          	mv	a5,a4
    1ae4:	06d7ec63          	bltu	a5,a3,1b5c <alt_tick+0x124>
    {
      next_callback = alarm->callback (alarm->context);
    1ae8:	fe442783          	lw	a5,-28(s0)
    1aec:	0107a783          	lw	a5,16(a5)
    1af0:	fe442703          	lw	a4,-28(s0)
    1af4:	01472703          	lw	a4,20(a4)
    1af8:	00070513          	mv	a0,a4
    1afc:	000780e7          	jalr	a5
    1b00:	fea42623          	sw	a0,-20(s0)

      /* deactivate the alarm if the return value is zero */

      if (next_callback == 0)
    1b04:	fec42783          	lw	a5,-20(s0)
    1b08:	00079863          	bnez	a5,1b18 <alt_tick+0xe0>
      {
        alt_alarm_stop (alarm);
    1b0c:	fe442503          	lw	a0,-28(s0)
    1b10:	e91ff0ef          	jal	19a0 <alt_alarm_stop>
    1b14:	0480006f          	j	1b5c <alt_tick+0x124>
      }
      else
      {
        alarm->time += next_callback;
    1b18:	fe442783          	lw	a5,-28(s0)
    1b1c:	0087a703          	lw	a4,8(a5)
    1b20:	00c7a783          	lw	a5,12(a5)
    1b24:	fec42683          	lw	a3,-20(s0)
    1b28:	00068913          	mv	s2,a3
    1b2c:	00000993          	li	s3,0
    1b30:	01270633          	add	a2,a4,s2
    1b34:	00060593          	mv	a1,a2
    1b38:	00e5b5b3          	sltu	a1,a1,a4
    1b3c:	013786b3          	add	a3,a5,s3
    1b40:	00d587b3          	add	a5,a1,a3
    1b44:	00078693          	mv	a3,a5
    1b48:	00060713          	mv	a4,a2
    1b4c:	00068793          	mv	a5,a3
    1b50:	fe442683          	lw	a3,-28(s0)
    1b54:	00e6a423          	sw	a4,8(a3)
    1b58:	00f6a623          	sw	a5,12(a3)
      }
    }
    alarm = next;
    1b5c:	fe842783          	lw	a5,-24(s0)
    1b60:	fef42223          	sw	a5,-28(s0)
  while (alarm != (alt_alarm*) &alt_alarm_list)
    1b64:	fe442703          	lw	a4,-28(s0)
    1b68:	81818793          	add	a5,gp,-2024 # 74bc <alt_alarm_list>
    1b6c:	f2f71ae3          	bne	a4,a5,1aa0 <alt_tick+0x68>

  /* 
   * Update the operating system specific timer facilities.
   */

  ALT_OS_TIME_TICK();
    1b70:	00000013          	nop
}
    1b74:	00000013          	nop
    1b78:	01c12083          	lw	ra,28(sp)
    1b7c:	01812403          	lw	s0,24(sp)
    1b80:	01412903          	lw	s2,20(sp)
    1b84:	01012983          	lw	s3,16(sp)
    1b88:	02010113          	add	sp,sp,32
    1b8c:	00008067          	ret

00001b90 <intel_niosv_irq_init>:
/*
 * To initialize the internal interrupt controller, just clear the mie
 * register so that all possible IRQs are disabled.
 */
void intel_niosv_irq_init(void) 
{
    1b90:	ff010113          	add	sp,sp,-16
    1b94:	00812623          	sw	s0,12(sp)
    1b98:	01010413          	add	s0,sp,16
#if ALT_HAS_IRQ_SUPPORT
    NIOSV_CLR_CSR(NIOSV_MIE_CSR, NIOSV_MIE_MASK);
    1b9c:	fff00793          	li	a5,-1
    1ba0:	3047b073          	csrc	mie,a5
    NIOSV_WRITE_CSR(NIOSV_MTVEC_CSR, (alt_u32) &VIC_VECTOR_TABLE | ALT_CPU_INT_MODE_VIC);
#endif /* ALT_CPU_INT_MODE == ALT_CPU_INT_MODE_VIC */
#endif /* ALT_CPU_INT_MODE */

#endif
}
    1ba4:	00000013          	nop
    1ba8:	00c12403          	lw	s0,12(sp)
    1bac:	01010113          	add	sp,sp,16
    1bb0:	00008067          	ret

00001bb4 <alt_timestamp_start>:
#define INTEL_NIOSV_TIMER_DEVICE_TYPE 2

#if (ALT_TIMESTAMP_CLK_TIMER_DEVICE_TYPE == INTEL_NIOSV_TIMER_DEVICE_TYPE)
alt_u64 alt_niosv_timestamp_offset = 0;

int alt_timestamp_start() {
    1bb4:	ff010113          	add	sp,sp,-16
    1bb8:	00112623          	sw	ra,12(sp)
    1bbc:	00812423          	sw	s0,8(sp)
    1bc0:	01010413          	add	s0,sp,16
void alt_niosv_timer_sc_isr(alt_u32 cause, alt_u32 epc, alt_u32 tval);

extern alt_u64 alt_niosv_timestamp_offset;

static ALT_INLINE int ALT_ALWAYS_INLINE alt_niosv_timer_timestamp_start() {
    alt_niosv_timestamp_offset = alt_niosv_mtime_get();
    1bc4:	0ac000ef          	jal	1c70 <alt_niosv_mtime_get>
    1bc8:	00050713          	mv	a4,a0
    1bcc:	00058793          	mv	a5,a1
    1bd0:	000096b7          	lui	a3,0x9
    1bd4:	c6e6a823          	sw	a4,-912(a3) # 8c70 <alt_niosv_timestamp_offset>
    1bd8:	c6f6aa23          	sw	a5,-908(a3)
    return 0;
    1bdc:	00000793          	li	a5,0
    return alt_niosv_timer_timestamp_start();
}
    1be0:	00078513          	mv	a0,a5
    1be4:	00c12083          	lw	ra,12(sp)
    1be8:	00812403          	lw	s0,8(sp)
    1bec:	01010113          	add	sp,sp,16
    1bf0:	00008067          	ret

00001bf4 <alt_timestamp>:

alt_timestamp_type alt_timestamp() {
    1bf4:	ff010113          	add	sp,sp,-16
    1bf8:	00112623          	sw	ra,12(sp)
    1bfc:	00812423          	sw	s0,8(sp)
    1c00:	01010413          	add	s0,sp,16
}

static ALT_INLINE alt_u64 ALT_ALWAYS_INLINE alt_niosv_timer_timestamp() {
    return alt_niosv_mtime_get() - alt_niosv_timestamp_offset;
    1c04:	06c000ef          	jal	1c70 <alt_niosv_mtime_get>
    1c08:	00050613          	mv	a2,a0
    1c0c:	00058693          	mv	a3,a1
    1c10:	000097b7          	lui	a5,0x9
    1c14:	c707a503          	lw	a0,-912(a5) # 8c70 <alt_niosv_timestamp_offset>
    1c18:	c747a583          	lw	a1,-908(a5)
    1c1c:	40a60733          	sub	a4,a2,a0
    1c20:	00070813          	mv	a6,a4
    1c24:	01063833          	sltu	a6,a2,a6
    1c28:	40b687b3          	sub	a5,a3,a1
    1c2c:	410786b3          	sub	a3,a5,a6
    1c30:	00068793          	mv	a5,a3
    return alt_niosv_timer_timestamp();
}
    1c34:	00070513          	mv	a0,a4
    1c38:	00078593          	mv	a1,a5
    1c3c:	00c12083          	lw	ra,12(sp)
    1c40:	00812403          	lw	s0,8(sp)
    1c44:	01010113          	add	sp,sp,16
    1c48:	00008067          	ret

00001c4c <alt_timestamp_freq>:

alt_u32 alt_timestamp_freq() {
    1c4c:	ff010113          	add	sp,sp,-16
    1c50:	00812623          	sw	s0,12(sp)
    1c54:	01010413          	add	s0,sp,16
}

static ALT_INLINE alt_u32 ALT_ALWAYS_INLINE alt_niosv_timer_timestamp_freq() {
    return ALT_CPU_CPU_FREQ;
    1c58:	02faf7b7          	lui	a5,0x2faf
    1c5c:	08078793          	add	a5,a5,128 # 2faf080 <__alt_heap_start+0x2fa605c>
    return alt_niosv_timer_timestamp_freq();
}
    1c60:	00078513          	mv	a0,a5
    1c64:	00c12403          	lw	s0,12(sp)
    1c68:	01010113          	add	sp,sp,16
    1c6c:	00008067          	ret

00001c70 <alt_niosv_mtime_get>:
#endif

alt_u64 alt_niosv_mtime_get() {
    1c70:	fe010113          	add	sp,sp,-32
    1c74:	00812e23          	sw	s0,28(sp)
    1c78:	02010413          	add	s0,sp,32
    alt_u32 lowbits;
    alt_u32 highbits;

    // Guard against rollover while acquiring each word
    do {
        highbits = ALT_VOLATILE_ACCESS((alt_u32 *)(NIOSV_MTIME_ADDR + 4));
    1c7c:	04090337          	lui	t1,0x4090
    1c80:	08430313          	add	t1,t1,132 # 4090084 <__reset+0x90084>
    1c84:	00032303          	lw	t1,0(t1)
    1c88:	fe642423          	sw	t1,-24(s0)
        lowbits = ALT_VOLATILE_ACCESS((alt_u32 *)NIOSV_MTIME_ADDR);
    1c8c:	04090337          	lui	t1,0x4090
    1c90:	08030313          	add	t1,t1,128 # 4090080 <__reset+0x90080>
    1c94:	00032303          	lw	t1,0(t1)
    1c98:	fe642623          	sw	t1,-20(s0)
    } while (ALT_VOLATILE_ACCESS((alt_u32 *)(NIOSV_MTIME_ADDR + 4)) != highbits);
    1c9c:	04090337          	lui	t1,0x4090
    1ca0:	08430313          	add	t1,t1,132 # 4090084 <__reset+0x90084>
    1ca4:	00032303          	lw	t1,0(t1)
    1ca8:	fe842e03          	lw	t3,-24(s0)
    1cac:	fc6e18e3          	bne	t3,t1,1c7c <alt_niosv_mtime_get+0xc>

    return (((alt_u64)highbits) << 32) | lowbits;
    1cb0:	fe842303          	lw	t1,-24(s0)
    1cb4:	00030813          	mv	a6,t1
    1cb8:	00000893          	li	a7,0
    1cbc:	00081793          	sll	a5,a6,0x0
    1cc0:	00000713          	li	a4,0
    1cc4:	fec42803          	lw	a6,-20(s0)
    1cc8:	00080613          	mv	a2,a6
    1ccc:	00000693          	li	a3,0
    1cd0:	00c76533          	or	a0,a4,a2
    1cd4:	00d7e5b3          	or	a1,a5,a3
    1cd8:	00050713          	mv	a4,a0
    1cdc:	00058793          	mv	a5,a1
}
    1ce0:	00070513          	mv	a0,a4
    1ce4:	00078593          	mv	a1,a5
    1ce8:	01c12403          	lw	s0,28(sp)
    1cec:	02010113          	add	sp,sp,32
    1cf0:	00008067          	ret

00001cf4 <alt_niosv_mtimecmp_set>:

void alt_niosv_mtimecmp_set(alt_u64 time) {
    1cf4:	fd010113          	add	sp,sp,-48
    1cf8:	02812623          	sw	s0,44(sp)
    1cfc:	03010413          	add	s0,sp,48
    1d00:	fca42c23          	sw	a0,-40(s0)
    1d04:	fcb42e23          	sw	a1,-36(s0)
    NIOSV_READ_CSR(NIOSV_MHARTID_CSR, mhartid_val);
    1d08:	f14026f3          	csrr	a3,mhartid
    1d0c:	fed42623          	sw	a3,-20(s0)
    return mhartid_val;
    1d10:	fec42603          	lw	a2,-20(s0)
    return (alt_u32 *)(NIOSV_MTIMECMP_ADDR + (8 * alt_niosv_read_mhartid()));
    1d14:	008126b7          	lui	a3,0x812
    1d18:	01168693          	add	a3,a3,17 # 812011 <__alt_heap_start+0x808fed>
    1d1c:	00d606b3          	add	a3,a2,a3
    1d20:	00369693          	sll	a3,a3,0x3
    volatile alt_u32 *const mtimecmp_addr = alt_niosv_get_mtimecmp_addr();
    1d24:	fed42423          	sw	a3,-24(s0)

    // Make sure to set the high word to a max value first to prevent triggering inadvertently
    ALT_VOLATILE_ACCESS((alt_u32 *)(mtimecmp_addr + 1)) = 0xFFFFFFFF;
    1d28:	fe842683          	lw	a3,-24(s0)
    1d2c:	00468693          	add	a3,a3,4
    1d30:	fff00613          	li	a2,-1
    1d34:	00c6a023          	sw	a2,0(a3)
    ALT_VOLATILE_ACCESS(mtimecmp_addr) = (alt_u32)time;
    1d38:	fd842603          	lw	a2,-40(s0)
    1d3c:	fe842683          	lw	a3,-24(s0)
    1d40:	00c6a023          	sw	a2,0(a3)
    ALT_VOLATILE_ACCESS((alt_u32 *)(mtimecmp_addr + 1)) = (alt_u32)(time >> 32);
    1d44:	fdc42683          	lw	a3,-36(s0)
    1d48:	0006d713          	srl	a4,a3,0x0
    1d4c:	00000793          	li	a5,0
    1d50:	fe842683          	lw	a3,-24(s0)
    1d54:	00468693          	add	a3,a3,4
    1d58:	00070793          	mv	a5,a4
    1d5c:	00f6a023          	sw	a5,0(a3)
}
    1d60:	00000013          	nop
    1d64:	02c12403          	lw	s0,44(sp)
    1d68:	03010113          	add	sp,sp,48
    1d6c:	00008067          	ret

00001d70 <alt_niosv_mtimecmp_get>:

alt_u64 alt_niosv_mtimecmp_get() {
    1d70:	fe010113          	add	sp,sp,-32
    1d74:	00812e23          	sw	s0,28(sp)
    1d78:	02010413          	add	s0,sp,32
    NIOSV_READ_CSR(NIOSV_MHARTID_CSR, mhartid_val);
    1d7c:	f1402373          	csrr	t1,mhartid
    1d80:	fe642623          	sw	t1,-20(s0)
    return mhartid_val;
    1d84:	fec42e03          	lw	t3,-20(s0)
    return (alt_u32 *)(NIOSV_MTIMECMP_ADDR + (8 * alt_niosv_read_mhartid()));
    1d88:	00812337          	lui	t1,0x812
    1d8c:	01130313          	add	t1,t1,17 # 812011 <__alt_heap_start+0x808fed>
    1d90:	006e0333          	add	t1,t3,t1
    1d94:	00331313          	sll	t1,t1,0x3
    volatile alt_u32 *const mtimecmp_addr = alt_niosv_get_mtimecmp_addr();
    1d98:	fe642023          	sw	t1,-32(s0)

    alt_u32 lowbits = ALT_VOLATILE_ACCESS(mtimecmp_addr);
    1d9c:	fe042303          	lw	t1,-32(s0)
    1da0:	00032303          	lw	t1,0(t1)
    1da4:	fe642223          	sw	t1,-28(s0)
    alt_u32 highbits = ALT_VOLATILE_ACCESS((alt_u32 *)(mtimecmp_addr + 1));
    1da8:	fe042303          	lw	t1,-32(s0)
    1dac:	00430313          	add	t1,t1,4
    1db0:	00032303          	lw	t1,0(t1)
    1db4:	fe642423          	sw	t1,-24(s0)
    return (((alt_u64)highbits) << 32) | lowbits;
    1db8:	fe842303          	lw	t1,-24(s0)
    1dbc:	00030813          	mv	a6,t1
    1dc0:	00000893          	li	a7,0
    1dc4:	00081793          	sll	a5,a6,0x0
    1dc8:	00000713          	li	a4,0
    1dcc:	fe442803          	lw	a6,-28(s0)
    1dd0:	00080613          	mv	a2,a6
    1dd4:	00000693          	li	a3,0
    1dd8:	00c76533          	or	a0,a4,a2
    1ddc:	00d7e5b3          	or	a1,a5,a3
    1de0:	00050713          	mv	a4,a0
    1de4:	00058793          	mv	a5,a1
}
    1de8:	00070513          	mv	a0,a4
    1dec:	00078593          	mv	a1,a5
    1df0:	01c12403          	lw	s0,28(sp)
    1df4:	02010113          	add	sp,sp,32
    1df8:	00008067          	ret

00001dfc <alt_niosv_timer_sc_isr>:
// Let's the OS port handles the machine timer configuration and interrupt if
// the OS port has it (ex: FreeRTOS).
void alt_niosv_timer_sc_isr(alt_u32 cause, alt_u32 epc, alt_u32 tval) {}
void alt_niosv_mtimecmp_interrupt_init() {}
#else
void alt_niosv_timer_sc_isr(alt_u32 cause, alt_u32 epc, alt_u32 tval) {
    1dfc:	fc010113          	add	sp,sp,-64
    1e00:	02112e23          	sw	ra,60(sp)
    1e04:	02812c23          	sw	s0,56(sp)
    1e08:	04010413          	add	s0,sp,64
    1e0c:	fca42623          	sw	a0,-52(s0)
    1e10:	fcb42423          	sw	a1,-56(s0)
    1e14:	fcc42223          	sw	a2,-60(s0)
    // Schedule the next interrupt.  This is done first since who knows how long
    // the following code takes, and the contract is ticks per second, irrespective
    // of how long a given clock tick may take.

    alt_u64 curr_time = alt_niosv_mtime_get();
    1e18:	e59ff0ef          	jal	1c70 <alt_niosv_mtime_get>
    1e1c:	fea42423          	sw	a0,-24(s0)
    1e20:	feb42623          	sw	a1,-20(s0)
    alt_niosv_mtimecmp_set(curr_time + MTIMECMP_DELTA_AMT);
    1e24:	fe842703          	lw	a4,-24(s0)
    1e28:	fec42783          	lw	a5,-20(s0)
    1e2c:	0000c537          	lui	a0,0xc
    1e30:	35050513          	add	a0,a0,848 # c350 <__alt_heap_start+0x332c>
    1e34:	00000593          	li	a1,0
    1e38:	00a70633          	add	a2,a4,a0
    1e3c:	00060813          	mv	a6,a2
    1e40:	00e83833          	sltu	a6,a6,a4
    1e44:	00b786b3          	add	a3,a5,a1
    1e48:	00d807b3          	add	a5,a6,a3
    1e4c:	00078693          	mv	a3,a5
    1e50:	00060713          	mv	a4,a2
    1e54:	00068793          	mv	a5,a3
    1e58:	00070513          	mv	a0,a4
    1e5c:	00078593          	mv	a1,a5
    1e60:	e95ff0ef          	jal	1cf4 <alt_niosv_mtimecmp_set>
    NIOSV_READ_AND_CLR_CSR(NIOSV_MSTATUS_CSR, context, NIOSV_MSTATUS_MIE_MASK);
    1e64:	00800793          	li	a5,8
    1e68:	3007b7f3          	csrrc	a5,mstatus,a5
    1e6c:	fef42223          	sw	a5,-28(s0)
    return context;
    1e70:	fe442783          	lw	a5,-28(s0)

    /* 
    * Notify the system of a clock tick. disable interrupts 
    * during this time to safely support ISR preemption
    */
    alt_irq_context cpu_sr = alt_irq_disable_all();
    1e74:	fcf42e23          	sw	a5,-36(s0)
    alt_tick();
    1e78:	bc1ff0ef          	jal	1a38 <alt_tick>
    1e7c:	fdc42783          	lw	a5,-36(s0)
    1e80:	fef42023          	sw	a5,-32(s0)
    NIOSV_SET_CSR(NIOSV_MSTATUS_CSR, context & NIOSV_MSTATUS_MIE_MASK);
    1e84:	fe042783          	lw	a5,-32(s0)
    1e88:	0087f793          	and	a5,a5,8
    1e8c:	3007a073          	csrs	mstatus,a5
}
    1e90:	00000013          	nop
    alt_irq_enable_all(cpu_sr);
}
    1e94:	00000013          	nop
    1e98:	03c12083          	lw	ra,60(sp)
    1e9c:	03812403          	lw	s0,56(sp)
    1ea0:	04010113          	add	sp,sp,64
    1ea4:	00008067          	ret

00001ea8 <alt_niosv_mtimecmp_interrupt_init>:

void alt_niosv_mtimecmp_interrupt_init() {
    1ea8:	fe010113          	add	sp,sp,-32
    1eac:	00112e23          	sw	ra,28(sp)
    1eb0:	00812c23          	sw	s0,24(sp)
    1eb4:	02010413          	add	s0,sp,32
    alt_u64 curr_time = alt_niosv_mtime_get();
    1eb8:	db9ff0ef          	jal	1c70 <alt_niosv_mtime_get>
    1ebc:	fea42423          	sw	a0,-24(s0)
    1ec0:	feb42623          	sw	a1,-20(s0)
    alt_niosv_mtimecmp_set(curr_time + MTIMECMP_DELTA_AMT);
    1ec4:	fe842703          	lw	a4,-24(s0)
    1ec8:	fec42783          	lw	a5,-20(s0)
    1ecc:	0000c537          	lui	a0,0xc
    1ed0:	35050513          	add	a0,a0,848 # c350 <__alt_heap_start+0x332c>
    1ed4:	00000593          	li	a1,0
    1ed8:	00a70633          	add	a2,a4,a0
    1edc:	00060813          	mv	a6,a2
    1ee0:	00e83833          	sltu	a6,a6,a4
    1ee4:	00b786b3          	add	a3,a5,a1
    1ee8:	00d807b3          	add	a5,a6,a3
    1eec:	00078693          	mv	a3,a5
    1ef0:	00060713          	mv	a4,a2
    1ef4:	00068793          	mv	a5,a3
    1ef8:	00070513          	mv	a0,a4
    1efc:	00078593          	mv	a1,a5
    1f00:	df5ff0ef          	jal	1cf4 <alt_niosv_mtimecmp_set>
    NIOSV_SET_CSR(NIOSV_MIE_CSR, (0x1 << NIOSV_TIMER_IRQ));
    1f04:	08000793          	li	a5,128
    1f08:	3047a073          	csrs	mie,a5
}
    1f0c:	00000013          	nop
    alt_niosv_enable_timer_interrupt();
}
    1f10:	00000013          	nop
    1f14:	01c12083          	lw	ra,28(sp)
    1f18:	01812403          	lw	s0,24(sp)
    1f1c:	02010113          	add	sp,sp,32
    1f20:	00008067          	ret

00001f24 <exit>:
    1f24:	ff010113          	add	sp,sp,-16
    1f28:	00000593          	li	a1,0
    1f2c:	00812423          	sw	s0,8(sp)
    1f30:	00112623          	sw	ra,12(sp)
    1f34:	00050413          	mv	s0,a0
    1f38:	33c010ef          	jal	3274 <__call_exitprocs>
    1f3c:	00007797          	auipc	a5,0x7
    1f40:	d407a783          	lw	a5,-704(a5) # 8c7c <__stdio_exit_handler>
    1f44:	00078463          	beqz	a5,1f4c <exit+0x28>
    1f48:	000780e7          	jalr	a5
    1f4c:	00040513          	mv	a0,s0
    1f50:	0a9020ef          	jal	47f8 <_exit>

00001f54 <open>:
    1f54:	fc010113          	add	sp,sp,-64
    1f58:	02c12423          	sw	a2,40(sp)
    1f5c:	02d12623          	sw	a3,44(sp)
    1f60:	02f12a23          	sw	a5,52(sp)
    1f64:	00060693          	mv	a3,a2
    1f68:	02810793          	add	a5,sp,40
    1f6c:	00058613          	mv	a2,a1
    1f70:	00050593          	mv	a1,a0
    1f74:	8201a503          	lw	a0,-2016(gp) # 74c4 <_impure_ptr>
    1f78:	00112e23          	sw	ra,28(sp)
    1f7c:	02e12823          	sw	a4,48(sp)
    1f80:	03012c23          	sw	a6,56(sp)
    1f84:	03112e23          	sw	a7,60(sp)
    1f88:	00f12623          	sw	a5,12(sp)
    1f8c:	071000ef          	jal	27fc <_open_r>
    1f90:	01c12083          	lw	ra,28(sp)
    1f94:	04010113          	add	sp,sp,64
    1f98:	00008067          	ret

00001f9c <_reclaim_reent>:
    1f9c:	8201a783          	lw	a5,-2016(gp) # 74c4 <_impure_ptr>
    1fa0:	0ca78e63          	beq	a5,a0,207c <_reclaim_reent+0xe0>
    1fa4:	04452583          	lw	a1,68(a0)
    1fa8:	fe010113          	add	sp,sp,-32
    1fac:	00912a23          	sw	s1,20(sp)
    1fb0:	00112e23          	sw	ra,28(sp)
    1fb4:	00812c23          	sw	s0,24(sp)
    1fb8:	00050493          	mv	s1,a0
    1fbc:	04058863          	beqz	a1,200c <_reclaim_reent+0x70>
    1fc0:	01212823          	sw	s2,16(sp)
    1fc4:	01312623          	sw	s3,12(sp)
    1fc8:	00000913          	li	s2,0
    1fcc:	08000993          	li	s3,128
    1fd0:	012587b3          	add	a5,a1,s2
    1fd4:	0007a403          	lw	s0,0(a5)
    1fd8:	00040e63          	beqz	s0,1ff4 <_reclaim_reent+0x58>
    1fdc:	00040593          	mv	a1,s0
    1fe0:	00042403          	lw	s0,0(s0)
    1fe4:	00048513          	mv	a0,s1
    1fe8:	525010ef          	jal	3d0c <_free_r>
    1fec:	fe0418e3          	bnez	s0,1fdc <_reclaim_reent+0x40>
    1ff0:	0444a583          	lw	a1,68(s1)
    1ff4:	00490913          	add	s2,s2,4
    1ff8:	fd391ce3          	bne	s2,s3,1fd0 <_reclaim_reent+0x34>
    1ffc:	00048513          	mv	a0,s1
    2000:	50d010ef          	jal	3d0c <_free_r>
    2004:	01012903          	lw	s2,16(sp)
    2008:	00c12983          	lw	s3,12(sp)
    200c:	0384a583          	lw	a1,56(s1)
    2010:	00058663          	beqz	a1,201c <_reclaim_reent+0x80>
    2014:	00048513          	mv	a0,s1
    2018:	4f5010ef          	jal	3d0c <_free_r>
    201c:	0404a403          	lw	s0,64(s1)
    2020:	00040c63          	beqz	s0,2038 <_reclaim_reent+0x9c>
    2024:	00040593          	mv	a1,s0
    2028:	00042403          	lw	s0,0(s0)
    202c:	00048513          	mv	a0,s1
    2030:	4dd010ef          	jal	3d0c <_free_r>
    2034:	fe0418e3          	bnez	s0,2024 <_reclaim_reent+0x88>
    2038:	04c4a583          	lw	a1,76(s1)
    203c:	00058663          	beqz	a1,2048 <_reclaim_reent+0xac>
    2040:	00048513          	mv	a0,s1
    2044:	4c9010ef          	jal	3d0c <_free_r>
    2048:	0344a783          	lw	a5,52(s1)
    204c:	00078e63          	beqz	a5,2068 <_reclaim_reent+0xcc>
    2050:	01812403          	lw	s0,24(sp)
    2054:	01c12083          	lw	ra,28(sp)
    2058:	00048513          	mv	a0,s1
    205c:	01412483          	lw	s1,20(sp)
    2060:	02010113          	add	sp,sp,32
    2064:	00078067          	jr	a5
    2068:	01c12083          	lw	ra,28(sp)
    206c:	01812403          	lw	s0,24(sp)
    2070:	01412483          	lw	s1,20(sp)
    2074:	02010113          	add	sp,sp,32
    2078:	00008067          	ret
    207c:	00008067          	ret

00002080 <stdio_exit_handler>:
    2080:	00005617          	auipc	a2,0x5
    2084:	01060613          	add	a2,a2,16 # 7090 <__sglue>
    2088:	00001597          	auipc	a1,0x1
    208c:	74858593          	add	a1,a1,1864 # 37d0 <_fclose_r>
    2090:	00005517          	auipc	a0,0x5
    2094:	ee050513          	add	a0,a0,-288 # 6f70 <_impure_data>
    2098:	7c80006f          	j	2860 <_fwalk_sglue>

0000209c <cleanup_stdio>:
    209c:	00452583          	lw	a1,4(a0)
    20a0:	ff010113          	add	sp,sp,-16
    20a4:	00812423          	sw	s0,8(sp)
    20a8:	00112623          	sw	ra,12(sp)
    20ac:	00007797          	auipc	a5,0x7
    20b0:	c8878793          	add	a5,a5,-888 # 8d34 <__sf>
    20b4:	00050413          	mv	s0,a0
    20b8:	00f58463          	beq	a1,a5,20c0 <cleanup_stdio+0x24>
    20bc:	714010ef          	jal	37d0 <_fclose_r>
    20c0:	00842583          	lw	a1,8(s0)
    20c4:	00007797          	auipc	a5,0x7
    20c8:	cd878793          	add	a5,a5,-808 # 8d9c <__sf+0x68>
    20cc:	00f58663          	beq	a1,a5,20d8 <cleanup_stdio+0x3c>
    20d0:	00040513          	mv	a0,s0
    20d4:	6fc010ef          	jal	37d0 <_fclose_r>
    20d8:	00c42583          	lw	a1,12(s0)
    20dc:	00007797          	auipc	a5,0x7
    20e0:	d2878793          	add	a5,a5,-728 # 8e04 <__sf+0xd0>
    20e4:	00f58c63          	beq	a1,a5,20fc <cleanup_stdio+0x60>
    20e8:	00040513          	mv	a0,s0
    20ec:	00812403          	lw	s0,8(sp)
    20f0:	00c12083          	lw	ra,12(sp)
    20f4:	01010113          	add	sp,sp,16
    20f8:	6d80106f          	j	37d0 <_fclose_r>
    20fc:	00c12083          	lw	ra,12(sp)
    2100:	00812403          	lw	s0,8(sp)
    2104:	01010113          	add	sp,sp,16
    2108:	00008067          	ret

0000210c <__fp_lock>:
    210c:	0645a783          	lw	a5,100(a1)
    2110:	0017f793          	and	a5,a5,1
    2114:	00079863          	bnez	a5,2124 <__fp_lock+0x18>
    2118:	00c5d783          	lhu	a5,12(a1)
    211c:	2007f793          	and	a5,a5,512
    2120:	00078663          	beqz	a5,212c <__fp_lock+0x20>
    2124:	00000513          	li	a0,0
    2128:	00008067          	ret
    212c:	0585a503          	lw	a0,88(a1)
    2130:	ff010113          	add	sp,sp,-16
    2134:	00112623          	sw	ra,12(sp)
    2138:	670010ef          	jal	37a8 <__retarget_lock_acquire_recursive>
    213c:	00c12083          	lw	ra,12(sp)
    2140:	00000513          	li	a0,0
    2144:	01010113          	add	sp,sp,16
    2148:	00008067          	ret

0000214c <__fp_unlock>:
    214c:	0645a783          	lw	a5,100(a1)
    2150:	0017f793          	and	a5,a5,1
    2154:	00079863          	bnez	a5,2164 <__fp_unlock+0x18>
    2158:	00c5d783          	lhu	a5,12(a1)
    215c:	2007f793          	and	a5,a5,512
    2160:	00078663          	beqz	a5,216c <__fp_unlock+0x20>
    2164:	00000513          	li	a0,0
    2168:	00008067          	ret
    216c:	0585a503          	lw	a0,88(a1)
    2170:	ff010113          	add	sp,sp,-16
    2174:	00112623          	sw	ra,12(sp)
    2178:	648010ef          	jal	37c0 <__retarget_lock_release_recursive>
    217c:	00c12083          	lw	ra,12(sp)
    2180:	00000513          	li	a0,0
    2184:	01010113          	add	sp,sp,16
    2188:	00008067          	ret

0000218c <global_stdio_init.part.0>:
    218c:	fe010113          	add	sp,sp,-32
    2190:	00000797          	auipc	a5,0x0
    2194:	ef078793          	add	a5,a5,-272 # 2080 <stdio_exit_handler>
    2198:	00112e23          	sw	ra,28(sp)
    219c:	00812c23          	sw	s0,24(sp)
    21a0:	00912a23          	sw	s1,20(sp)
    21a4:	00007417          	auipc	s0,0x7
    21a8:	b9040413          	add	s0,s0,-1136 # 8d34 <__sf>
    21ac:	01212823          	sw	s2,16(sp)
    21b0:	01312623          	sw	s3,12(sp)
    21b4:	01412423          	sw	s4,8(sp)
    21b8:	00800613          	li	a2,8
    21bc:	00000593          	li	a1,0
    21c0:	00007717          	auipc	a4,0x7
    21c4:	aaf72e23          	sw	a5,-1348(a4) # 8c7c <__stdio_exit_handler>
    21c8:	00007517          	auipc	a0,0x7
    21cc:	bc850513          	add	a0,a0,-1080 # 8d90 <__sf+0x5c>
    21d0:	00400793          	li	a5,4
    21d4:	00f42623          	sw	a5,12(s0)
    21d8:	00042023          	sw	zero,0(s0)
    21dc:	00042223          	sw	zero,4(s0)
    21e0:	00042423          	sw	zero,8(s0)
    21e4:	06042223          	sw	zero,100(s0)
    21e8:	00042823          	sw	zero,16(s0)
    21ec:	00042a23          	sw	zero,20(s0)
    21f0:	00042c23          	sw	zero,24(s0)
    21f4:	758010ef          	jal	394c <memset>
    21f8:	00000a17          	auipc	s4,0x0
    21fc:	71ca0a13          	add	s4,s4,1820 # 2914 <__sread>
    2200:	00000997          	auipc	s3,0x0
    2204:	77898993          	add	s3,s3,1912 # 2978 <__swrite>
    2208:	00000917          	auipc	s2,0x0
    220c:	7f890913          	add	s2,s2,2040 # 2a00 <__sseek>
    2210:	00001497          	auipc	s1,0x1
    2214:	86848493          	add	s1,s1,-1944 # 2a78 <__sclose>
    2218:	00007517          	auipc	a0,0x7
    221c:	b7450513          	add	a0,a0,-1164 # 8d8c <__sf+0x58>
    2220:	03442023          	sw	s4,32(s0)
    2224:	03342223          	sw	s3,36(s0)
    2228:	03242423          	sw	s2,40(s0)
    222c:	02942623          	sw	s1,44(s0)
    2230:	00842e23          	sw	s0,28(s0)
    2234:	564010ef          	jal	3798 <__retarget_lock_init_recursive>
    2238:	000107b7          	lui	a5,0x10
    223c:	00878793          	add	a5,a5,8 # 10008 <__alt_heap_start+0x6fe4>
    2240:	00800613          	li	a2,8
    2244:	00000593          	li	a1,0
    2248:	00007517          	auipc	a0,0x7
    224c:	bb050513          	add	a0,a0,-1104 # 8df8 <__sf+0xc4>
    2250:	06f42a23          	sw	a5,116(s0)
    2254:	06042423          	sw	zero,104(s0)
    2258:	06042623          	sw	zero,108(s0)
    225c:	06042823          	sw	zero,112(s0)
    2260:	0c042623          	sw	zero,204(s0)
    2264:	06042c23          	sw	zero,120(s0)
    2268:	06042e23          	sw	zero,124(s0)
    226c:	08042023          	sw	zero,128(s0)
    2270:	6dc010ef          	jal	394c <memset>
    2274:	00007797          	auipc	a5,0x7
    2278:	b2878793          	add	a5,a5,-1240 # 8d9c <__sf+0x68>
    227c:	00007517          	auipc	a0,0x7
    2280:	b7850513          	add	a0,a0,-1160 # 8df4 <__sf+0xc0>
    2284:	08f42223          	sw	a5,132(s0)
    2288:	09442423          	sw	s4,136(s0)
    228c:	09342623          	sw	s3,140(s0)
    2290:	09242823          	sw	s2,144(s0)
    2294:	08942a23          	sw	s1,148(s0)
    2298:	500010ef          	jal	3798 <__retarget_lock_init_recursive>
    229c:	000207b7          	lui	a5,0x20
    22a0:	01278793          	add	a5,a5,18 # 20012 <__alt_heap_start+0x16fee>
    22a4:	00800613          	li	a2,8
    22a8:	00000593          	li	a1,0
    22ac:	00007517          	auipc	a0,0x7
    22b0:	bb450513          	add	a0,a0,-1100 # 8e60 <__sf+0x12c>
    22b4:	0cf42e23          	sw	a5,220(s0)
    22b8:	0c042823          	sw	zero,208(s0)
    22bc:	0c042a23          	sw	zero,212(s0)
    22c0:	0c042c23          	sw	zero,216(s0)
    22c4:	12042a23          	sw	zero,308(s0)
    22c8:	0e042023          	sw	zero,224(s0)
    22cc:	0e042223          	sw	zero,228(s0)
    22d0:	0e042423          	sw	zero,232(s0)
    22d4:	678010ef          	jal	394c <memset>
    22d8:	00007797          	auipc	a5,0x7
    22dc:	b2c78793          	add	a5,a5,-1236 # 8e04 <__sf+0xd0>
    22e0:	0f442823          	sw	s4,240(s0)
    22e4:	0f342a23          	sw	s3,244(s0)
    22e8:	0f242c23          	sw	s2,248(s0)
    22ec:	0e942e23          	sw	s1,252(s0)
    22f0:	0ef42623          	sw	a5,236(s0)
    22f4:	01812403          	lw	s0,24(sp)
    22f8:	01c12083          	lw	ra,28(sp)
    22fc:	01412483          	lw	s1,20(sp)
    2300:	01012903          	lw	s2,16(sp)
    2304:	00c12983          	lw	s3,12(sp)
    2308:	00812a03          	lw	s4,8(sp)
    230c:	00007517          	auipc	a0,0x7
    2310:	b5050513          	add	a0,a0,-1200 # 8e5c <__sf+0x128>
    2314:	02010113          	add	sp,sp,32
    2318:	4800106f          	j	3798 <__retarget_lock_init_recursive>

0000231c <__sfp>:
    231c:	fe010113          	add	sp,sp,-32
    2320:	01312623          	sw	s3,12(sp)
    2324:	00050993          	mv	s3,a0
    2328:	00007517          	auipc	a0,0x7
    232c:	98450513          	add	a0,a0,-1660 # 8cac <__lock___sfp_recursive_mutex>
    2330:	00112e23          	sw	ra,28(sp)
    2334:	00812c23          	sw	s0,24(sp)
    2338:	00912a23          	sw	s1,20(sp)
    233c:	01212823          	sw	s2,16(sp)
    2340:	468010ef          	jal	37a8 <__retarget_lock_acquire_recursive>
    2344:	00007797          	auipc	a5,0x7
    2348:	9387a783          	lw	a5,-1736(a5) # 8c7c <__stdio_exit_handler>
    234c:	10078263          	beqz	a5,2450 <__sfp+0x134>
    2350:	00005917          	auipc	s2,0x5
    2354:	d4090913          	add	s2,s2,-704 # 7090 <__sglue>
    2358:	fff00493          	li	s1,-1
    235c:	00492783          	lw	a5,4(s2)
    2360:	00892403          	lw	s0,8(s2)
    2364:	fff78793          	add	a5,a5,-1
    2368:	0007d863          	bgez	a5,2378 <__sfp+0x5c>
    236c:	0940006f          	j	2400 <__sfp+0xe4>
    2370:	06840413          	add	s0,s0,104
    2374:	08978663          	beq	a5,s1,2400 <__sfp+0xe4>
    2378:	00c41703          	lh	a4,12(s0)
    237c:	fff78793          	add	a5,a5,-1
    2380:	fe0718e3          	bnez	a4,2370 <__sfp+0x54>
    2384:	ffff07b7          	lui	a5,0xffff0
    2388:	00178793          	add	a5,a5,1 # ffff0001 <__reset+0xfbff0001>
    238c:	00f42623          	sw	a5,12(s0)
    2390:	05840513          	add	a0,s0,88
    2394:	06042223          	sw	zero,100(s0)
    2398:	400010ef          	jal	3798 <__retarget_lock_init_recursive>
    239c:	00007517          	auipc	a0,0x7
    23a0:	91050513          	add	a0,a0,-1776 # 8cac <__lock___sfp_recursive_mutex>
    23a4:	41c010ef          	jal	37c0 <__retarget_lock_release_recursive>
    23a8:	00800613          	li	a2,8
    23ac:	00042023          	sw	zero,0(s0)
    23b0:	00042423          	sw	zero,8(s0)
    23b4:	00042223          	sw	zero,4(s0)
    23b8:	00042823          	sw	zero,16(s0)
    23bc:	00042a23          	sw	zero,20(s0)
    23c0:	00042c23          	sw	zero,24(s0)
    23c4:	00000593          	li	a1,0
    23c8:	05c40513          	add	a0,s0,92
    23cc:	580010ef          	jal	394c <memset>
    23d0:	02042823          	sw	zero,48(s0)
    23d4:	02042a23          	sw	zero,52(s0)
    23d8:	04042223          	sw	zero,68(s0)
    23dc:	04042423          	sw	zero,72(s0)
    23e0:	01c12083          	lw	ra,28(sp)
    23e4:	00040513          	mv	a0,s0
    23e8:	01812403          	lw	s0,24(sp)
    23ec:	01412483          	lw	s1,20(sp)
    23f0:	01012903          	lw	s2,16(sp)
    23f4:	00c12983          	lw	s3,12(sp)
    23f8:	02010113          	add	sp,sp,32
    23fc:	00008067          	ret
    2400:	00092403          	lw	s0,0(s2)
    2404:	00040663          	beqz	s0,2410 <__sfp+0xf4>
    2408:	00040913          	mv	s2,s0
    240c:	f51ff06f          	j	235c <__sfp+0x40>
    2410:	1ac00593          	li	a1,428
    2414:	00098513          	mv	a0,s3
    2418:	680000ef          	jal	2a98 <_malloc_r>
    241c:	00050413          	mv	s0,a0
    2420:	02050c63          	beqz	a0,2458 <__sfp+0x13c>
    2424:	00c50513          	add	a0,a0,12
    2428:	00400793          	li	a5,4
    242c:	00042023          	sw	zero,0(s0)
    2430:	00f42223          	sw	a5,4(s0)
    2434:	00a42423          	sw	a0,8(s0)
    2438:	1a000613          	li	a2,416
    243c:	00000593          	li	a1,0
    2440:	50c010ef          	jal	394c <memset>
    2444:	00892023          	sw	s0,0(s2)
    2448:	00040913          	mv	s2,s0
    244c:	f11ff06f          	j	235c <__sfp+0x40>
    2450:	d3dff0ef          	jal	218c <global_stdio_init.part.0>
    2454:	efdff06f          	j	2350 <__sfp+0x34>
    2458:	00092023          	sw	zero,0(s2)
    245c:	00007517          	auipc	a0,0x7
    2460:	85050513          	add	a0,a0,-1968 # 8cac <__lock___sfp_recursive_mutex>
    2464:	35c010ef          	jal	37c0 <__retarget_lock_release_recursive>
    2468:	00c00793          	li	a5,12
    246c:	00f9a023          	sw	a5,0(s3)
    2470:	f71ff06f          	j	23e0 <__sfp+0xc4>

00002474 <__sinit>:
    2474:	ff010113          	add	sp,sp,-16
    2478:	00812423          	sw	s0,8(sp)
    247c:	00050413          	mv	s0,a0
    2480:	00007517          	auipc	a0,0x7
    2484:	82c50513          	add	a0,a0,-2004 # 8cac <__lock___sfp_recursive_mutex>
    2488:	00112623          	sw	ra,12(sp)
    248c:	31c010ef          	jal	37a8 <__retarget_lock_acquire_recursive>
    2490:	03442783          	lw	a5,52(s0)
    2494:	00079e63          	bnez	a5,24b0 <__sinit+0x3c>
    2498:	00000797          	auipc	a5,0x0
    249c:	c0478793          	add	a5,a5,-1020 # 209c <cleanup_stdio>
    24a0:	02f42a23          	sw	a5,52(s0)
    24a4:	00006797          	auipc	a5,0x6
    24a8:	7d87a783          	lw	a5,2008(a5) # 8c7c <__stdio_exit_handler>
    24ac:	00078e63          	beqz	a5,24c8 <__sinit+0x54>
    24b0:	00812403          	lw	s0,8(sp)
    24b4:	00c12083          	lw	ra,12(sp)
    24b8:	00006517          	auipc	a0,0x6
    24bc:	7f450513          	add	a0,a0,2036 # 8cac <__lock___sfp_recursive_mutex>
    24c0:	01010113          	add	sp,sp,16
    24c4:	2fc0106f          	j	37c0 <__retarget_lock_release_recursive>
    24c8:	cc5ff0ef          	jal	218c <global_stdio_init.part.0>
    24cc:	00812403          	lw	s0,8(sp)
    24d0:	00c12083          	lw	ra,12(sp)
    24d4:	00006517          	auipc	a0,0x6
    24d8:	7d850513          	add	a0,a0,2008 # 8cac <__lock___sfp_recursive_mutex>
    24dc:	01010113          	add	sp,sp,16
    24e0:	2e00106f          	j	37c0 <__retarget_lock_release_recursive>

000024e4 <__sfp_lock_acquire>:
    24e4:	00006517          	auipc	a0,0x6
    24e8:	7c850513          	add	a0,a0,1992 # 8cac <__lock___sfp_recursive_mutex>
    24ec:	2bc0106f          	j	37a8 <__retarget_lock_acquire_recursive>

000024f0 <__sfp_lock_release>:
    24f0:	00006517          	auipc	a0,0x6
    24f4:	7bc50513          	add	a0,a0,1980 # 8cac <__lock___sfp_recursive_mutex>
    24f8:	2c80106f          	j	37c0 <__retarget_lock_release_recursive>

000024fc <__fp_lock_all>:
    24fc:	ff010113          	add	sp,sp,-16
    2500:	00006517          	auipc	a0,0x6
    2504:	7ac50513          	add	a0,a0,1964 # 8cac <__lock___sfp_recursive_mutex>
    2508:	00112623          	sw	ra,12(sp)
    250c:	29c010ef          	jal	37a8 <__retarget_lock_acquire_recursive>
    2510:	00c12083          	lw	ra,12(sp)
    2514:	00005617          	auipc	a2,0x5
    2518:	b7c60613          	add	a2,a2,-1156 # 7090 <__sglue>
    251c:	00000597          	auipc	a1,0x0
    2520:	bf058593          	add	a1,a1,-1040 # 210c <__fp_lock>
    2524:	00000513          	li	a0,0
    2528:	01010113          	add	sp,sp,16
    252c:	3340006f          	j	2860 <_fwalk_sglue>

00002530 <__fp_unlock_all>:
    2530:	ff010113          	add	sp,sp,-16
    2534:	00005617          	auipc	a2,0x5
    2538:	b5c60613          	add	a2,a2,-1188 # 7090 <__sglue>
    253c:	00000597          	auipc	a1,0x0
    2540:	c1058593          	add	a1,a1,-1008 # 214c <__fp_unlock>
    2544:	00000513          	li	a0,0
    2548:	00112623          	sw	ra,12(sp)
    254c:	314000ef          	jal	2860 <_fwalk_sglue>
    2550:	00c12083          	lw	ra,12(sp)
    2554:	00006517          	auipc	a0,0x6
    2558:	75850513          	add	a0,a0,1880 # 8cac <__lock___sfp_recursive_mutex>
    255c:	01010113          	add	sp,sp,16
    2560:	2600106f          	j	37c0 <__retarget_lock_release_recursive>

00002564 <setvbuf>:
    2564:	fd010113          	add	sp,sp,-48
    2568:	02812423          	sw	s0,40(sp)
    256c:	02912223          	sw	s1,36(sp)
    2570:	03212023          	sw	s2,32(sp)
    2574:	01312e23          	sw	s3,28(sp)
    2578:	01412c23          	sw	s4,24(sp)
    257c:	02112623          	sw	ra,44(sp)
    2580:	8201aa03          	lw	s4,-2016(gp) # 74c4 <_impure_ptr>
    2584:	00050413          	mv	s0,a0
    2588:	00058913          	mv	s2,a1
    258c:	00060993          	mv	s3,a2
    2590:	00068493          	mv	s1,a3
    2594:	000a0663          	beqz	s4,25a0 <setvbuf+0x3c>
    2598:	034a2783          	lw	a5,52(s4)
    259c:	20078a63          	beqz	a5,27b0 <setvbuf+0x24c>
    25a0:	00200793          	li	a5,2
    25a4:	00f98863          	beq	s3,a5,25b4 <setvbuf+0x50>
    25a8:	00100793          	li	a5,1
    25ac:	2137e863          	bltu	a5,s3,27bc <setvbuf+0x258>
    25b0:	2004c663          	bltz	s1,27bc <setvbuf+0x258>
    25b4:	06442783          	lw	a5,100(s0)
    25b8:	0017f793          	and	a5,a5,1
    25bc:	10078863          	beqz	a5,26cc <setvbuf+0x168>
    25c0:	00040593          	mv	a1,s0
    25c4:	000a0513          	mv	a0,s4
    25c8:	499010ef          	jal	4260 <_fflush_r>
    25cc:	03042583          	lw	a1,48(s0)
    25d0:	00058c63          	beqz	a1,25e8 <setvbuf+0x84>
    25d4:	04040793          	add	a5,s0,64
    25d8:	00f58663          	beq	a1,a5,25e4 <setvbuf+0x80>
    25dc:	000a0513          	mv	a0,s4
    25e0:	72c010ef          	jal	3d0c <_free_r>
    25e4:	02042823          	sw	zero,48(s0)
    25e8:	00c41783          	lh	a5,12(s0)
    25ec:	00042c23          	sw	zero,24(s0)
    25f0:	00042223          	sw	zero,4(s0)
    25f4:	0807f713          	and	a4,a5,128
    25f8:	14071263          	bnez	a4,273c <setvbuf+0x1d8>
    25fc:	fffff737          	lui	a4,0xfffff
    2600:	35c70713          	add	a4,a4,860 # fffff35c <__reset+0xfbfff35c>
    2604:	00e7f7b3          	and	a5,a5,a4
    2608:	00f41623          	sh	a5,12(s0)
    260c:	00200713          	li	a4,2
    2610:	14e98a63          	beq	s3,a4,2764 <setvbuf+0x200>
    2614:	00c10693          	add	a3,sp,12
    2618:	00810613          	add	a2,sp,8
    261c:	00040593          	mv	a1,s0
    2620:	000a0513          	mv	a0,s4
    2624:	010010ef          	jal	3634 <__swhatbuf_r>
    2628:	00c45783          	lhu	a5,12(s0)
    262c:	00a7e7b3          	or	a5,a5,a0
    2630:	00f41623          	sh	a5,12(s0)
    2634:	0a048863          	beqz	s1,26e4 <setvbuf+0x180>
    2638:	0a090863          	beqz	s2,26e8 <setvbuf+0x184>
    263c:	034a2783          	lw	a5,52(s4)
    2640:	0c078663          	beqz	a5,270c <setvbuf+0x1a8>
    2644:	00812703          	lw	a4,8(sp)
    2648:	00c41783          	lh	a5,12(s0)
    264c:	00970a63          	beq	a4,s1,2660 <setvbuf+0xfc>
    2650:	00001737          	lui	a4,0x1
    2654:	80070713          	add	a4,a4,-2048 # 800 <altera_avalon_jtag_uart_init+0x40>
    2658:	00e7e7b3          	or	a5,a5,a4
    265c:	00f41623          	sh	a5,12(s0)
    2660:	00100713          	li	a4,1
    2664:	00e99663          	bne	s3,a4,2670 <setvbuf+0x10c>
    2668:	0017e793          	or	a5,a5,1
    266c:	00f41623          	sh	a5,12(s0)
    2670:	01242023          	sw	s2,0(s0)
    2674:	01242823          	sw	s2,16(s0)
    2678:	00942a23          	sw	s1,20(s0)
    267c:	0087f713          	and	a4,a5,8
    2680:	08070c63          	beqz	a4,2718 <setvbuf+0x1b4>
    2684:	0017f713          	and	a4,a5,1
    2688:	12070063          	beqz	a4,27a8 <setvbuf+0x244>
    268c:	06442703          	lw	a4,100(s0)
    2690:	409004b3          	neg	s1,s1
    2694:	00042423          	sw	zero,8(s0)
    2698:	00942c23          	sw	s1,24(s0)
    269c:	00177713          	and	a4,a4,1
    26a0:	08070463          	beqz	a4,2728 <setvbuf+0x1c4>
    26a4:	00000493          	li	s1,0
    26a8:	02c12083          	lw	ra,44(sp)
    26ac:	02812403          	lw	s0,40(sp)
    26b0:	02012903          	lw	s2,32(sp)
    26b4:	01c12983          	lw	s3,28(sp)
    26b8:	01812a03          	lw	s4,24(sp)
    26bc:	00048513          	mv	a0,s1
    26c0:	02412483          	lw	s1,36(sp)
    26c4:	03010113          	add	sp,sp,48
    26c8:	00008067          	ret
    26cc:	00c45783          	lhu	a5,12(s0)
    26d0:	2007f793          	and	a5,a5,512
    26d4:	ee0796e3          	bnez	a5,25c0 <setvbuf+0x5c>
    26d8:	05842503          	lw	a0,88(s0)
    26dc:	0cc010ef          	jal	37a8 <__retarget_lock_acquire_recursive>
    26e0:	ee1ff06f          	j	25c0 <setvbuf+0x5c>
    26e4:	00812483          	lw	s1,8(sp)
    26e8:	00048513          	mv	a0,s1
    26ec:	394000ef          	jal	2a80 <malloc>
    26f0:	00050913          	mv	s2,a0
    26f4:	0c050863          	beqz	a0,27c4 <setvbuf+0x260>
    26f8:	00c45783          	lhu	a5,12(s0)
    26fc:	0807e793          	or	a5,a5,128
    2700:	00f41623          	sh	a5,12(s0)
    2704:	034a2783          	lw	a5,52(s4)
    2708:	f2079ee3          	bnez	a5,2644 <setvbuf+0xe0>
    270c:	000a0513          	mv	a0,s4
    2710:	d65ff0ef          	jal	2474 <__sinit>
    2714:	f31ff06f          	j	2644 <setvbuf+0xe0>
    2718:	00042423          	sw	zero,8(s0)
    271c:	06442703          	lw	a4,100(s0)
    2720:	00177713          	and	a4,a4,1
    2724:	f80710e3          	bnez	a4,26a4 <setvbuf+0x140>
    2728:	2007f793          	and	a5,a5,512
    272c:	f6079ce3          	bnez	a5,26a4 <setvbuf+0x140>
    2730:	05842503          	lw	a0,88(s0)
    2734:	08c010ef          	jal	37c0 <__retarget_lock_release_recursive>
    2738:	f6dff06f          	j	26a4 <setvbuf+0x140>
    273c:	01042583          	lw	a1,16(s0)
    2740:	000a0513          	mv	a0,s4
    2744:	5c8010ef          	jal	3d0c <_free_r>
    2748:	00c41783          	lh	a5,12(s0)
    274c:	fffff737          	lui	a4,0xfffff
    2750:	35c70713          	add	a4,a4,860 # fffff35c <__reset+0xfbfff35c>
    2754:	00e7f7b3          	and	a5,a5,a4
    2758:	00f41623          	sh	a5,12(s0)
    275c:	00200713          	li	a4,2
    2760:	eae99ae3          	bne	s3,a4,2614 <setvbuf+0xb0>
    2764:	00000493          	li	s1,0
    2768:	06442703          	lw	a4,100(s0)
    276c:	04340693          	add	a3,s0,67
    2770:	0027e613          	or	a2,a5,2
    2774:	00d42023          	sw	a3,0(s0)
    2778:	00d42823          	sw	a3,16(s0)
    277c:	00100693          	li	a3,1
    2780:	00c41623          	sh	a2,12(s0)
    2784:	00042423          	sw	zero,8(s0)
    2788:	00d42a23          	sw	a3,20(s0)
    278c:	00177713          	and	a4,a4,1
    2790:	f0071ce3          	bnez	a4,26a8 <setvbuf+0x144>
    2794:	2007f793          	and	a5,a5,512
    2798:	f00798e3          	bnez	a5,26a8 <setvbuf+0x144>
    279c:	05842503          	lw	a0,88(s0)
    27a0:	020010ef          	jal	37c0 <__retarget_lock_release_recursive>
    27a4:	f05ff06f          	j	26a8 <setvbuf+0x144>
    27a8:	00942423          	sw	s1,8(s0)
    27ac:	f71ff06f          	j	271c <setvbuf+0x1b8>
    27b0:	000a0513          	mv	a0,s4
    27b4:	cc1ff0ef          	jal	2474 <__sinit>
    27b8:	de9ff06f          	j	25a0 <setvbuf+0x3c>
    27bc:	fff00493          	li	s1,-1
    27c0:	ee9ff06f          	j	26a8 <setvbuf+0x144>
    27c4:	01512a23          	sw	s5,20(sp)
    27c8:	00812a83          	lw	s5,8(sp)
    27cc:	029a8063          	beq	s5,s1,27ec <setvbuf+0x288>
    27d0:	000a8513          	mv	a0,s5
    27d4:	2ac000ef          	jal	2a80 <malloc>
    27d8:	00050913          	mv	s2,a0
    27dc:	000a8493          	mv	s1,s5
    27e0:	00050663          	beqz	a0,27ec <setvbuf+0x288>
    27e4:	01412a83          	lw	s5,20(sp)
    27e8:	f11ff06f          	j	26f8 <setvbuf+0x194>
    27ec:	00c41783          	lh	a5,12(s0)
    27f0:	01412a83          	lw	s5,20(sp)
    27f4:	fff00493          	li	s1,-1
    27f8:	f71ff06f          	j	2768 <setvbuf+0x204>

000027fc <_open_r>:
    27fc:	ff010113          	add	sp,sp,-16
    2800:	00058713          	mv	a4,a1
    2804:	00812423          	sw	s0,8(sp)
    2808:	00060593          	mv	a1,a2
    280c:	00050413          	mv	s0,a0
    2810:	00068613          	mv	a2,a3
    2814:	00070513          	mv	a0,a4
    2818:	00006797          	auipc	a5,0x6
    281c:	4607a023          	sw	zero,1120(a5) # 8c78 <errno>
    2820:	00112623          	sw	ra,12(sp)
    2824:	4a8020ef          	jal	4ccc <_open>
    2828:	fff00793          	li	a5,-1
    282c:	00f50a63          	beq	a0,a5,2840 <_open_r+0x44>
    2830:	00c12083          	lw	ra,12(sp)
    2834:	00812403          	lw	s0,8(sp)
    2838:	01010113          	add	sp,sp,16
    283c:	00008067          	ret
    2840:	00006797          	auipc	a5,0x6
    2844:	4387a783          	lw	a5,1080(a5) # 8c78 <errno>
    2848:	fe0784e3          	beqz	a5,2830 <_open_r+0x34>
    284c:	00c12083          	lw	ra,12(sp)
    2850:	00f42023          	sw	a5,0(s0)
    2854:	00812403          	lw	s0,8(sp)
    2858:	01010113          	add	sp,sp,16
    285c:	00008067          	ret

00002860 <_fwalk_sglue>:
    2860:	fd010113          	add	sp,sp,-48
    2864:	03212023          	sw	s2,32(sp)
    2868:	01312e23          	sw	s3,28(sp)
    286c:	01412c23          	sw	s4,24(sp)
    2870:	01512a23          	sw	s5,20(sp)
    2874:	01612823          	sw	s6,16(sp)
    2878:	01712623          	sw	s7,12(sp)
    287c:	02112623          	sw	ra,44(sp)
    2880:	02812423          	sw	s0,40(sp)
    2884:	02912223          	sw	s1,36(sp)
    2888:	00050b13          	mv	s6,a0
    288c:	00058b93          	mv	s7,a1
    2890:	00060a93          	mv	s5,a2
    2894:	00000a13          	li	s4,0
    2898:	00100993          	li	s3,1
    289c:	fff00913          	li	s2,-1
    28a0:	004aa483          	lw	s1,4(s5)
    28a4:	008aa403          	lw	s0,8(s5)
    28a8:	fff48493          	add	s1,s1,-1
    28ac:	0204c863          	bltz	s1,28dc <_fwalk_sglue+0x7c>
    28b0:	00c45783          	lhu	a5,12(s0)
    28b4:	00f9fe63          	bgeu	s3,a5,28d0 <_fwalk_sglue+0x70>
    28b8:	00e41783          	lh	a5,14(s0)
    28bc:	00040593          	mv	a1,s0
    28c0:	000b0513          	mv	a0,s6
    28c4:	01278663          	beq	a5,s2,28d0 <_fwalk_sglue+0x70>
    28c8:	000b80e7          	jalr	s7
    28cc:	00aa6a33          	or	s4,s4,a0
    28d0:	fff48493          	add	s1,s1,-1
    28d4:	06840413          	add	s0,s0,104
    28d8:	fd249ce3          	bne	s1,s2,28b0 <_fwalk_sglue+0x50>
    28dc:	000aaa83          	lw	s5,0(s5)
    28e0:	fc0a90e3          	bnez	s5,28a0 <_fwalk_sglue+0x40>
    28e4:	02c12083          	lw	ra,44(sp)
    28e8:	02812403          	lw	s0,40(sp)
    28ec:	02412483          	lw	s1,36(sp)
    28f0:	02012903          	lw	s2,32(sp)
    28f4:	01c12983          	lw	s3,28(sp)
    28f8:	01412a83          	lw	s5,20(sp)
    28fc:	01012b03          	lw	s6,16(sp)
    2900:	00c12b83          	lw	s7,12(sp)
    2904:	000a0513          	mv	a0,s4
    2908:	01812a03          	lw	s4,24(sp)
    290c:	03010113          	add	sp,sp,48
    2910:	00008067          	ret

00002914 <__sread>:
    2914:	ff010113          	add	sp,sp,-16
    2918:	00812423          	sw	s0,8(sp)
    291c:	00058413          	mv	s0,a1
    2920:	00e59583          	lh	a1,14(a1)
    2924:	00112623          	sw	ra,12(sp)
    2928:	45d010ef          	jal	4584 <_read_r>
    292c:	02054063          	bltz	a0,294c <__sread+0x38>
    2930:	05042783          	lw	a5,80(s0)
    2934:	00c12083          	lw	ra,12(sp)
    2938:	00a787b3          	add	a5,a5,a0
    293c:	04f42823          	sw	a5,80(s0)
    2940:	00812403          	lw	s0,8(sp)
    2944:	01010113          	add	sp,sp,16
    2948:	00008067          	ret
    294c:	00c45783          	lhu	a5,12(s0)
    2950:	fffff737          	lui	a4,0xfffff
    2954:	fff70713          	add	a4,a4,-1 # ffffefff <__reset+0xfbffefff>
    2958:	00e7f7b3          	and	a5,a5,a4
    295c:	00c12083          	lw	ra,12(sp)
    2960:	00f41623          	sh	a5,12(s0)
    2964:	00812403          	lw	s0,8(sp)
    2968:	01010113          	add	sp,sp,16
    296c:	00008067          	ret

00002970 <__seofread>:
    2970:	00000513          	li	a0,0
    2974:	00008067          	ret

00002978 <__swrite>:
    2978:	00c59783          	lh	a5,12(a1)
    297c:	fe010113          	add	sp,sp,-32
    2980:	00812c23          	sw	s0,24(sp)
    2984:	00912a23          	sw	s1,20(sp)
    2988:	01212823          	sw	s2,16(sp)
    298c:	01312623          	sw	s3,12(sp)
    2990:	00112e23          	sw	ra,28(sp)
    2994:	1007f713          	and	a4,a5,256
    2998:	00058413          	mv	s0,a1
    299c:	00050493          	mv	s1,a0
    29a0:	00060913          	mv	s2,a2
    29a4:	00068993          	mv	s3,a3
    29a8:	04071063          	bnez	a4,29e8 <__swrite+0x70>
    29ac:	fffff737          	lui	a4,0xfffff
    29b0:	fff70713          	add	a4,a4,-1 # ffffefff <__reset+0xfbffefff>
    29b4:	00e7f7b3          	and	a5,a5,a4
    29b8:	00e41583          	lh	a1,14(s0)
    29bc:	00f41623          	sh	a5,12(s0)
    29c0:	01812403          	lw	s0,24(sp)
    29c4:	01c12083          	lw	ra,28(sp)
    29c8:	00098693          	mv	a3,s3
    29cc:	00090613          	mv	a2,s2
    29d0:	00c12983          	lw	s3,12(sp)
    29d4:	01012903          	lw	s2,16(sp)
    29d8:	00048513          	mv	a0,s1
    29dc:	01412483          	lw	s1,20(sp)
    29e0:	02010113          	add	sp,sp,32
    29e4:	2550006f          	j	3438 <_write_r>
    29e8:	00e59583          	lh	a1,14(a1)
    29ec:	00200693          	li	a3,2
    29f0:	00000613          	li	a2,0
    29f4:	32d010ef          	jal	4520 <_lseek_r>
    29f8:	00c41783          	lh	a5,12(s0)
    29fc:	fb1ff06f          	j	29ac <__swrite+0x34>

00002a00 <__sseek>:
    2a00:	ff010113          	add	sp,sp,-16
    2a04:	00812423          	sw	s0,8(sp)
    2a08:	00058413          	mv	s0,a1
    2a0c:	00e59583          	lh	a1,14(a1)
    2a10:	00112623          	sw	ra,12(sp)
    2a14:	30d010ef          	jal	4520 <_lseek_r>
    2a18:	fff00793          	li	a5,-1
    2a1c:	02f50863          	beq	a0,a5,2a4c <__sseek+0x4c>
    2a20:	00c45783          	lhu	a5,12(s0)
    2a24:	00001737          	lui	a4,0x1
    2a28:	00c12083          	lw	ra,12(sp)
    2a2c:	00e7e7b3          	or	a5,a5,a4
    2a30:	01079793          	sll	a5,a5,0x10
    2a34:	4107d793          	sra	a5,a5,0x10
    2a38:	04a42823          	sw	a0,80(s0)
    2a3c:	00f41623          	sh	a5,12(s0)
    2a40:	00812403          	lw	s0,8(sp)
    2a44:	01010113          	add	sp,sp,16
    2a48:	00008067          	ret
    2a4c:	00c45783          	lhu	a5,12(s0)
    2a50:	fffff737          	lui	a4,0xfffff
    2a54:	fff70713          	add	a4,a4,-1 # ffffefff <__reset+0xfbffefff>
    2a58:	00e7f7b3          	and	a5,a5,a4
    2a5c:	01079793          	sll	a5,a5,0x10
    2a60:	4107d793          	sra	a5,a5,0x10
    2a64:	00c12083          	lw	ra,12(sp)
    2a68:	00f41623          	sh	a5,12(s0)
    2a6c:	00812403          	lw	s0,8(sp)
    2a70:	01010113          	add	sp,sp,16
    2a74:	00008067          	ret

00002a78 <__sclose>:
    2a78:	00e59583          	lh	a1,14(a1)
    2a7c:	1950106f          	j	4410 <_close_r>

00002a80 <malloc>:
    2a80:	00050593          	mv	a1,a0
    2a84:	8201a503          	lw	a0,-2016(gp) # 74c4 <_impure_ptr>
    2a88:	0100006f          	j	2a98 <_malloc_r>

00002a8c <free>:
    2a8c:	00050593          	mv	a1,a0
    2a90:	8201a503          	lw	a0,-2016(gp) # 74c4 <_impure_ptr>
    2a94:	2780106f          	j	3d0c <_free_r>

00002a98 <_malloc_r>:
    2a98:	fd010113          	add	sp,sp,-48
    2a9c:	03212023          	sw	s2,32(sp)
    2aa0:	02112623          	sw	ra,44(sp)
    2aa4:	02812423          	sw	s0,40(sp)
    2aa8:	02912223          	sw	s1,36(sp)
    2aac:	01312e23          	sw	s3,28(sp)
    2ab0:	00b58793          	add	a5,a1,11
    2ab4:	01600713          	li	a4,22
    2ab8:	00050913          	mv	s2,a0
    2abc:	08f76263          	bltu	a4,a5,2b40 <_malloc_r+0xa8>
    2ac0:	01000793          	li	a5,16
    2ac4:	20b7e663          	bltu	a5,a1,2cd0 <_malloc_r+0x238>
    2ac8:	445000ef          	jal	370c <__malloc_lock>
    2acc:	01800793          	li	a5,24
    2ad0:	00200593          	li	a1,2
    2ad4:	01000493          	li	s1,16
    2ad8:	00004997          	auipc	s3,0x4
    2adc:	5c498993          	add	s3,s3,1476 # 709c <__malloc_av_>
    2ae0:	00f987b3          	add	a5,s3,a5
    2ae4:	0047a403          	lw	s0,4(a5)
    2ae8:	ff878713          	add	a4,a5,-8
    2aec:	36e40263          	beq	s0,a4,2e50 <_malloc_r+0x3b8>
    2af0:	00442783          	lw	a5,4(s0)
    2af4:	00c42683          	lw	a3,12(s0)
    2af8:	00842603          	lw	a2,8(s0)
    2afc:	ffc7f793          	and	a5,a5,-4
    2b00:	00f407b3          	add	a5,s0,a5
    2b04:	0047a703          	lw	a4,4(a5)
    2b08:	00d62623          	sw	a3,12(a2)
    2b0c:	00c6a423          	sw	a2,8(a3)
    2b10:	00176713          	or	a4,a4,1
    2b14:	00090513          	mv	a0,s2
    2b18:	00e7a223          	sw	a4,4(a5)
    2b1c:	3fd000ef          	jal	3718 <__malloc_unlock>
    2b20:	00840513          	add	a0,s0,8
    2b24:	02c12083          	lw	ra,44(sp)
    2b28:	02812403          	lw	s0,40(sp)
    2b2c:	02412483          	lw	s1,36(sp)
    2b30:	02012903          	lw	s2,32(sp)
    2b34:	01c12983          	lw	s3,28(sp)
    2b38:	03010113          	add	sp,sp,48
    2b3c:	00008067          	ret
    2b40:	ff87f493          	and	s1,a5,-8
    2b44:	1807c663          	bltz	a5,2cd0 <_malloc_r+0x238>
    2b48:	18b4e463          	bltu	s1,a1,2cd0 <_malloc_r+0x238>
    2b4c:	3c1000ef          	jal	370c <__malloc_lock>
    2b50:	1f700793          	li	a5,503
    2b54:	4097f863          	bgeu	a5,s1,2f64 <_malloc_r+0x4cc>
    2b58:	0094d793          	srl	a5,s1,0x9
    2b5c:	18078263          	beqz	a5,2ce0 <_malloc_r+0x248>
    2b60:	00400713          	li	a4,4
    2b64:	34f76e63          	bltu	a4,a5,2ec0 <_malloc_r+0x428>
    2b68:	0064d793          	srl	a5,s1,0x6
    2b6c:	03978593          	add	a1,a5,57
    2b70:	03878813          	add	a6,a5,56
    2b74:	00359613          	sll	a2,a1,0x3
    2b78:	00004997          	auipc	s3,0x4
    2b7c:	52498993          	add	s3,s3,1316 # 709c <__malloc_av_>
    2b80:	00c98633          	add	a2,s3,a2
    2b84:	00462403          	lw	s0,4(a2)
    2b88:	ff860613          	add	a2,a2,-8
    2b8c:	02860863          	beq	a2,s0,2bbc <_malloc_r+0x124>
    2b90:	00f00513          	li	a0,15
    2b94:	0140006f          	j	2ba8 <_malloc_r+0x110>
    2b98:	00c42683          	lw	a3,12(s0)
    2b9c:	2a075663          	bgez	a4,2e48 <_malloc_r+0x3b0>
    2ba0:	00d60e63          	beq	a2,a3,2bbc <_malloc_r+0x124>
    2ba4:	00068413          	mv	s0,a3
    2ba8:	00442783          	lw	a5,4(s0)
    2bac:	ffc7f793          	and	a5,a5,-4
    2bb0:	40978733          	sub	a4,a5,s1
    2bb4:	fee552e3          	bge	a0,a4,2b98 <_malloc_r+0x100>
    2bb8:	00080593          	mv	a1,a6
    2bbc:	0109a403          	lw	s0,16(s3)
    2bc0:	00004897          	auipc	a7,0x4
    2bc4:	4e488893          	add	a7,a7,1252 # 70a4 <__malloc_av_+0x8>
    2bc8:	27140c63          	beq	s0,a7,2e40 <_malloc_r+0x3a8>
    2bcc:	00442783          	lw	a5,4(s0)
    2bd0:	00f00693          	li	a3,15
    2bd4:	ffc7f793          	and	a5,a5,-4
    2bd8:	40978733          	sub	a4,a5,s1
    2bdc:	38e6ca63          	blt	a3,a4,2f70 <_malloc_r+0x4d8>
    2be0:	0119aa23          	sw	a7,20(s3)
    2be4:	0119a823          	sw	a7,16(s3)
    2be8:	34075e63          	bgez	a4,2f44 <_malloc_r+0x4ac>
    2bec:	1ff00713          	li	a4,511
    2bf0:	0049a503          	lw	a0,4(s3)
    2bf4:	26f76663          	bltu	a4,a5,2e60 <_malloc_r+0x3c8>
    2bf8:	ff87f713          	and	a4,a5,-8
    2bfc:	00870713          	add	a4,a4,8
    2c00:	00e98733          	add	a4,s3,a4
    2c04:	00072683          	lw	a3,0(a4)
    2c08:	0057d613          	srl	a2,a5,0x5
    2c0c:	00100793          	li	a5,1
    2c10:	00c797b3          	sll	a5,a5,a2
    2c14:	00f56533          	or	a0,a0,a5
    2c18:	ff870793          	add	a5,a4,-8
    2c1c:	00f42623          	sw	a5,12(s0)
    2c20:	00d42423          	sw	a3,8(s0)
    2c24:	00a9a223          	sw	a0,4(s3)
    2c28:	00872023          	sw	s0,0(a4)
    2c2c:	0086a623          	sw	s0,12(a3)
    2c30:	4025d793          	sra	a5,a1,0x2
    2c34:	00100613          	li	a2,1
    2c38:	00f61633          	sll	a2,a2,a5
    2c3c:	0ac56a63          	bltu	a0,a2,2cf0 <_malloc_r+0x258>
    2c40:	00a677b3          	and	a5,a2,a0
    2c44:	02079463          	bnez	a5,2c6c <_malloc_r+0x1d4>
    2c48:	00161613          	sll	a2,a2,0x1
    2c4c:	ffc5f593          	and	a1,a1,-4
    2c50:	00a677b3          	and	a5,a2,a0
    2c54:	00458593          	add	a1,a1,4
    2c58:	00079a63          	bnez	a5,2c6c <_malloc_r+0x1d4>
    2c5c:	00161613          	sll	a2,a2,0x1
    2c60:	00a677b3          	and	a5,a2,a0
    2c64:	00458593          	add	a1,a1,4
    2c68:	fe078ae3          	beqz	a5,2c5c <_malloc_r+0x1c4>
    2c6c:	00f00813          	li	a6,15
    2c70:	00359313          	sll	t1,a1,0x3
    2c74:	00698333          	add	t1,s3,t1
    2c78:	00030513          	mv	a0,t1
    2c7c:	00c52783          	lw	a5,12(a0)
    2c80:	00058e13          	mv	t3,a1
    2c84:	26f50063          	beq	a0,a5,2ee4 <_malloc_r+0x44c>
    2c88:	0047a703          	lw	a4,4(a5)
    2c8c:	00078413          	mv	s0,a5
    2c90:	00c7a783          	lw	a5,12(a5)
    2c94:	ffc77713          	and	a4,a4,-4
    2c98:	409706b3          	sub	a3,a4,s1
    2c9c:	26d84063          	blt	a6,a3,2efc <_malloc_r+0x464>
    2ca0:	fe06c2e3          	bltz	a3,2c84 <_malloc_r+0x1ec>
    2ca4:	00e40733          	add	a4,s0,a4
    2ca8:	00472683          	lw	a3,4(a4)
    2cac:	00842603          	lw	a2,8(s0)
    2cb0:	00090513          	mv	a0,s2
    2cb4:	0016e693          	or	a3,a3,1
    2cb8:	00d72223          	sw	a3,4(a4)
    2cbc:	00f62623          	sw	a5,12(a2)
    2cc0:	00c7a423          	sw	a2,8(a5)
    2cc4:	255000ef          	jal	3718 <__malloc_unlock>
    2cc8:	00840513          	add	a0,s0,8
    2ccc:	e59ff06f          	j	2b24 <_malloc_r+0x8c>
    2cd0:	00c00793          	li	a5,12
    2cd4:	00f92023          	sw	a5,0(s2)
    2cd8:	00000513          	li	a0,0
    2cdc:	e49ff06f          	j	2b24 <_malloc_r+0x8c>
    2ce0:	20000613          	li	a2,512
    2ce4:	04000593          	li	a1,64
    2ce8:	03f00813          	li	a6,63
    2cec:	e8dff06f          	j	2b78 <_malloc_r+0xe0>
    2cf0:	0089a403          	lw	s0,8(s3)
    2cf4:	01612823          	sw	s6,16(sp)
    2cf8:	00442783          	lw	a5,4(s0)
    2cfc:	ffc7fb13          	and	s6,a5,-4
    2d00:	009b6863          	bltu	s6,s1,2d10 <_malloc_r+0x278>
    2d04:	409b0733          	sub	a4,s6,s1
    2d08:	00f00793          	li	a5,15
    2d0c:	0ee7c863          	blt	a5,a4,2dfc <_malloc_r+0x364>
    2d10:	01912223          	sw	s9,4(sp)
    2d14:	82418c93          	add	s9,gp,-2012 # 74c8 <__malloc_sbrk_base>
    2d18:	000ca703          	lw	a4,0(s9)
    2d1c:	01412c23          	sw	s4,24(sp)
    2d20:	01512a23          	sw	s5,20(sp)
    2d24:	01712623          	sw	s7,12(sp)
    2d28:	00006a97          	auipc	s5,0x6
    2d2c:	f60aaa83          	lw	s5,-160(s5) # 8c88 <__malloc_top_pad>
    2d30:	fff00793          	li	a5,-1
    2d34:	01640a33          	add	s4,s0,s6
    2d38:	01548ab3          	add	s5,s1,s5
    2d3c:	3ef70263          	beq	a4,a5,3120 <_malloc_r+0x688>
    2d40:	000017b7          	lui	a5,0x1
    2d44:	00f78793          	add	a5,a5,15 # 100f <altera_avalon_jtag_uart_write+0x103>
    2d48:	00fa8ab3          	add	s5,s5,a5
    2d4c:	fffff7b7          	lui	a5,0xfffff
    2d50:	00fafab3          	and	s5,s5,a5
    2d54:	000a8593          	mv	a1,s5
    2d58:	00090513          	mv	a0,s2
    2d5c:	684000ef          	jal	33e0 <_sbrk_r>
    2d60:	fff00793          	li	a5,-1
    2d64:	00050b93          	mv	s7,a0
    2d68:	46f50663          	beq	a0,a5,31d4 <_malloc_r+0x73c>
    2d6c:	01812423          	sw	s8,8(sp)
    2d70:	25456863          	bltu	a0,s4,2fc0 <_malloc_r+0x528>
    2d74:	00006c17          	auipc	s8,0x6
    2d78:	0f8c0c13          	add	s8,s8,248 # 8e6c <__malloc_current_mallinfo>
    2d7c:	000c2583          	lw	a1,0(s8)
    2d80:	00ba85b3          	add	a1,s5,a1
    2d84:	00bc2023          	sw	a1,0(s8)
    2d88:	00058713          	mv	a4,a1
    2d8c:	2caa1063          	bne	s4,a0,304c <_malloc_r+0x5b4>
    2d90:	01451793          	sll	a5,a0,0x14
    2d94:	2a079c63          	bnez	a5,304c <_malloc_r+0x5b4>
    2d98:	0089ab83          	lw	s7,8(s3)
    2d9c:	015b07b3          	add	a5,s6,s5
    2da0:	0017e793          	or	a5,a5,1
    2da4:	00fba223          	sw	a5,4(s7)
    2da8:	00006717          	auipc	a4,0x6
    2dac:	edc70713          	add	a4,a4,-292 # 8c84 <__malloc_max_sbrked_mem>
    2db0:	00072683          	lw	a3,0(a4)
    2db4:	00b6f463          	bgeu	a3,a1,2dbc <_malloc_r+0x324>
    2db8:	00b72023          	sw	a1,0(a4)
    2dbc:	00006717          	auipc	a4,0x6
    2dc0:	ec470713          	add	a4,a4,-316 # 8c80 <__malloc_max_total_mem>
    2dc4:	00072683          	lw	a3,0(a4)
    2dc8:	00b6f463          	bgeu	a3,a1,2dd0 <_malloc_r+0x338>
    2dcc:	00b72023          	sw	a1,0(a4)
    2dd0:	00812c03          	lw	s8,8(sp)
    2dd4:	000b8413          	mv	s0,s7
    2dd8:	ffc7f793          	and	a5,a5,-4
    2ddc:	40978733          	sub	a4,a5,s1
    2de0:	3897ec63          	bltu	a5,s1,3178 <_malloc_r+0x6e0>
    2de4:	00f00793          	li	a5,15
    2de8:	38e7d863          	bge	a5,a4,3178 <_malloc_r+0x6e0>
    2dec:	01812a03          	lw	s4,24(sp)
    2df0:	01412a83          	lw	s5,20(sp)
    2df4:	00c12b83          	lw	s7,12(sp)
    2df8:	00412c83          	lw	s9,4(sp)
    2dfc:	0014e793          	or	a5,s1,1
    2e00:	00f42223          	sw	a5,4(s0)
    2e04:	009404b3          	add	s1,s0,s1
    2e08:	0099a423          	sw	s1,8(s3)
    2e0c:	00176713          	or	a4,a4,1
    2e10:	00090513          	mv	a0,s2
    2e14:	00e4a223          	sw	a4,4(s1)
    2e18:	101000ef          	jal	3718 <__malloc_unlock>
    2e1c:	02c12083          	lw	ra,44(sp)
    2e20:	00840513          	add	a0,s0,8
    2e24:	02812403          	lw	s0,40(sp)
    2e28:	01012b03          	lw	s6,16(sp)
    2e2c:	02412483          	lw	s1,36(sp)
    2e30:	02012903          	lw	s2,32(sp)
    2e34:	01c12983          	lw	s3,28(sp)
    2e38:	03010113          	add	sp,sp,48
    2e3c:	00008067          	ret
    2e40:	0049a503          	lw	a0,4(s3)
    2e44:	dedff06f          	j	2c30 <_malloc_r+0x198>
    2e48:	00842603          	lw	a2,8(s0)
    2e4c:	cb5ff06f          	j	2b00 <_malloc_r+0x68>
    2e50:	00c7a403          	lw	s0,12(a5) # fffff00c <__reset+0xfbfff00c>
    2e54:	00258593          	add	a1,a1,2
    2e58:	d68782e3          	beq	a5,s0,2bbc <_malloc_r+0x124>
    2e5c:	c95ff06f          	j	2af0 <_malloc_r+0x58>
    2e60:	0097d713          	srl	a4,a5,0x9
    2e64:	00400693          	li	a3,4
    2e68:	14e6f263          	bgeu	a3,a4,2fac <_malloc_r+0x514>
    2e6c:	01400693          	li	a3,20
    2e70:	32e6e663          	bltu	a3,a4,319c <_malloc_r+0x704>
    2e74:	05c70613          	add	a2,a4,92
    2e78:	05b70693          	add	a3,a4,91
    2e7c:	00361613          	sll	a2,a2,0x3
    2e80:	00c98633          	add	a2,s3,a2
    2e84:	00062703          	lw	a4,0(a2)
    2e88:	ff860613          	add	a2,a2,-8
    2e8c:	00e61863          	bne	a2,a4,2e9c <_malloc_r+0x404>
    2e90:	2980006f          	j	3128 <_malloc_r+0x690>
    2e94:	00872703          	lw	a4,8(a4)
    2e98:	00e60863          	beq	a2,a4,2ea8 <_malloc_r+0x410>
    2e9c:	00472683          	lw	a3,4(a4)
    2ea0:	ffc6f693          	and	a3,a3,-4
    2ea4:	fed7e8e3          	bltu	a5,a3,2e94 <_malloc_r+0x3fc>
    2ea8:	00c72603          	lw	a2,12(a4)
    2eac:	00c42623          	sw	a2,12(s0)
    2eb0:	00e42423          	sw	a4,8(s0)
    2eb4:	00862423          	sw	s0,8(a2)
    2eb8:	00872623          	sw	s0,12(a4)
    2ebc:	d75ff06f          	j	2c30 <_malloc_r+0x198>
    2ec0:	01400713          	li	a4,20
    2ec4:	10f77863          	bgeu	a4,a5,2fd4 <_malloc_r+0x53c>
    2ec8:	05400713          	li	a4,84
    2ecc:	2ef76663          	bltu	a4,a5,31b8 <_malloc_r+0x720>
    2ed0:	00c4d793          	srl	a5,s1,0xc
    2ed4:	06f78593          	add	a1,a5,111
    2ed8:	06e78813          	add	a6,a5,110
    2edc:	00359613          	sll	a2,a1,0x3
    2ee0:	c99ff06f          	j	2b78 <_malloc_r+0xe0>
    2ee4:	001e0e13          	add	t3,t3,1
    2ee8:	003e7793          	and	a5,t3,3
    2eec:	00850513          	add	a0,a0,8
    2ef0:	10078063          	beqz	a5,2ff0 <_malloc_r+0x558>
    2ef4:	00c52783          	lw	a5,12(a0)
    2ef8:	d8dff06f          	j	2c84 <_malloc_r+0x1ec>
    2efc:	00842603          	lw	a2,8(s0)
    2f00:	0014e593          	or	a1,s1,1
    2f04:	00b42223          	sw	a1,4(s0)
    2f08:	00f62623          	sw	a5,12(a2)
    2f0c:	00c7a423          	sw	a2,8(a5)
    2f10:	009404b3          	add	s1,s0,s1
    2f14:	0099aa23          	sw	s1,20(s3)
    2f18:	0099a823          	sw	s1,16(s3)
    2f1c:	0016e793          	or	a5,a3,1
    2f20:	0114a623          	sw	a7,12(s1)
    2f24:	0114a423          	sw	a7,8(s1)
    2f28:	00f4a223          	sw	a5,4(s1)
    2f2c:	00e40733          	add	a4,s0,a4
    2f30:	00090513          	mv	a0,s2
    2f34:	00d72023          	sw	a3,0(a4)
    2f38:	7e0000ef          	jal	3718 <__malloc_unlock>
    2f3c:	00840513          	add	a0,s0,8
    2f40:	be5ff06f          	j	2b24 <_malloc_r+0x8c>
    2f44:	00f407b3          	add	a5,s0,a5
    2f48:	0047a703          	lw	a4,4(a5)
    2f4c:	00090513          	mv	a0,s2
    2f50:	00176713          	or	a4,a4,1
    2f54:	00e7a223          	sw	a4,4(a5)
    2f58:	7c0000ef          	jal	3718 <__malloc_unlock>
    2f5c:	00840513          	add	a0,s0,8
    2f60:	bc5ff06f          	j	2b24 <_malloc_r+0x8c>
    2f64:	0034d593          	srl	a1,s1,0x3
    2f68:	00848793          	add	a5,s1,8
    2f6c:	b6dff06f          	j	2ad8 <_malloc_r+0x40>
    2f70:	0014e693          	or	a3,s1,1
    2f74:	00d42223          	sw	a3,4(s0)
    2f78:	009404b3          	add	s1,s0,s1
    2f7c:	0099aa23          	sw	s1,20(s3)
    2f80:	0099a823          	sw	s1,16(s3)
    2f84:	00176693          	or	a3,a4,1
    2f88:	0114a623          	sw	a7,12(s1)
    2f8c:	0114a423          	sw	a7,8(s1)
    2f90:	00d4a223          	sw	a3,4(s1)
    2f94:	00f407b3          	add	a5,s0,a5
    2f98:	00090513          	mv	a0,s2
    2f9c:	00e7a023          	sw	a4,0(a5)
    2fa0:	778000ef          	jal	3718 <__malloc_unlock>
    2fa4:	00840513          	add	a0,s0,8
    2fa8:	b7dff06f          	j	2b24 <_malloc_r+0x8c>
    2fac:	0067d713          	srl	a4,a5,0x6
    2fb0:	03970613          	add	a2,a4,57
    2fb4:	03870693          	add	a3,a4,56
    2fb8:	00361613          	sll	a2,a2,0x3
    2fbc:	ec5ff06f          	j	2e80 <_malloc_r+0x3e8>
    2fc0:	07340c63          	beq	s0,s3,3038 <_malloc_r+0x5a0>
    2fc4:	0089a403          	lw	s0,8(s3)
    2fc8:	00812c03          	lw	s8,8(sp)
    2fcc:	00442783          	lw	a5,4(s0)
    2fd0:	e09ff06f          	j	2dd8 <_malloc_r+0x340>
    2fd4:	05c78593          	add	a1,a5,92
    2fd8:	05b78813          	add	a6,a5,91
    2fdc:	00359613          	sll	a2,a1,0x3
    2fe0:	b99ff06f          	j	2b78 <_malloc_r+0xe0>
    2fe4:	00832783          	lw	a5,8(t1)
    2fe8:	fff58593          	add	a1,a1,-1
    2fec:	28679063          	bne	a5,t1,326c <_malloc_r+0x7d4>
    2ff0:	0035f793          	and	a5,a1,3
    2ff4:	ff830313          	add	t1,t1,-8
    2ff8:	fe0796e3          	bnez	a5,2fe4 <_malloc_r+0x54c>
    2ffc:	0049a703          	lw	a4,4(s3)
    3000:	fff64793          	not	a5,a2
    3004:	00e7f7b3          	and	a5,a5,a4
    3008:	00f9a223          	sw	a5,4(s3)
    300c:	00161613          	sll	a2,a2,0x1
    3010:	cec7e0e3          	bltu	a5,a2,2cf0 <_malloc_r+0x258>
    3014:	cc060ee3          	beqz	a2,2cf0 <_malloc_r+0x258>
    3018:	00f67733          	and	a4,a2,a5
    301c:	00071a63          	bnez	a4,3030 <_malloc_r+0x598>
    3020:	00161613          	sll	a2,a2,0x1
    3024:	00f67733          	and	a4,a2,a5
    3028:	004e0e13          	add	t3,t3,4
    302c:	fe070ae3          	beqz	a4,3020 <_malloc_r+0x588>
    3030:	000e0593          	mv	a1,t3
    3034:	c3dff06f          	j	2c70 <_malloc_r+0x1d8>
    3038:	00006c17          	auipc	s8,0x6
    303c:	e34c0c13          	add	s8,s8,-460 # 8e6c <__malloc_current_mallinfo>
    3040:	000c2703          	lw	a4,0(s8)
    3044:	00ea8733          	add	a4,s5,a4
    3048:	00ec2023          	sw	a4,0(s8)
    304c:	000ca683          	lw	a3,0(s9)
    3050:	fff00793          	li	a5,-1
    3054:	18f68663          	beq	a3,a5,31e0 <_malloc_r+0x748>
    3058:	414b87b3          	sub	a5,s7,s4
    305c:	00e787b3          	add	a5,a5,a4
    3060:	00fc2023          	sw	a5,0(s8)
    3064:	007bfc93          	and	s9,s7,7
    3068:	0c0c8c63          	beqz	s9,3140 <_malloc_r+0x6a8>
    306c:	419b8bb3          	sub	s7,s7,s9
    3070:	000017b7          	lui	a5,0x1
    3074:	00878793          	add	a5,a5,8 # 1008 <altera_avalon_jtag_uart_write+0xfc>
    3078:	008b8b93          	add	s7,s7,8
    307c:	419785b3          	sub	a1,a5,s9
    3080:	015b8ab3          	add	s5,s7,s5
    3084:	415585b3          	sub	a1,a1,s5
    3088:	01459593          	sll	a1,a1,0x14
    308c:	0145da13          	srl	s4,a1,0x14
    3090:	000a0593          	mv	a1,s4
    3094:	00090513          	mv	a0,s2
    3098:	348000ef          	jal	33e0 <_sbrk_r>
    309c:	fff00793          	li	a5,-1
    30a0:	18f50063          	beq	a0,a5,3220 <_malloc_r+0x788>
    30a4:	41750533          	sub	a0,a0,s7
    30a8:	01450ab3          	add	s5,a0,s4
    30ac:	000c2703          	lw	a4,0(s8)
    30b0:	0179a423          	sw	s7,8(s3)
    30b4:	001ae793          	or	a5,s5,1
    30b8:	00ea05b3          	add	a1,s4,a4
    30bc:	00bc2023          	sw	a1,0(s8)
    30c0:	00fba223          	sw	a5,4(s7)
    30c4:	cf3402e3          	beq	s0,s3,2da8 <_malloc_r+0x310>
    30c8:	00f00693          	li	a3,15
    30cc:	0b66f063          	bgeu	a3,s6,316c <_malloc_r+0x6d4>
    30d0:	00442703          	lw	a4,4(s0)
    30d4:	ff4b0793          	add	a5,s6,-12
    30d8:	ff87f793          	and	a5,a5,-8
    30dc:	00177713          	and	a4,a4,1
    30e0:	00f76733          	or	a4,a4,a5
    30e4:	00e42223          	sw	a4,4(s0)
    30e8:	00500613          	li	a2,5
    30ec:	00f40733          	add	a4,s0,a5
    30f0:	00c72223          	sw	a2,4(a4)
    30f4:	00c72423          	sw	a2,8(a4)
    30f8:	00f6e663          	bltu	a3,a5,3104 <_malloc_r+0x66c>
    30fc:	004ba783          	lw	a5,4(s7)
    3100:	ca9ff06f          	j	2da8 <_malloc_r+0x310>
    3104:	00840593          	add	a1,s0,8
    3108:	00090513          	mv	a0,s2
    310c:	401000ef          	jal	3d0c <_free_r>
    3110:	0089ab83          	lw	s7,8(s3)
    3114:	000c2583          	lw	a1,0(s8)
    3118:	004ba783          	lw	a5,4(s7)
    311c:	c8dff06f          	j	2da8 <_malloc_r+0x310>
    3120:	010a8a93          	add	s5,s5,16
    3124:	c31ff06f          	j	2d54 <_malloc_r+0x2bc>
    3128:	4026d693          	sra	a3,a3,0x2
    312c:	00100793          	li	a5,1
    3130:	00d797b3          	sll	a5,a5,a3
    3134:	00f56533          	or	a0,a0,a5
    3138:	00a9a223          	sw	a0,4(s3)
    313c:	d71ff06f          	j	2eac <_malloc_r+0x414>
    3140:	015b85b3          	add	a1,s7,s5
    3144:	40b005b3          	neg	a1,a1
    3148:	01459593          	sll	a1,a1,0x14
    314c:	0145da13          	srl	s4,a1,0x14
    3150:	000a0593          	mv	a1,s4
    3154:	00090513          	mv	a0,s2
    3158:	288000ef          	jal	33e0 <_sbrk_r>
    315c:	fff00793          	li	a5,-1
    3160:	f4f512e3          	bne	a0,a5,30a4 <_malloc_r+0x60c>
    3164:	00000a13          	li	s4,0
    3168:	f45ff06f          	j	30ac <_malloc_r+0x614>
    316c:	00812c03          	lw	s8,8(sp)
    3170:	00100793          	li	a5,1
    3174:	00fba223          	sw	a5,4(s7)
    3178:	00090513          	mv	a0,s2
    317c:	59c000ef          	jal	3718 <__malloc_unlock>
    3180:	00000513          	li	a0,0
    3184:	01812a03          	lw	s4,24(sp)
    3188:	01412a83          	lw	s5,20(sp)
    318c:	01012b03          	lw	s6,16(sp)
    3190:	00c12b83          	lw	s7,12(sp)
    3194:	00412c83          	lw	s9,4(sp)
    3198:	98dff06f          	j	2b24 <_malloc_r+0x8c>
    319c:	05400693          	li	a3,84
    31a0:	04e6e463          	bltu	a3,a4,31e8 <_malloc_r+0x750>
    31a4:	00c7d713          	srl	a4,a5,0xc
    31a8:	06f70613          	add	a2,a4,111
    31ac:	06e70693          	add	a3,a4,110
    31b0:	00361613          	sll	a2,a2,0x3
    31b4:	ccdff06f          	j	2e80 <_malloc_r+0x3e8>
    31b8:	15400713          	li	a4,340
    31bc:	04f76463          	bltu	a4,a5,3204 <_malloc_r+0x76c>
    31c0:	00f4d793          	srl	a5,s1,0xf
    31c4:	07878593          	add	a1,a5,120
    31c8:	07778813          	add	a6,a5,119
    31cc:	00359613          	sll	a2,a1,0x3
    31d0:	9a9ff06f          	j	2b78 <_malloc_r+0xe0>
    31d4:	0089a403          	lw	s0,8(s3)
    31d8:	00442783          	lw	a5,4(s0)
    31dc:	bfdff06f          	j	2dd8 <_malloc_r+0x340>
    31e0:	017ca023          	sw	s7,0(s9)
    31e4:	e81ff06f          	j	3064 <_malloc_r+0x5cc>
    31e8:	15400693          	li	a3,340
    31ec:	04e6e463          	bltu	a3,a4,3234 <_malloc_r+0x79c>
    31f0:	00f7d713          	srl	a4,a5,0xf
    31f4:	07870613          	add	a2,a4,120
    31f8:	07770693          	add	a3,a4,119
    31fc:	00361613          	sll	a2,a2,0x3
    3200:	c81ff06f          	j	2e80 <_malloc_r+0x3e8>
    3204:	55400713          	li	a4,1364
    3208:	04f76463          	bltu	a4,a5,3250 <_malloc_r+0x7b8>
    320c:	0124d793          	srl	a5,s1,0x12
    3210:	07d78593          	add	a1,a5,125
    3214:	07c78813          	add	a6,a5,124
    3218:	00359613          	sll	a2,a1,0x3
    321c:	95dff06f          	j	2b78 <_malloc_r+0xe0>
    3220:	ff8c8c93          	add	s9,s9,-8
    3224:	019a8ab3          	add	s5,s5,s9
    3228:	417a8ab3          	sub	s5,s5,s7
    322c:	00000a13          	li	s4,0
    3230:	e7dff06f          	j	30ac <_malloc_r+0x614>
    3234:	55400693          	li	a3,1364
    3238:	02e6e463          	bltu	a3,a4,3260 <_malloc_r+0x7c8>
    323c:	0127d713          	srl	a4,a5,0x12
    3240:	07d70613          	add	a2,a4,125
    3244:	07c70693          	add	a3,a4,124
    3248:	00361613          	sll	a2,a2,0x3
    324c:	c35ff06f          	j	2e80 <_malloc_r+0x3e8>
    3250:	3f800613          	li	a2,1016
    3254:	07f00593          	li	a1,127
    3258:	07e00813          	li	a6,126
    325c:	91dff06f          	j	2b78 <_malloc_r+0xe0>
    3260:	3f800613          	li	a2,1016
    3264:	07e00693          	li	a3,126
    3268:	c19ff06f          	j	2e80 <_malloc_r+0x3e8>
    326c:	0049a783          	lw	a5,4(s3)
    3270:	d9dff06f          	j	300c <_malloc_r+0x574>

00003274 <__call_exitprocs>:
    3274:	fd010113          	add	sp,sp,-48
    3278:	01712623          	sw	s7,12(sp)
    327c:	82c18b93          	add	s7,gp,-2004 # 74d0 <__atexit_recursive_mutex>
    3280:	01612823          	sw	s6,16(sp)
    3284:	00050b13          	mv	s6,a0
    3288:	000ba503          	lw	a0,0(s7)
    328c:	01412c23          	sw	s4,24(sp)
    3290:	00006a17          	auipc	s4,0x6
    3294:	9fca0a13          	add	s4,s4,-1540 # 8c8c <__atexit>
    3298:	03212023          	sw	s2,32(sp)
    329c:	01812423          	sw	s8,8(sp)
    32a0:	02112623          	sw	ra,44(sp)
    32a4:	00058c13          	mv	s8,a1
    32a8:	500000ef          	jal	37a8 <__retarget_lock_acquire_recursive>
    32ac:	000a2903          	lw	s2,0(s4)
    32b0:	08090c63          	beqz	s2,3348 <__call_exitprocs+0xd4>
    32b4:	01312e23          	sw	s3,28(sp)
    32b8:	01512a23          	sw	s5,20(sp)
    32bc:	02812423          	sw	s0,40(sp)
    32c0:	02912223          	sw	s1,36(sp)
    32c4:	01912223          	sw	s9,4(sp)
    32c8:	fff00993          	li	s3,-1
    32cc:	00100a93          	li	s5,1
    32d0:	00492483          	lw	s1,4(s2)
    32d4:	fff48413          	add	s0,s1,-1
    32d8:	04044e63          	bltz	s0,3334 <__call_exitprocs+0xc0>
    32dc:	00249493          	sll	s1,s1,0x2
    32e0:	009904b3          	add	s1,s2,s1
    32e4:	080c1463          	bnez	s8,336c <__call_exitprocs+0xf8>
    32e8:	00492783          	lw	a5,4(s2)
    32ec:	0044a683          	lw	a3,4(s1)
    32f0:	fff78793          	add	a5,a5,-1
    32f4:	0c878063          	beq	a5,s0,33b4 <__call_exitprocs+0x140>
    32f8:	0004a223          	sw	zero,4(s1)
    32fc:	02068663          	beqz	a3,3328 <__call_exitprocs+0xb4>
    3300:	18892783          	lw	a5,392(s2)
    3304:	008a9733          	sll	a4,s5,s0
    3308:	00492c83          	lw	s9,4(s2)
    330c:	00f777b3          	and	a5,a4,a5
    3310:	06079a63          	bnez	a5,3384 <__call_exitprocs+0x110>
    3314:	000680e7          	jalr	a3
    3318:	00492703          	lw	a4,4(s2)
    331c:	000a2783          	lw	a5,0(s4)
    3320:	09971463          	bne	a4,s9,33a8 <__call_exitprocs+0x134>
    3324:	09279263          	bne	a5,s2,33a8 <__call_exitprocs+0x134>
    3328:	fff40413          	add	s0,s0,-1
    332c:	ffc48493          	add	s1,s1,-4
    3330:	fb341ae3          	bne	s0,s3,32e4 <__call_exitprocs+0x70>
    3334:	02812403          	lw	s0,40(sp)
    3338:	02412483          	lw	s1,36(sp)
    333c:	01c12983          	lw	s3,28(sp)
    3340:	01412a83          	lw	s5,20(sp)
    3344:	00412c83          	lw	s9,4(sp)
    3348:	000ba503          	lw	a0,0(s7)
    334c:	02c12083          	lw	ra,44(sp)
    3350:	02012903          	lw	s2,32(sp)
    3354:	01812a03          	lw	s4,24(sp)
    3358:	01012b03          	lw	s6,16(sp)
    335c:	00c12b83          	lw	s7,12(sp)
    3360:	00812c03          	lw	s8,8(sp)
    3364:	03010113          	add	sp,sp,48
    3368:	4580006f          	j	37c0 <__retarget_lock_release_recursive>
    336c:	1044a783          	lw	a5,260(s1)
    3370:	f7878ce3          	beq	a5,s8,32e8 <__call_exitprocs+0x74>
    3374:	fff40413          	add	s0,s0,-1
    3378:	ffc48493          	add	s1,s1,-4
    337c:	ff3418e3          	bne	s0,s3,336c <__call_exitprocs+0xf8>
    3380:	fb5ff06f          	j	3334 <__call_exitprocs+0xc0>
    3384:	18c92783          	lw	a5,396(s2)
    3388:	0844a583          	lw	a1,132(s1)
    338c:	00f77733          	and	a4,a4,a5
    3390:	02071663          	bnez	a4,33bc <__call_exitprocs+0x148>
    3394:	000b0513          	mv	a0,s6
    3398:	000680e7          	jalr	a3
    339c:	00492703          	lw	a4,4(s2)
    33a0:	000a2783          	lw	a5,0(s4)
    33a4:	f99700e3          	beq	a4,s9,3324 <__call_exitprocs+0xb0>
    33a8:	f80786e3          	beqz	a5,3334 <__call_exitprocs+0xc0>
    33ac:	00078913          	mv	s2,a5
    33b0:	f21ff06f          	j	32d0 <__call_exitprocs+0x5c>
    33b4:	00892223          	sw	s0,4(s2)
    33b8:	f45ff06f          	j	32fc <__call_exitprocs+0x88>
    33bc:	00058513          	mv	a0,a1
    33c0:	000680e7          	jalr	a3
    33c4:	f55ff06f          	j	3318 <__call_exitprocs+0xa4>

000033c8 <register_fini>:
    33c8:	00000793          	li	a5,0
    33cc:	00078863          	beqz	a5,33dc <register_fini+0x14>
    33d0:	00000517          	auipc	a0,0x0
    33d4:	36850513          	add	a0,a0,872 # 3738 <__libc_fini_array>
    33d8:	34c0006f          	j	3724 <atexit>
    33dc:	00008067          	ret

000033e0 <_sbrk_r>:
    33e0:	ff010113          	add	sp,sp,-16
    33e4:	00812423          	sw	s0,8(sp)
    33e8:	00050413          	mv	s0,a0
    33ec:	00058513          	mv	a0,a1
    33f0:	00006797          	auipc	a5,0x6
    33f4:	8807a423          	sw	zero,-1912(a5) # 8c78 <errno>
    33f8:	00112623          	sw	ra,12(sp)
    33fc:	385010ef          	jal	4f80 <_sbrk>
    3400:	fff00793          	li	a5,-1
    3404:	00f50a63          	beq	a0,a5,3418 <_sbrk_r+0x38>
    3408:	00c12083          	lw	ra,12(sp)
    340c:	00812403          	lw	s0,8(sp)
    3410:	01010113          	add	sp,sp,16
    3414:	00008067          	ret
    3418:	00006797          	auipc	a5,0x6
    341c:	8607a783          	lw	a5,-1952(a5) # 8c78 <errno>
    3420:	fe0784e3          	beqz	a5,3408 <_sbrk_r+0x28>
    3424:	00c12083          	lw	ra,12(sp)
    3428:	00f42023          	sw	a5,0(s0)
    342c:	00812403          	lw	s0,8(sp)
    3430:	01010113          	add	sp,sp,16
    3434:	00008067          	ret

00003438 <_write_r>:
    3438:	ff010113          	add	sp,sp,-16
    343c:	00058713          	mv	a4,a1
    3440:	00812423          	sw	s0,8(sp)
    3444:	00060593          	mv	a1,a2
    3448:	00050413          	mv	s0,a0
    344c:	00068613          	mv	a2,a3
    3450:	00070513          	mv	a0,a4
    3454:	00006797          	auipc	a5,0x6
    3458:	8207a223          	sw	zero,-2012(a5) # 8c78 <errno>
    345c:	00112623          	sw	ra,12(sp)
    3460:	419010ef          	jal	5078 <_write>
    3464:	fff00793          	li	a5,-1
    3468:	00f50a63          	beq	a0,a5,347c <_write_r+0x44>
    346c:	00c12083          	lw	ra,12(sp)
    3470:	00812403          	lw	s0,8(sp)
    3474:	01010113          	add	sp,sp,16
    3478:	00008067          	ret
    347c:	00005797          	auipc	a5,0x5
    3480:	7fc7a783          	lw	a5,2044(a5) # 8c78 <errno>
    3484:	fe0784e3          	beqz	a5,346c <_write_r+0x34>
    3488:	00c12083          	lw	ra,12(sp)
    348c:	00f42023          	sw	a5,0(s0)
    3490:	00812403          	lw	s0,8(sp)
    3494:	01010113          	add	sp,sp,16
    3498:	00008067          	ret

0000349c <__smakebuf_r>:
    349c:	00c59783          	lh	a5,12(a1)
    34a0:	f8010113          	add	sp,sp,-128
    34a4:	06812c23          	sw	s0,120(sp)
    34a8:	06112e23          	sw	ra,124(sp)
    34ac:	0027f713          	and	a4,a5,2
    34b0:	00058413          	mv	s0,a1
    34b4:	02070463          	beqz	a4,34dc <__smakebuf_r+0x40>
    34b8:	04358793          	add	a5,a1,67
    34bc:	00f5a023          	sw	a5,0(a1)
    34c0:	00f5a823          	sw	a5,16(a1)
    34c4:	00100793          	li	a5,1
    34c8:	00f5aa23          	sw	a5,20(a1)
    34cc:	07c12083          	lw	ra,124(sp)
    34d0:	07812403          	lw	s0,120(sp)
    34d4:	08010113          	add	sp,sp,128
    34d8:	00008067          	ret
    34dc:	00e59583          	lh	a1,14(a1)
    34e0:	06912a23          	sw	s1,116(sp)
    34e4:	07212823          	sw	s2,112(sp)
    34e8:	07312623          	sw	s3,108(sp)
    34ec:	07412423          	sw	s4,104(sp)
    34f0:	00050493          	mv	s1,a0
    34f4:	0805c663          	bltz	a1,3580 <__smakebuf_r+0xe4>
    34f8:	00810613          	add	a2,sp,8
    34fc:	76d000ef          	jal	4468 <_fstat_r>
    3500:	06054e63          	bltz	a0,357c <__smakebuf_r+0xe0>
    3504:	00c12783          	lw	a5,12(sp)
    3508:	0000f937          	lui	s2,0xf
    350c:	000019b7          	lui	s3,0x1
    3510:	00f97933          	and	s2,s2,a5
    3514:	ffffe7b7          	lui	a5,0xffffe
    3518:	00f90933          	add	s2,s2,a5
    351c:	00193913          	seqz	s2,s2
    3520:	40000a13          	li	s4,1024
    3524:	80098993          	add	s3,s3,-2048 # 800 <altera_avalon_jtag_uart_init+0x40>
    3528:	000a0593          	mv	a1,s4
    352c:	00048513          	mv	a0,s1
    3530:	d68ff0ef          	jal	2a98 <_malloc_r>
    3534:	00c41783          	lh	a5,12(s0)
    3538:	06050863          	beqz	a0,35a8 <__smakebuf_r+0x10c>
    353c:	0807e793          	or	a5,a5,128
    3540:	00a42023          	sw	a0,0(s0)
    3544:	00a42823          	sw	a0,16(s0)
    3548:	00f41623          	sh	a5,12(s0)
    354c:	01442a23          	sw	s4,20(s0)
    3550:	0a091063          	bnez	s2,35f0 <__smakebuf_r+0x154>
    3554:	0137e7b3          	or	a5,a5,s3
    3558:	07c12083          	lw	ra,124(sp)
    355c:	00f41623          	sh	a5,12(s0)
    3560:	07812403          	lw	s0,120(sp)
    3564:	07412483          	lw	s1,116(sp)
    3568:	07012903          	lw	s2,112(sp)
    356c:	06c12983          	lw	s3,108(sp)
    3570:	06812a03          	lw	s4,104(sp)
    3574:	08010113          	add	sp,sp,128
    3578:	00008067          	ret
    357c:	00c41783          	lh	a5,12(s0)
    3580:	0807f793          	and	a5,a5,128
    3584:	00000913          	li	s2,0
    3588:	04078e63          	beqz	a5,35e4 <__smakebuf_r+0x148>
    358c:	04000a13          	li	s4,64
    3590:	000a0593          	mv	a1,s4
    3594:	00048513          	mv	a0,s1
    3598:	d00ff0ef          	jal	2a98 <_malloc_r>
    359c:	00c41783          	lh	a5,12(s0)
    35a0:	00000993          	li	s3,0
    35a4:	f8051ce3          	bnez	a0,353c <__smakebuf_r+0xa0>
    35a8:	2007f713          	and	a4,a5,512
    35ac:	04071e63          	bnez	a4,3608 <__smakebuf_r+0x16c>
    35b0:	ffc7f793          	and	a5,a5,-4
    35b4:	0027e793          	or	a5,a5,2
    35b8:	04340713          	add	a4,s0,67
    35bc:	00f41623          	sh	a5,12(s0)
    35c0:	00100793          	li	a5,1
    35c4:	07412483          	lw	s1,116(sp)
    35c8:	07012903          	lw	s2,112(sp)
    35cc:	06c12983          	lw	s3,108(sp)
    35d0:	06812a03          	lw	s4,104(sp)
    35d4:	00e42023          	sw	a4,0(s0)
    35d8:	00e42823          	sw	a4,16(s0)
    35dc:	00f42a23          	sw	a5,20(s0)
    35e0:	eedff06f          	j	34cc <__smakebuf_r+0x30>
    35e4:	40000a13          	li	s4,1024
    35e8:	00000993          	li	s3,0
    35ec:	f3dff06f          	j	3528 <__smakebuf_r+0x8c>
    35f0:	00e41583          	lh	a1,14(s0)
    35f4:	00048513          	mv	a0,s1
    35f8:	6d1000ef          	jal	44c8 <_isatty_r>
    35fc:	02051063          	bnez	a0,361c <__smakebuf_r+0x180>
    3600:	00c41783          	lh	a5,12(s0)
    3604:	f51ff06f          	j	3554 <__smakebuf_r+0xb8>
    3608:	07412483          	lw	s1,116(sp)
    360c:	07012903          	lw	s2,112(sp)
    3610:	06c12983          	lw	s3,108(sp)
    3614:	06812a03          	lw	s4,104(sp)
    3618:	eb5ff06f          	j	34cc <__smakebuf_r+0x30>
    361c:	00c45783          	lhu	a5,12(s0)
    3620:	ffc7f793          	and	a5,a5,-4
    3624:	0017e793          	or	a5,a5,1
    3628:	01079793          	sll	a5,a5,0x10
    362c:	4107d793          	sra	a5,a5,0x10
    3630:	f25ff06f          	j	3554 <__smakebuf_r+0xb8>

00003634 <__swhatbuf_r>:
    3634:	f9010113          	add	sp,sp,-112
    3638:	06812423          	sw	s0,104(sp)
    363c:	00058413          	mv	s0,a1
    3640:	00e59583          	lh	a1,14(a1)
    3644:	06912223          	sw	s1,100(sp)
    3648:	07212023          	sw	s2,96(sp)
    364c:	06112623          	sw	ra,108(sp)
    3650:	00060493          	mv	s1,a2
    3654:	00068913          	mv	s2,a3
    3658:	0405ca63          	bltz	a1,36ac <__swhatbuf_r+0x78>
    365c:	00810613          	add	a2,sp,8
    3660:	609000ef          	jal	4468 <_fstat_r>
    3664:	04054463          	bltz	a0,36ac <__swhatbuf_r+0x78>
    3668:	00c12703          	lw	a4,12(sp)
    366c:	0000f7b7          	lui	a5,0xf
    3670:	06c12083          	lw	ra,108(sp)
    3674:	00e7f7b3          	and	a5,a5,a4
    3678:	ffffe737          	lui	a4,0xffffe
    367c:	00e787b3          	add	a5,a5,a4
    3680:	06812403          	lw	s0,104(sp)
    3684:	0017b793          	seqz	a5,a5
    3688:	00f92023          	sw	a5,0(s2) # f000 <__alt_heap_start+0x5fdc>
    368c:	40000713          	li	a4,1024
    3690:	00e4a023          	sw	a4,0(s1)
    3694:	00001537          	lui	a0,0x1
    3698:	06412483          	lw	s1,100(sp)
    369c:	06012903          	lw	s2,96(sp)
    36a0:	80050513          	add	a0,a0,-2048 # 800 <altera_avalon_jtag_uart_init+0x40>
    36a4:	07010113          	add	sp,sp,112
    36a8:	00008067          	ret
    36ac:	00c45783          	lhu	a5,12(s0)
    36b0:	0807f793          	and	a5,a5,128
    36b4:	02078863          	beqz	a5,36e4 <__swhatbuf_r+0xb0>
    36b8:	06c12083          	lw	ra,108(sp)
    36bc:	06812403          	lw	s0,104(sp)
    36c0:	00000793          	li	a5,0
    36c4:	00f92023          	sw	a5,0(s2)
    36c8:	04000713          	li	a4,64
    36cc:	00e4a023          	sw	a4,0(s1)
    36d0:	06012903          	lw	s2,96(sp)
    36d4:	06412483          	lw	s1,100(sp)
    36d8:	00000513          	li	a0,0
    36dc:	07010113          	add	sp,sp,112
    36e0:	00008067          	ret
    36e4:	06c12083          	lw	ra,108(sp)
    36e8:	06812403          	lw	s0,104(sp)
    36ec:	00f92023          	sw	a5,0(s2)
    36f0:	40000713          	li	a4,1024
    36f4:	00e4a023          	sw	a4,0(s1)
    36f8:	06012903          	lw	s2,96(sp)
    36fc:	06412483          	lw	s1,100(sp)
    3700:	00000513          	li	a0,0
    3704:	07010113          	add	sp,sp,112
    3708:	00008067          	ret

0000370c <__malloc_lock>:
    370c:	00005517          	auipc	a0,0x5
    3710:	59450513          	add	a0,a0,1428 # 8ca0 <__lock___malloc_recursive_mutex>
    3714:	0940006f          	j	37a8 <__retarget_lock_acquire_recursive>

00003718 <__malloc_unlock>:
    3718:	00005517          	auipc	a0,0x5
    371c:	58850513          	add	a0,a0,1416 # 8ca0 <__lock___malloc_recursive_mutex>
    3720:	0a00006f          	j	37c0 <__retarget_lock_release_recursive>

00003724 <atexit>:
    3724:	00050593          	mv	a1,a0
    3728:	00000693          	li	a3,0
    372c:	00000613          	li	a2,0
    3730:	00000513          	li	a0,0
    3734:	6b50006f          	j	45e8 <__register_exitproc>

00003738 <__libc_fini_array>:
    3738:	ff010113          	add	sp,sp,-16
    373c:	00812423          	sw	s0,8(sp)
    3740:	00002797          	auipc	a5,0x2
    3744:	5cc78793          	add	a5,a5,1484 # 5d0c <__fini_array_end>
    3748:	00002417          	auipc	s0,0x2
    374c:	5c440413          	add	s0,s0,1476 # 5d0c <__fini_array_end>
    3750:	40f40433          	sub	s0,s0,a5
    3754:	00912223          	sw	s1,4(sp)
    3758:	00112623          	sw	ra,12(sp)
    375c:	40245493          	sra	s1,s0,0x2
    3760:	02048063          	beqz	s1,3780 <__libc_fini_array+0x48>
    3764:	ffc40413          	add	s0,s0,-4
    3768:	00f40433          	add	s0,s0,a5
    376c:	00042783          	lw	a5,0(s0)
    3770:	fff48493          	add	s1,s1,-1
    3774:	ffc40413          	add	s0,s0,-4
    3778:	000780e7          	jalr	a5
    377c:	fe0498e3          	bnez	s1,376c <__libc_fini_array+0x34>
    3780:	00c12083          	lw	ra,12(sp)
    3784:	00812403          	lw	s0,8(sp)
    3788:	00412483          	lw	s1,4(sp)
    378c:	01010113          	add	sp,sp,16
    3790:	00008067          	ret

00003794 <__retarget_lock_init>:
    3794:	00008067          	ret

00003798 <__retarget_lock_init_recursive>:
    3798:	00008067          	ret

0000379c <__retarget_lock_close>:
    379c:	00008067          	ret

000037a0 <__retarget_lock_close_recursive>:
    37a0:	00008067          	ret

000037a4 <__retarget_lock_acquire>:
    37a4:	00008067          	ret

000037a8 <__retarget_lock_acquire_recursive>:
    37a8:	00008067          	ret

000037ac <__retarget_lock_try_acquire>:
    37ac:	00100513          	li	a0,1
    37b0:	00008067          	ret

000037b4 <__retarget_lock_try_acquire_recursive>:
    37b4:	00100513          	li	a0,1
    37b8:	00008067          	ret

000037bc <__retarget_lock_release>:
    37bc:	00008067          	ret

000037c0 <__retarget_lock_release_recursive>:
    37c0:	00008067          	ret

000037c4 <close>:
    37c4:	00050593          	mv	a1,a0
    37c8:	8201a503          	lw	a0,-2016(gp) # 74c4 <_impure_ptr>
    37cc:	4450006f          	j	4410 <_close_r>

000037d0 <_fclose_r>:
    37d0:	ff010113          	add	sp,sp,-16
    37d4:	00112623          	sw	ra,12(sp)
    37d8:	01212023          	sw	s2,0(sp)
    37dc:	0e058263          	beqz	a1,38c0 <_fclose_r+0xf0>
    37e0:	00812423          	sw	s0,8(sp)
    37e4:	00912223          	sw	s1,4(sp)
    37e8:	00058413          	mv	s0,a1
    37ec:	00050493          	mv	s1,a0
    37f0:	00050663          	beqz	a0,37fc <_fclose_r+0x2c>
    37f4:	03452783          	lw	a5,52(a0)
    37f8:	10078063          	beqz	a5,38f8 <_fclose_r+0x128>
    37fc:	06442783          	lw	a5,100(s0)
    3800:	00c41703          	lh	a4,12(s0)
    3804:	0017f793          	and	a5,a5,1
    3808:	0a079663          	bnez	a5,38b4 <_fclose_r+0xe4>
    380c:	20077713          	and	a4,a4,512
    3810:	0e070863          	beqz	a4,3900 <_fclose_r+0x130>
    3814:	00040593          	mv	a1,s0
    3818:	00048513          	mv	a0,s1
    381c:	7f8000ef          	jal	4014 <__sflush_r>
    3820:	02c42783          	lw	a5,44(s0)
    3824:	00050913          	mv	s2,a0
    3828:	00078a63          	beqz	a5,383c <_fclose_r+0x6c>
    382c:	01c42583          	lw	a1,28(s0)
    3830:	00048513          	mv	a0,s1
    3834:	000780e7          	jalr	a5
    3838:	0a054063          	bltz	a0,38d8 <_fclose_r+0x108>
    383c:	00c45783          	lhu	a5,12(s0)
    3840:	0807f793          	and	a5,a5,128
    3844:	0a079263          	bnez	a5,38e8 <_fclose_r+0x118>
    3848:	03042583          	lw	a1,48(s0)
    384c:	00058c63          	beqz	a1,3864 <_fclose_r+0x94>
    3850:	04040793          	add	a5,s0,64
    3854:	00f58663          	beq	a1,a5,3860 <_fclose_r+0x90>
    3858:	00048513          	mv	a0,s1
    385c:	4b0000ef          	jal	3d0c <_free_r>
    3860:	02042823          	sw	zero,48(s0)
    3864:	04442583          	lw	a1,68(s0)
    3868:	00058863          	beqz	a1,3878 <_fclose_r+0xa8>
    386c:	00048513          	mv	a0,s1
    3870:	49c000ef          	jal	3d0c <_free_r>
    3874:	04042223          	sw	zero,68(s0)
    3878:	c6dfe0ef          	jal	24e4 <__sfp_lock_acquire>
    387c:	06442783          	lw	a5,100(s0)
    3880:	00041623          	sh	zero,12(s0)
    3884:	0017f793          	and	a5,a5,1
    3888:	0a078663          	beqz	a5,3934 <_fclose_r+0x164>
    388c:	05842503          	lw	a0,88(s0)
    3890:	f11ff0ef          	jal	37a0 <__retarget_lock_close_recursive>
    3894:	c5dfe0ef          	jal	24f0 <__sfp_lock_release>
    3898:	00c12083          	lw	ra,12(sp)
    389c:	00812403          	lw	s0,8(sp)
    38a0:	00412483          	lw	s1,4(sp)
    38a4:	00090513          	mv	a0,s2
    38a8:	00012903          	lw	s2,0(sp)
    38ac:	01010113          	add	sp,sp,16
    38b0:	00008067          	ret
    38b4:	f60710e3          	bnez	a4,3814 <_fclose_r+0x44>
    38b8:	00812403          	lw	s0,8(sp)
    38bc:	00412483          	lw	s1,4(sp)
    38c0:	00000913          	li	s2,0
    38c4:	00c12083          	lw	ra,12(sp)
    38c8:	00090513          	mv	a0,s2
    38cc:	00012903          	lw	s2,0(sp)
    38d0:	01010113          	add	sp,sp,16
    38d4:	00008067          	ret
    38d8:	00c45783          	lhu	a5,12(s0)
    38dc:	fff00913          	li	s2,-1
    38e0:	0807f793          	and	a5,a5,128
    38e4:	f60782e3          	beqz	a5,3848 <_fclose_r+0x78>
    38e8:	01042583          	lw	a1,16(s0)
    38ec:	00048513          	mv	a0,s1
    38f0:	41c000ef          	jal	3d0c <_free_r>
    38f4:	f55ff06f          	j	3848 <_fclose_r+0x78>
    38f8:	b7dfe0ef          	jal	2474 <__sinit>
    38fc:	f01ff06f          	j	37fc <_fclose_r+0x2c>
    3900:	05842503          	lw	a0,88(s0)
    3904:	ea5ff0ef          	jal	37a8 <__retarget_lock_acquire_recursive>
    3908:	00c41783          	lh	a5,12(s0)
    390c:	f00794e3          	bnez	a5,3814 <_fclose_r+0x44>
    3910:	06442783          	lw	a5,100(s0)
    3914:	0017f793          	and	a5,a5,1
    3918:	fa0790e3          	bnez	a5,38b8 <_fclose_r+0xe8>
    391c:	05842503          	lw	a0,88(s0)
    3920:	00000913          	li	s2,0
    3924:	e9dff0ef          	jal	37c0 <__retarget_lock_release_recursive>
    3928:	00812403          	lw	s0,8(sp)
    392c:	00412483          	lw	s1,4(sp)
    3930:	f95ff06f          	j	38c4 <_fclose_r+0xf4>
    3934:	05842503          	lw	a0,88(s0)
    3938:	e89ff0ef          	jal	37c0 <__retarget_lock_release_recursive>
    393c:	f51ff06f          	j	388c <_fclose_r+0xbc>

00003940 <fclose>:
    3940:	00050593          	mv	a1,a0
    3944:	8201a503          	lw	a0,-2016(gp) # 74c4 <_impure_ptr>
    3948:	e89ff06f          	j	37d0 <_fclose_r>

0000394c <memset>:
    394c:	00f00313          	li	t1,15
    3950:	00050713          	mv	a4,a0
    3954:	02c37e63          	bgeu	t1,a2,3990 <memset+0x44>
    3958:	00f77793          	and	a5,a4,15
    395c:	0a079063          	bnez	a5,39fc <memset+0xb0>
    3960:	08059263          	bnez	a1,39e4 <memset+0x98>
    3964:	ff067693          	and	a3,a2,-16
    3968:	00f67613          	and	a2,a2,15
    396c:	00e686b3          	add	a3,a3,a4
    3970:	00b72023          	sw	a1,0(a4) # ffffe000 <__reset+0xfbffe000>
    3974:	00b72223          	sw	a1,4(a4)
    3978:	00b72423          	sw	a1,8(a4)
    397c:	00b72623          	sw	a1,12(a4)
    3980:	01070713          	add	a4,a4,16
    3984:	fed766e3          	bltu	a4,a3,3970 <memset+0x24>
    3988:	00061463          	bnez	a2,3990 <memset+0x44>
    398c:	00008067          	ret
    3990:	40c306b3          	sub	a3,t1,a2
    3994:	00269693          	sll	a3,a3,0x2
    3998:	00000297          	auipc	t0,0x0
    399c:	005686b3          	add	a3,a3,t0
    39a0:	00c68067          	jr	12(a3)
    39a4:	00b70723          	sb	a1,14(a4)
    39a8:	00b706a3          	sb	a1,13(a4)
    39ac:	00b70623          	sb	a1,12(a4)
    39b0:	00b705a3          	sb	a1,11(a4)
    39b4:	00b70523          	sb	a1,10(a4)
    39b8:	00b704a3          	sb	a1,9(a4)
    39bc:	00b70423          	sb	a1,8(a4)
    39c0:	00b703a3          	sb	a1,7(a4)
    39c4:	00b70323          	sb	a1,6(a4)
    39c8:	00b702a3          	sb	a1,5(a4)
    39cc:	00b70223          	sb	a1,4(a4)
    39d0:	00b701a3          	sb	a1,3(a4)
    39d4:	00b70123          	sb	a1,2(a4)
    39d8:	00b700a3          	sb	a1,1(a4)
    39dc:	00b70023          	sb	a1,0(a4)
    39e0:	00008067          	ret
    39e4:	0ff5f593          	zext.b	a1,a1
    39e8:	00859693          	sll	a3,a1,0x8
    39ec:	00d5e5b3          	or	a1,a1,a3
    39f0:	01059693          	sll	a3,a1,0x10
    39f4:	00d5e5b3          	or	a1,a1,a3
    39f8:	f6dff06f          	j	3964 <memset+0x18>
    39fc:	00279693          	sll	a3,a5,0x2
    3a00:	00000297          	auipc	t0,0x0
    3a04:	005686b3          	add	a3,a3,t0
    3a08:	00008293          	mv	t0,ra
    3a0c:	fa0680e7          	jalr	-96(a3)
    3a10:	00028093          	mv	ra,t0
    3a14:	ff078793          	add	a5,a5,-16
    3a18:	40f70733          	sub	a4,a4,a5
    3a1c:	00f60633          	add	a2,a2,a5
    3a20:	f6c378e3          	bgeu	t1,a2,3990 <memset+0x44>
    3a24:	f3dff06f          	j	3960 <memset+0x14>

00003a28 <memcpy>:
    3a28:	00a5c7b3          	xor	a5,a1,a0
    3a2c:	0037f793          	and	a5,a5,3
    3a30:	00c508b3          	add	a7,a0,a2
    3a34:	06079463          	bnez	a5,3a9c <memcpy+0x74>
    3a38:	00300793          	li	a5,3
    3a3c:	06c7f063          	bgeu	a5,a2,3a9c <memcpy+0x74>
    3a40:	00357793          	and	a5,a0,3
    3a44:	00050713          	mv	a4,a0
    3a48:	06079a63          	bnez	a5,3abc <memcpy+0x94>
    3a4c:	ffc8f613          	and	a2,a7,-4
    3a50:	40e606b3          	sub	a3,a2,a4
    3a54:	02000793          	li	a5,32
    3a58:	08d7ce63          	blt	a5,a3,3af4 <memcpy+0xcc>
    3a5c:	00058693          	mv	a3,a1
    3a60:	00070793          	mv	a5,a4
    3a64:	02c77863          	bgeu	a4,a2,3a94 <memcpy+0x6c>
    3a68:	0006a803          	lw	a6,0(a3)
    3a6c:	00478793          	add	a5,a5,4
    3a70:	00468693          	add	a3,a3,4
    3a74:	ff07ae23          	sw	a6,-4(a5)
    3a78:	fec7e8e3          	bltu	a5,a2,3a68 <memcpy+0x40>
    3a7c:	fff60793          	add	a5,a2,-1
    3a80:	40e787b3          	sub	a5,a5,a4
    3a84:	ffc7f793          	and	a5,a5,-4
    3a88:	00478793          	add	a5,a5,4
    3a8c:	00f70733          	add	a4,a4,a5
    3a90:	00f585b3          	add	a1,a1,a5
    3a94:	01176863          	bltu	a4,a7,3aa4 <memcpy+0x7c>
    3a98:	00008067          	ret
    3a9c:	00050713          	mv	a4,a0
    3aa0:	05157863          	bgeu	a0,a7,3af0 <memcpy+0xc8>
    3aa4:	0005c783          	lbu	a5,0(a1)
    3aa8:	00170713          	add	a4,a4,1
    3aac:	00158593          	add	a1,a1,1
    3ab0:	fef70fa3          	sb	a5,-1(a4)
    3ab4:	fee898e3          	bne	a7,a4,3aa4 <memcpy+0x7c>
    3ab8:	00008067          	ret
    3abc:	0005c683          	lbu	a3,0(a1)
    3ac0:	00170713          	add	a4,a4,1
    3ac4:	00377793          	and	a5,a4,3
    3ac8:	fed70fa3          	sb	a3,-1(a4)
    3acc:	00158593          	add	a1,a1,1
    3ad0:	f6078ee3          	beqz	a5,3a4c <memcpy+0x24>
    3ad4:	0005c683          	lbu	a3,0(a1)
    3ad8:	00170713          	add	a4,a4,1
    3adc:	00377793          	and	a5,a4,3
    3ae0:	fed70fa3          	sb	a3,-1(a4)
    3ae4:	00158593          	add	a1,a1,1
    3ae8:	fc079ae3          	bnez	a5,3abc <memcpy+0x94>
    3aec:	f61ff06f          	j	3a4c <memcpy+0x24>
    3af0:	00008067          	ret
    3af4:	ff010113          	add	sp,sp,-16
    3af8:	00812623          	sw	s0,12(sp)
    3afc:	02000413          	li	s0,32
    3b00:	0005a383          	lw	t2,0(a1)
    3b04:	0045a283          	lw	t0,4(a1)
    3b08:	0085af83          	lw	t6,8(a1)
    3b0c:	00c5af03          	lw	t5,12(a1)
    3b10:	0105ae83          	lw	t4,16(a1)
    3b14:	0145ae03          	lw	t3,20(a1)
    3b18:	0185a303          	lw	t1,24(a1)
    3b1c:	01c5a803          	lw	a6,28(a1)
    3b20:	0205a683          	lw	a3,32(a1)
    3b24:	02470713          	add	a4,a4,36
    3b28:	40e607b3          	sub	a5,a2,a4
    3b2c:	fc772e23          	sw	t2,-36(a4)
    3b30:	fe572023          	sw	t0,-32(a4)
    3b34:	fff72223          	sw	t6,-28(a4)
    3b38:	ffe72423          	sw	t5,-24(a4)
    3b3c:	ffd72623          	sw	t4,-20(a4)
    3b40:	ffc72823          	sw	t3,-16(a4)
    3b44:	fe672a23          	sw	t1,-12(a4)
    3b48:	ff072c23          	sw	a6,-8(a4)
    3b4c:	fed72e23          	sw	a3,-4(a4)
    3b50:	02458593          	add	a1,a1,36
    3b54:	faf446e3          	blt	s0,a5,3b00 <memcpy+0xd8>
    3b58:	00058693          	mv	a3,a1
    3b5c:	00070793          	mv	a5,a4
    3b60:	02c77863          	bgeu	a4,a2,3b90 <memcpy+0x168>
    3b64:	0006a803          	lw	a6,0(a3)
    3b68:	00478793          	add	a5,a5,4
    3b6c:	00468693          	add	a3,a3,4
    3b70:	ff07ae23          	sw	a6,-4(a5)
    3b74:	fec7e8e3          	bltu	a5,a2,3b64 <memcpy+0x13c>
    3b78:	fff60793          	add	a5,a2,-1
    3b7c:	40e787b3          	sub	a5,a5,a4
    3b80:	ffc7f793          	and	a5,a5,-4
    3b84:	00478793          	add	a5,a5,4
    3b88:	00f70733          	add	a4,a4,a5
    3b8c:	00f585b3          	add	a1,a1,a5
    3b90:	01176863          	bltu	a4,a7,3ba0 <memcpy+0x178>
    3b94:	00c12403          	lw	s0,12(sp)
    3b98:	01010113          	add	sp,sp,16
    3b9c:	00008067          	ret
    3ba0:	0005c783          	lbu	a5,0(a1)
    3ba4:	00170713          	add	a4,a4,1
    3ba8:	00158593          	add	a1,a1,1
    3bac:	fef70fa3          	sb	a5,-1(a4)
    3bb0:	fee882e3          	beq	a7,a4,3b94 <memcpy+0x16c>
    3bb4:	0005c783          	lbu	a5,0(a1)
    3bb8:	00170713          	add	a4,a4,1
    3bbc:	00158593          	add	a1,a1,1
    3bc0:	fef70fa3          	sb	a5,-1(a4)
    3bc4:	fce89ee3          	bne	a7,a4,3ba0 <memcpy+0x178>
    3bc8:	fcdff06f          	j	3b94 <memcpy+0x16c>

00003bcc <_malloc_trim_r>:
    3bcc:	fe010113          	add	sp,sp,-32
    3bd0:	00812c23          	sw	s0,24(sp)
    3bd4:	00912a23          	sw	s1,20(sp)
    3bd8:	01212823          	sw	s2,16(sp)
    3bdc:	01312623          	sw	s3,12(sp)
    3be0:	01412423          	sw	s4,8(sp)
    3be4:	00058993          	mv	s3,a1
    3be8:	00112e23          	sw	ra,28(sp)
    3bec:	00050913          	mv	s2,a0
    3bf0:	00003a17          	auipc	s4,0x3
    3bf4:	4aca0a13          	add	s4,s4,1196 # 709c <__malloc_av_>
    3bf8:	b15ff0ef          	jal	370c <__malloc_lock>
    3bfc:	008a2703          	lw	a4,8(s4)
    3c00:	000017b7          	lui	a5,0x1
    3c04:	fef78793          	add	a5,a5,-17 # fef <altera_avalon_jtag_uart_write+0xe3>
    3c08:	00472483          	lw	s1,4(a4)
    3c0c:	00001737          	lui	a4,0x1
    3c10:	ffc4f493          	and	s1,s1,-4
    3c14:	00f48433          	add	s0,s1,a5
    3c18:	41340433          	sub	s0,s0,s3
    3c1c:	00c45413          	srl	s0,s0,0xc
    3c20:	fff40413          	add	s0,s0,-1
    3c24:	00c41413          	sll	s0,s0,0xc
    3c28:	00e44e63          	blt	s0,a4,3c44 <_malloc_trim_r+0x78>
    3c2c:	00000593          	li	a1,0
    3c30:	00090513          	mv	a0,s2
    3c34:	facff0ef          	jal	33e0 <_sbrk_r>
    3c38:	008a2783          	lw	a5,8(s4)
    3c3c:	009787b3          	add	a5,a5,s1
    3c40:	02f50863          	beq	a0,a5,3c70 <_malloc_trim_r+0xa4>
    3c44:	00090513          	mv	a0,s2
    3c48:	ad1ff0ef          	jal	3718 <__malloc_unlock>
    3c4c:	01c12083          	lw	ra,28(sp)
    3c50:	01812403          	lw	s0,24(sp)
    3c54:	01412483          	lw	s1,20(sp)
    3c58:	01012903          	lw	s2,16(sp)
    3c5c:	00c12983          	lw	s3,12(sp)
    3c60:	00812a03          	lw	s4,8(sp)
    3c64:	00000513          	li	a0,0
    3c68:	02010113          	add	sp,sp,32
    3c6c:	00008067          	ret
    3c70:	408005b3          	neg	a1,s0
    3c74:	00090513          	mv	a0,s2
    3c78:	f68ff0ef          	jal	33e0 <_sbrk_r>
    3c7c:	fff00793          	li	a5,-1
    3c80:	04f50a63          	beq	a0,a5,3cd4 <_malloc_trim_r+0x108>
    3c84:	00005717          	auipc	a4,0x5
    3c88:	1e870713          	add	a4,a4,488 # 8e6c <__malloc_current_mallinfo>
    3c8c:	00072783          	lw	a5,0(a4)
    3c90:	008a2683          	lw	a3,8(s4)
    3c94:	408484b3          	sub	s1,s1,s0
    3c98:	0014e493          	or	s1,s1,1
    3c9c:	408787b3          	sub	a5,a5,s0
    3ca0:	00090513          	mv	a0,s2
    3ca4:	0096a223          	sw	s1,4(a3)
    3ca8:	00f72023          	sw	a5,0(a4)
    3cac:	a6dff0ef          	jal	3718 <__malloc_unlock>
    3cb0:	01c12083          	lw	ra,28(sp)
    3cb4:	01812403          	lw	s0,24(sp)
    3cb8:	01412483          	lw	s1,20(sp)
    3cbc:	01012903          	lw	s2,16(sp)
    3cc0:	00c12983          	lw	s3,12(sp)
    3cc4:	00812a03          	lw	s4,8(sp)
    3cc8:	00100513          	li	a0,1
    3ccc:	02010113          	add	sp,sp,32
    3cd0:	00008067          	ret
    3cd4:	00000593          	li	a1,0
    3cd8:	00090513          	mv	a0,s2
    3cdc:	f04ff0ef          	jal	33e0 <_sbrk_r>
    3ce0:	008a2703          	lw	a4,8(s4)
    3ce4:	00f00693          	li	a3,15
    3ce8:	40e507b3          	sub	a5,a0,a4
    3cec:	f4f6dce3          	bge	a3,a5,3c44 <_malloc_trim_r+0x78>
    3cf0:	8241a683          	lw	a3,-2012(gp) # 74c8 <__malloc_sbrk_base>
    3cf4:	40d50533          	sub	a0,a0,a3
    3cf8:	0017e793          	or	a5,a5,1
    3cfc:	00005697          	auipc	a3,0x5
    3d00:	16a6a823          	sw	a0,368(a3) # 8e6c <__malloc_current_mallinfo>
    3d04:	00f72223          	sw	a5,4(a4)
    3d08:	f3dff06f          	j	3c44 <_malloc_trim_r+0x78>

00003d0c <_free_r>:
    3d0c:	18058263          	beqz	a1,3e90 <_free_r+0x184>
    3d10:	ff010113          	add	sp,sp,-16
    3d14:	00812423          	sw	s0,8(sp)
    3d18:	00912223          	sw	s1,4(sp)
    3d1c:	00058413          	mv	s0,a1
    3d20:	00050493          	mv	s1,a0
    3d24:	00112623          	sw	ra,12(sp)
    3d28:	9e5ff0ef          	jal	370c <__malloc_lock>
    3d2c:	ffc42583          	lw	a1,-4(s0)
    3d30:	ff840713          	add	a4,s0,-8
    3d34:	00003517          	auipc	a0,0x3
    3d38:	36850513          	add	a0,a0,872 # 709c <__malloc_av_>
    3d3c:	ffe5f793          	and	a5,a1,-2
    3d40:	00f70633          	add	a2,a4,a5
    3d44:	00462683          	lw	a3,4(a2)
    3d48:	00852803          	lw	a6,8(a0)
    3d4c:	ffc6f693          	and	a3,a3,-4
    3d50:	1ac80263          	beq	a6,a2,3ef4 <_free_r+0x1e8>
    3d54:	00d62223          	sw	a3,4(a2)
    3d58:	0015f593          	and	a1,a1,1
    3d5c:	00d60833          	add	a6,a2,a3
    3d60:	0a059063          	bnez	a1,3e00 <_free_r+0xf4>
    3d64:	ff842303          	lw	t1,-8(s0)
    3d68:	00482583          	lw	a1,4(a6)
    3d6c:	00003897          	auipc	a7,0x3
    3d70:	33888893          	add	a7,a7,824 # 70a4 <__malloc_av_+0x8>
    3d74:	40670733          	sub	a4,a4,t1
    3d78:	00872803          	lw	a6,8(a4)
    3d7c:	006787b3          	add	a5,a5,t1
    3d80:	0015f593          	and	a1,a1,1
    3d84:	15180263          	beq	a6,a7,3ec8 <_free_r+0x1bc>
    3d88:	00c72303          	lw	t1,12(a4)
    3d8c:	00682623          	sw	t1,12(a6)
    3d90:	01032423          	sw	a6,8(t1)
    3d94:	1a058863          	beqz	a1,3f44 <_free_r+0x238>
    3d98:	0017e693          	or	a3,a5,1
    3d9c:	00d72223          	sw	a3,4(a4)
    3da0:	00f62023          	sw	a5,0(a2)
    3da4:	1ff00693          	li	a3,511
    3da8:	06f6ec63          	bltu	a3,a5,3e20 <_free_r+0x114>
    3dac:	ff87f693          	and	a3,a5,-8
    3db0:	00868693          	add	a3,a3,8
    3db4:	00452583          	lw	a1,4(a0)
    3db8:	00d506b3          	add	a3,a0,a3
    3dbc:	0006a603          	lw	a2,0(a3)
    3dc0:	0057d813          	srl	a6,a5,0x5
    3dc4:	00100793          	li	a5,1
    3dc8:	010797b3          	sll	a5,a5,a6
    3dcc:	00b7e7b3          	or	a5,a5,a1
    3dd0:	ff868593          	add	a1,a3,-8
    3dd4:	00b72623          	sw	a1,12(a4)
    3dd8:	00c72423          	sw	a2,8(a4)
    3ddc:	00f52223          	sw	a5,4(a0)
    3de0:	00e6a023          	sw	a4,0(a3)
    3de4:	00e62623          	sw	a4,12(a2)
    3de8:	00812403          	lw	s0,8(sp)
    3dec:	00c12083          	lw	ra,12(sp)
    3df0:	00048513          	mv	a0,s1
    3df4:	00412483          	lw	s1,4(sp)
    3df8:	01010113          	add	sp,sp,16
    3dfc:	91dff06f          	j	3718 <__malloc_unlock>
    3e00:	00482583          	lw	a1,4(a6)
    3e04:	0015f593          	and	a1,a1,1
    3e08:	08058663          	beqz	a1,3e94 <_free_r+0x188>
    3e0c:	0017e693          	or	a3,a5,1
    3e10:	fed42e23          	sw	a3,-4(s0)
    3e14:	00f62023          	sw	a5,0(a2)
    3e18:	1ff00693          	li	a3,511
    3e1c:	f8f6f8e3          	bgeu	a3,a5,3dac <_free_r+0xa0>
    3e20:	0097d693          	srl	a3,a5,0x9
    3e24:	00400613          	li	a2,4
    3e28:	12d66263          	bltu	a2,a3,3f4c <_free_r+0x240>
    3e2c:	0067d693          	srl	a3,a5,0x6
    3e30:	03968593          	add	a1,a3,57
    3e34:	03868613          	add	a2,a3,56
    3e38:	00359593          	sll	a1,a1,0x3
    3e3c:	00b505b3          	add	a1,a0,a1
    3e40:	0005a683          	lw	a3,0(a1)
    3e44:	ff858593          	add	a1,a1,-8
    3e48:	00d59863          	bne	a1,a3,3e58 <_free_r+0x14c>
    3e4c:	1580006f          	j	3fa4 <_free_r+0x298>
    3e50:	0086a683          	lw	a3,8(a3)
    3e54:	00d58863          	beq	a1,a3,3e64 <_free_r+0x158>
    3e58:	0046a603          	lw	a2,4(a3)
    3e5c:	ffc67613          	and	a2,a2,-4
    3e60:	fec7e8e3          	bltu	a5,a2,3e50 <_free_r+0x144>
    3e64:	00c6a583          	lw	a1,12(a3)
    3e68:	00b72623          	sw	a1,12(a4)
    3e6c:	00d72423          	sw	a3,8(a4)
    3e70:	00812403          	lw	s0,8(sp)
    3e74:	00c12083          	lw	ra,12(sp)
    3e78:	00e5a423          	sw	a4,8(a1)
    3e7c:	00048513          	mv	a0,s1
    3e80:	00412483          	lw	s1,4(sp)
    3e84:	00e6a623          	sw	a4,12(a3)
    3e88:	01010113          	add	sp,sp,16
    3e8c:	88dff06f          	j	3718 <__malloc_unlock>
    3e90:	00008067          	ret
    3e94:	00d787b3          	add	a5,a5,a3
    3e98:	00003897          	auipc	a7,0x3
    3e9c:	20c88893          	add	a7,a7,524 # 70a4 <__malloc_av_+0x8>
    3ea0:	00862683          	lw	a3,8(a2)
    3ea4:	0d168e63          	beq	a3,a7,3f80 <_free_r+0x274>
    3ea8:	00c62803          	lw	a6,12(a2)
    3eac:	0017e593          	or	a1,a5,1
    3eb0:	00f70633          	add	a2,a4,a5
    3eb4:	0106a623          	sw	a6,12(a3)
    3eb8:	00d82423          	sw	a3,8(a6)
    3ebc:	00b72223          	sw	a1,4(a4)
    3ec0:	00f62023          	sw	a5,0(a2)
    3ec4:	ee1ff06f          	j	3da4 <_free_r+0x98>
    3ec8:	12059e63          	bnez	a1,4004 <_free_r+0x2f8>
    3ecc:	00862583          	lw	a1,8(a2)
    3ed0:	00c62603          	lw	a2,12(a2)
    3ed4:	00f686b3          	add	a3,a3,a5
    3ed8:	0016e793          	or	a5,a3,1
    3edc:	00c5a623          	sw	a2,12(a1)
    3ee0:	00b62423          	sw	a1,8(a2)
    3ee4:	00f72223          	sw	a5,4(a4)
    3ee8:	00d70733          	add	a4,a4,a3
    3eec:	00d72023          	sw	a3,0(a4)
    3ef0:	ef9ff06f          	j	3de8 <_free_r+0xdc>
    3ef4:	0015f593          	and	a1,a1,1
    3ef8:	00d786b3          	add	a3,a5,a3
    3efc:	02059063          	bnez	a1,3f1c <_free_r+0x210>
    3f00:	ff842583          	lw	a1,-8(s0)
    3f04:	40b70733          	sub	a4,a4,a1
    3f08:	00c72783          	lw	a5,12(a4)
    3f0c:	00872603          	lw	a2,8(a4)
    3f10:	00b686b3          	add	a3,a3,a1
    3f14:	00f62623          	sw	a5,12(a2)
    3f18:	00c7a423          	sw	a2,8(a5)
    3f1c:	0016e793          	or	a5,a3,1
    3f20:	00f72223          	sw	a5,4(a4)
    3f24:	00e52423          	sw	a4,8(a0)
    3f28:	8281a783          	lw	a5,-2008(gp) # 74cc <__malloc_trim_threshold>
    3f2c:	eaf6eee3          	bltu	a3,a5,3de8 <_free_r+0xdc>
    3f30:	00005597          	auipc	a1,0x5
    3f34:	d585a583          	lw	a1,-680(a1) # 8c88 <__malloc_top_pad>
    3f38:	00048513          	mv	a0,s1
    3f3c:	c91ff0ef          	jal	3bcc <_malloc_trim_r>
    3f40:	ea9ff06f          	j	3de8 <_free_r+0xdc>
    3f44:	00d787b3          	add	a5,a5,a3
    3f48:	f59ff06f          	j	3ea0 <_free_r+0x194>
    3f4c:	01400613          	li	a2,20
    3f50:	02d67063          	bgeu	a2,a3,3f70 <_free_r+0x264>
    3f54:	05400613          	li	a2,84
    3f58:	06d66463          	bltu	a2,a3,3fc0 <_free_r+0x2b4>
    3f5c:	00c7d693          	srl	a3,a5,0xc
    3f60:	06f68593          	add	a1,a3,111
    3f64:	06e68613          	add	a2,a3,110
    3f68:	00359593          	sll	a1,a1,0x3
    3f6c:	ed1ff06f          	j	3e3c <_free_r+0x130>
    3f70:	05c68593          	add	a1,a3,92
    3f74:	05b68613          	add	a2,a3,91
    3f78:	00359593          	sll	a1,a1,0x3
    3f7c:	ec1ff06f          	j	3e3c <_free_r+0x130>
    3f80:	00e52a23          	sw	a4,20(a0)
    3f84:	00e52823          	sw	a4,16(a0)
    3f88:	0017e693          	or	a3,a5,1
    3f8c:	01172623          	sw	a7,12(a4)
    3f90:	01172423          	sw	a7,8(a4)
    3f94:	00d72223          	sw	a3,4(a4)
    3f98:	00f70733          	add	a4,a4,a5
    3f9c:	00f72023          	sw	a5,0(a4)
    3fa0:	e49ff06f          	j	3de8 <_free_r+0xdc>
    3fa4:	00452803          	lw	a6,4(a0)
    3fa8:	40265613          	sra	a2,a2,0x2
    3fac:	00100793          	li	a5,1
    3fb0:	00c797b3          	sll	a5,a5,a2
    3fb4:	0107e7b3          	or	a5,a5,a6
    3fb8:	00f52223          	sw	a5,4(a0)
    3fbc:	eadff06f          	j	3e68 <_free_r+0x15c>
    3fc0:	15400613          	li	a2,340
    3fc4:	00d66c63          	bltu	a2,a3,3fdc <_free_r+0x2d0>
    3fc8:	00f7d693          	srl	a3,a5,0xf
    3fcc:	07868593          	add	a1,a3,120
    3fd0:	07768613          	add	a2,a3,119
    3fd4:	00359593          	sll	a1,a1,0x3
    3fd8:	e65ff06f          	j	3e3c <_free_r+0x130>
    3fdc:	55400613          	li	a2,1364
    3fe0:	00d66c63          	bltu	a2,a3,3ff8 <_free_r+0x2ec>
    3fe4:	0127d693          	srl	a3,a5,0x12
    3fe8:	07d68593          	add	a1,a3,125
    3fec:	07c68613          	add	a2,a3,124
    3ff0:	00359593          	sll	a1,a1,0x3
    3ff4:	e49ff06f          	j	3e3c <_free_r+0x130>
    3ff8:	3f800593          	li	a1,1016
    3ffc:	07e00613          	li	a2,126
    4000:	e3dff06f          	j	3e3c <_free_r+0x130>
    4004:	0017e693          	or	a3,a5,1
    4008:	00d72223          	sw	a3,4(a4)
    400c:	00f62023          	sw	a5,0(a2)
    4010:	dd9ff06f          	j	3de8 <_free_r+0xdc>

00004014 <__sflush_r>:
    4014:	00c59703          	lh	a4,12(a1)
    4018:	fe010113          	add	sp,sp,-32
    401c:	00812c23          	sw	s0,24(sp)
    4020:	01312623          	sw	s3,12(sp)
    4024:	00112e23          	sw	ra,28(sp)
    4028:	00877793          	and	a5,a4,8
    402c:	00058413          	mv	s0,a1
    4030:	00050993          	mv	s3,a0
    4034:	12079063          	bnez	a5,4154 <__sflush_r+0x140>
    4038:	000017b7          	lui	a5,0x1
    403c:	80078793          	add	a5,a5,-2048 # 800 <altera_avalon_jtag_uart_init+0x40>
    4040:	0045a683          	lw	a3,4(a1)
    4044:	00f767b3          	or	a5,a4,a5
    4048:	00f59623          	sh	a5,12(a1)
    404c:	18d05263          	blez	a3,41d0 <__sflush_r+0x1bc>
    4050:	02842803          	lw	a6,40(s0)
    4054:	0e080463          	beqz	a6,413c <__sflush_r+0x128>
    4058:	00912a23          	sw	s1,20(sp)
    405c:	01371693          	sll	a3,a4,0x13
    4060:	0009a483          	lw	s1,0(s3)
    4064:	0009a023          	sw	zero,0(s3)
    4068:	01c42583          	lw	a1,28(s0)
    406c:	1606ce63          	bltz	a3,41e8 <__sflush_r+0x1d4>
    4070:	00000613          	li	a2,0
    4074:	00100693          	li	a3,1
    4078:	00098513          	mv	a0,s3
    407c:	000800e7          	jalr	a6
    4080:	fff00793          	li	a5,-1
    4084:	00050613          	mv	a2,a0
    4088:	1af50463          	beq	a0,a5,4230 <__sflush_r+0x21c>
    408c:	00c41783          	lh	a5,12(s0)
    4090:	02842803          	lw	a6,40(s0)
    4094:	01c42583          	lw	a1,28(s0)
    4098:	0047f793          	and	a5,a5,4
    409c:	00078e63          	beqz	a5,40b8 <__sflush_r+0xa4>
    40a0:	00442703          	lw	a4,4(s0)
    40a4:	03042783          	lw	a5,48(s0)
    40a8:	40e60633          	sub	a2,a2,a4
    40ac:	00078663          	beqz	a5,40b8 <__sflush_r+0xa4>
    40b0:	03c42783          	lw	a5,60(s0)
    40b4:	40f60633          	sub	a2,a2,a5
    40b8:	00000693          	li	a3,0
    40bc:	00098513          	mv	a0,s3
    40c0:	000800e7          	jalr	a6
    40c4:	fff00793          	li	a5,-1
    40c8:	12f51463          	bne	a0,a5,41f0 <__sflush_r+0x1dc>
    40cc:	0009a683          	lw	a3,0(s3)
    40d0:	01d00793          	li	a5,29
    40d4:	00c41703          	lh	a4,12(s0)
    40d8:	16d7ea63          	bltu	a5,a3,424c <__sflush_r+0x238>
    40dc:	204007b7          	lui	a5,0x20400
    40e0:	00178793          	add	a5,a5,1 # 20400001 <__reset+0x1c400001>
    40e4:	00d7d7b3          	srl	a5,a5,a3
    40e8:	0017f793          	and	a5,a5,1
    40ec:	16078063          	beqz	a5,424c <__sflush_r+0x238>
    40f0:	01042603          	lw	a2,16(s0)
    40f4:	fffff7b7          	lui	a5,0xfffff
    40f8:	7ff78793          	add	a5,a5,2047 # fffff7ff <__reset+0xfbfff7ff>
    40fc:	00f777b3          	and	a5,a4,a5
    4100:	00f41623          	sh	a5,12(s0)
    4104:	00042223          	sw	zero,4(s0)
    4108:	00c42023          	sw	a2,0(s0)
    410c:	01371793          	sll	a5,a4,0x13
    4110:	0007d463          	bgez	a5,4118 <__sflush_r+0x104>
    4114:	10068263          	beqz	a3,4218 <__sflush_r+0x204>
    4118:	03042583          	lw	a1,48(s0)
    411c:	0099a023          	sw	s1,0(s3)
    4120:	10058463          	beqz	a1,4228 <__sflush_r+0x214>
    4124:	04040793          	add	a5,s0,64
    4128:	00f58663          	beq	a1,a5,4134 <__sflush_r+0x120>
    412c:	00098513          	mv	a0,s3
    4130:	bddff0ef          	jal	3d0c <_free_r>
    4134:	01412483          	lw	s1,20(sp)
    4138:	02042823          	sw	zero,48(s0)
    413c:	00000513          	li	a0,0
    4140:	01c12083          	lw	ra,28(sp)
    4144:	01812403          	lw	s0,24(sp)
    4148:	00c12983          	lw	s3,12(sp)
    414c:	02010113          	add	sp,sp,32
    4150:	00008067          	ret
    4154:	01212823          	sw	s2,16(sp)
    4158:	0105a903          	lw	s2,16(a1)
    415c:	08090263          	beqz	s2,41e0 <__sflush_r+0x1cc>
    4160:	00912a23          	sw	s1,20(sp)
    4164:	0005a483          	lw	s1,0(a1)
    4168:	00377713          	and	a4,a4,3
    416c:	0125a023          	sw	s2,0(a1)
    4170:	412484b3          	sub	s1,s1,s2
    4174:	00000793          	li	a5,0
    4178:	00071463          	bnez	a4,4180 <__sflush_r+0x16c>
    417c:	0145a783          	lw	a5,20(a1)
    4180:	00f42423          	sw	a5,8(s0)
    4184:	00904863          	bgtz	s1,4194 <__sflush_r+0x180>
    4188:	0540006f          	j	41dc <__sflush_r+0x1c8>
    418c:	00a90933          	add	s2,s2,a0
    4190:	04905663          	blez	s1,41dc <__sflush_r+0x1c8>
    4194:	02442783          	lw	a5,36(s0)
    4198:	01c42583          	lw	a1,28(s0)
    419c:	00048693          	mv	a3,s1
    41a0:	00090613          	mv	a2,s2
    41a4:	00098513          	mv	a0,s3
    41a8:	000780e7          	jalr	a5
    41ac:	40a484b3          	sub	s1,s1,a0
    41b0:	fca04ee3          	bgtz	a0,418c <__sflush_r+0x178>
    41b4:	00c41703          	lh	a4,12(s0)
    41b8:	01012903          	lw	s2,16(sp)
    41bc:	04076713          	or	a4,a4,64
    41c0:	01412483          	lw	s1,20(sp)
    41c4:	00e41623          	sh	a4,12(s0)
    41c8:	fff00513          	li	a0,-1
    41cc:	f75ff06f          	j	4140 <__sflush_r+0x12c>
    41d0:	03c5a683          	lw	a3,60(a1)
    41d4:	e6d04ee3          	bgtz	a3,4050 <__sflush_r+0x3c>
    41d8:	f65ff06f          	j	413c <__sflush_r+0x128>
    41dc:	01412483          	lw	s1,20(sp)
    41e0:	01012903          	lw	s2,16(sp)
    41e4:	f59ff06f          	j	413c <__sflush_r+0x128>
    41e8:	05042603          	lw	a2,80(s0)
    41ec:	eadff06f          	j	4098 <__sflush_r+0x84>
    41f0:	00c41703          	lh	a4,12(s0)
    41f4:	01042683          	lw	a3,16(s0)
    41f8:	fffff7b7          	lui	a5,0xfffff
    41fc:	7ff78793          	add	a5,a5,2047 # fffff7ff <__reset+0xfbfff7ff>
    4200:	00f777b3          	and	a5,a4,a5
    4204:	00f41623          	sh	a5,12(s0)
    4208:	00042223          	sw	zero,4(s0)
    420c:	00d42023          	sw	a3,0(s0)
    4210:	01371793          	sll	a5,a4,0x13
    4214:	f007d2e3          	bgez	a5,4118 <__sflush_r+0x104>
    4218:	03042583          	lw	a1,48(s0)
    421c:	04a42823          	sw	a0,80(s0)
    4220:	0099a023          	sw	s1,0(s3)
    4224:	f00590e3          	bnez	a1,4124 <__sflush_r+0x110>
    4228:	01412483          	lw	s1,20(sp)
    422c:	f11ff06f          	j	413c <__sflush_r+0x128>
    4230:	0009a783          	lw	a5,0(s3)
    4234:	e4078ce3          	beqz	a5,408c <__sflush_r+0x78>
    4238:	01d00713          	li	a4,29
    423c:	00e78c63          	beq	a5,a4,4254 <__sflush_r+0x240>
    4240:	01600713          	li	a4,22
    4244:	00e78863          	beq	a5,a4,4254 <__sflush_r+0x240>
    4248:	00c41703          	lh	a4,12(s0)
    424c:	04076713          	or	a4,a4,64
    4250:	f71ff06f          	j	41c0 <__sflush_r+0x1ac>
    4254:	0099a023          	sw	s1,0(s3)
    4258:	01412483          	lw	s1,20(sp)
    425c:	ee1ff06f          	j	413c <__sflush_r+0x128>

00004260 <_fflush_r>:
    4260:	ff010113          	add	sp,sp,-16
    4264:	00812423          	sw	s0,8(sp)
    4268:	00912223          	sw	s1,4(sp)
    426c:	00112623          	sw	ra,12(sp)
    4270:	01212023          	sw	s2,0(sp)
    4274:	00050493          	mv	s1,a0
    4278:	00058413          	mv	s0,a1
    427c:	00050663          	beqz	a0,4288 <_fflush_r+0x28>
    4280:	03452783          	lw	a5,52(a0)
    4284:	0a078a63          	beqz	a5,4338 <_fflush_r+0xd8>
    4288:	00c41783          	lh	a5,12(s0)
    428c:	00000913          	li	s2,0
    4290:	04078063          	beqz	a5,42d0 <_fflush_r+0x70>
    4294:	06442703          	lw	a4,100(s0)
    4298:	00177713          	and	a4,a4,1
    429c:	00071663          	bnez	a4,42a8 <_fflush_r+0x48>
    42a0:	2007f793          	and	a5,a5,512
    42a4:	04078463          	beqz	a5,42ec <_fflush_r+0x8c>
    42a8:	00040593          	mv	a1,s0
    42ac:	00048513          	mv	a0,s1
    42b0:	d65ff0ef          	jal	4014 <__sflush_r>
    42b4:	06442783          	lw	a5,100(s0)
    42b8:	00050913          	mv	s2,a0
    42bc:	0017f793          	and	a5,a5,1
    42c0:	00079863          	bnez	a5,42d0 <_fflush_r+0x70>
    42c4:	00c45783          	lhu	a5,12(s0)
    42c8:	2007f793          	and	a5,a5,512
    42cc:	04078463          	beqz	a5,4314 <_fflush_r+0xb4>
    42d0:	00c12083          	lw	ra,12(sp)
    42d4:	00812403          	lw	s0,8(sp)
    42d8:	00412483          	lw	s1,4(sp)
    42dc:	00090513          	mv	a0,s2
    42e0:	00012903          	lw	s2,0(sp)
    42e4:	01010113          	add	sp,sp,16
    42e8:	00008067          	ret
    42ec:	05842503          	lw	a0,88(s0)
    42f0:	cb8ff0ef          	jal	37a8 <__retarget_lock_acquire_recursive>
    42f4:	00040593          	mv	a1,s0
    42f8:	00048513          	mv	a0,s1
    42fc:	d19ff0ef          	jal	4014 <__sflush_r>
    4300:	06442783          	lw	a5,100(s0)
    4304:	00050913          	mv	s2,a0
    4308:	0017f793          	and	a5,a5,1
    430c:	fc0792e3          	bnez	a5,42d0 <_fflush_r+0x70>
    4310:	fb5ff06f          	j	42c4 <_fflush_r+0x64>
    4314:	05842503          	lw	a0,88(s0)
    4318:	ca8ff0ef          	jal	37c0 <__retarget_lock_release_recursive>
    431c:	00c12083          	lw	ra,12(sp)
    4320:	00812403          	lw	s0,8(sp)
    4324:	00412483          	lw	s1,4(sp)
    4328:	00090513          	mv	a0,s2
    432c:	00012903          	lw	s2,0(sp)
    4330:	01010113          	add	sp,sp,16
    4334:	00008067          	ret
    4338:	93cfe0ef          	jal	2474 <__sinit>
    433c:	f4dff06f          	j	4288 <_fflush_r+0x28>

00004340 <fflush>:
    4340:	0a050a63          	beqz	a0,43f4 <fflush+0xb4>
    4344:	ff010113          	add	sp,sp,-16
    4348:	00812423          	sw	s0,8(sp)
    434c:	01212023          	sw	s2,0(sp)
    4350:	00112623          	sw	ra,12(sp)
    4354:	00912223          	sw	s1,4(sp)
    4358:	8201a903          	lw	s2,-2016(gp) # 74c4 <_impure_ptr>
    435c:	00050413          	mv	s0,a0
    4360:	00090663          	beqz	s2,436c <fflush+0x2c>
    4364:	03492783          	lw	a5,52(s2)
    4368:	06078463          	beqz	a5,43d0 <fflush+0x90>
    436c:	00c41783          	lh	a5,12(s0)
    4370:	00000493          	li	s1,0
    4374:	04078063          	beqz	a5,43b4 <fflush+0x74>
    4378:	06442703          	lw	a4,100(s0)
    437c:	00177713          	and	a4,a4,1
    4380:	00071663          	bnez	a4,438c <fflush+0x4c>
    4384:	2007f793          	and	a5,a5,512
    4388:	04078a63          	beqz	a5,43dc <fflush+0x9c>
    438c:	00040593          	mv	a1,s0
    4390:	00090513          	mv	a0,s2
    4394:	c81ff0ef          	jal	4014 <__sflush_r>
    4398:	06442783          	lw	a5,100(s0)
    439c:	00050493          	mv	s1,a0
    43a0:	0017f793          	and	a5,a5,1
    43a4:	00079863          	bnez	a5,43b4 <fflush+0x74>
    43a8:	00c45783          	lhu	a5,12(s0)
    43ac:	2007f793          	and	a5,a5,512
    43b0:	02078c63          	beqz	a5,43e8 <fflush+0xa8>
    43b4:	00c12083          	lw	ra,12(sp)
    43b8:	00812403          	lw	s0,8(sp)
    43bc:	00012903          	lw	s2,0(sp)
    43c0:	00048513          	mv	a0,s1
    43c4:	00412483          	lw	s1,4(sp)
    43c8:	01010113          	add	sp,sp,16
    43cc:	00008067          	ret
    43d0:	00090513          	mv	a0,s2
    43d4:	8a0fe0ef          	jal	2474 <__sinit>
    43d8:	f95ff06f          	j	436c <fflush+0x2c>
    43dc:	05842503          	lw	a0,88(s0)
    43e0:	bc8ff0ef          	jal	37a8 <__retarget_lock_acquire_recursive>
    43e4:	fa9ff06f          	j	438c <fflush+0x4c>
    43e8:	05842503          	lw	a0,88(s0)
    43ec:	bd4ff0ef          	jal	37c0 <__retarget_lock_release_recursive>
    43f0:	fc5ff06f          	j	43b4 <fflush+0x74>
    43f4:	00003617          	auipc	a2,0x3
    43f8:	c9c60613          	add	a2,a2,-868 # 7090 <__sglue>
    43fc:	00000597          	auipc	a1,0x0
    4400:	e6458593          	add	a1,a1,-412 # 4260 <_fflush_r>
    4404:	00003517          	auipc	a0,0x3
    4408:	b6c50513          	add	a0,a0,-1172 # 6f70 <_impure_data>
    440c:	c54fe06f          	j	2860 <_fwalk_sglue>

00004410 <_close_r>:
    4410:	ff010113          	add	sp,sp,-16
    4414:	00812423          	sw	s0,8(sp)
    4418:	00050413          	mv	s0,a0
    441c:	00058513          	mv	a0,a1
    4420:	00005797          	auipc	a5,0x5
    4424:	8407ac23          	sw	zero,-1960(a5) # 8c78 <errno>
    4428:	00112623          	sw	ra,12(sp)
    442c:	2ec000ef          	jal	4718 <_close>
    4430:	fff00793          	li	a5,-1
    4434:	00f50a63          	beq	a0,a5,4448 <_close_r+0x38>
    4438:	00c12083          	lw	ra,12(sp)
    443c:	00812403          	lw	s0,8(sp)
    4440:	01010113          	add	sp,sp,16
    4444:	00008067          	ret
    4448:	00005797          	auipc	a5,0x5
    444c:	8307a783          	lw	a5,-2000(a5) # 8c78 <errno>
    4450:	fe0784e3          	beqz	a5,4438 <_close_r+0x28>
    4454:	00c12083          	lw	ra,12(sp)
    4458:	00f42023          	sw	a5,0(s0)
    445c:	00812403          	lw	s0,8(sp)
    4460:	01010113          	add	sp,sp,16
    4464:	00008067          	ret

00004468 <_fstat_r>:
    4468:	ff010113          	add	sp,sp,-16
    446c:	00058713          	mv	a4,a1
    4470:	00812423          	sw	s0,8(sp)
    4474:	00060593          	mv	a1,a2
    4478:	00050413          	mv	s0,a0
    447c:	00070513          	mv	a0,a4
    4480:	00004797          	auipc	a5,0x4
    4484:	7e07ac23          	sw	zero,2040(a5) # 8c78 <errno>
    4488:	00112623          	sw	ra,12(sp)
    448c:	3f0000ef          	jal	487c <_fstat>
    4490:	fff00793          	li	a5,-1
    4494:	00f50a63          	beq	a0,a5,44a8 <_fstat_r+0x40>
    4498:	00c12083          	lw	ra,12(sp)
    449c:	00812403          	lw	s0,8(sp)
    44a0:	01010113          	add	sp,sp,16
    44a4:	00008067          	ret
    44a8:	00004797          	auipc	a5,0x4
    44ac:	7d07a783          	lw	a5,2000(a5) # 8c78 <errno>
    44b0:	fe0784e3          	beqz	a5,4498 <_fstat_r+0x30>
    44b4:	00c12083          	lw	ra,12(sp)
    44b8:	00f42023          	sw	a5,0(s0)
    44bc:	00812403          	lw	s0,8(sp)
    44c0:	01010113          	add	sp,sp,16
    44c4:	00008067          	ret

000044c8 <_isatty_r>:
    44c8:	ff010113          	add	sp,sp,-16
    44cc:	00812423          	sw	s0,8(sp)
    44d0:	00050413          	mv	s0,a0
    44d4:	00058513          	mv	a0,a1
    44d8:	00004797          	auipc	a5,0x4
    44dc:	7a07a023          	sw	zero,1952(a5) # 8c78 <errno>
    44e0:	00112623          	sw	ra,12(sp)
    44e4:	49c000ef          	jal	4980 <_isatty>
    44e8:	fff00793          	li	a5,-1
    44ec:	00f50a63          	beq	a0,a5,4500 <_isatty_r+0x38>
    44f0:	00c12083          	lw	ra,12(sp)
    44f4:	00812403          	lw	s0,8(sp)
    44f8:	01010113          	add	sp,sp,16
    44fc:	00008067          	ret
    4500:	00004797          	auipc	a5,0x4
    4504:	7787a783          	lw	a5,1912(a5) # 8c78 <errno>
    4508:	fe0784e3          	beqz	a5,44f0 <_isatty_r+0x28>
    450c:	00c12083          	lw	ra,12(sp)
    4510:	00f42023          	sw	a5,0(s0)
    4514:	00812403          	lw	s0,8(sp)
    4518:	01010113          	add	sp,sp,16
    451c:	00008067          	ret

00004520 <_lseek_r>:
    4520:	ff010113          	add	sp,sp,-16
    4524:	00058713          	mv	a4,a1
    4528:	00812423          	sw	s0,8(sp)
    452c:	00060593          	mv	a1,a2
    4530:	00050413          	mv	s0,a0
    4534:	00068613          	mv	a2,a3
    4538:	00070513          	mv	a0,a4
    453c:	00004797          	auipc	a5,0x4
    4540:	7207ae23          	sw	zero,1852(a5) # 8c78 <errno>
    4544:	00112623          	sw	ra,12(sp)
    4548:	578000ef          	jal	4ac0 <_lseek>
    454c:	fff00793          	li	a5,-1
    4550:	00f50a63          	beq	a0,a5,4564 <_lseek_r+0x44>
    4554:	00c12083          	lw	ra,12(sp)
    4558:	00812403          	lw	s0,8(sp)
    455c:	01010113          	add	sp,sp,16
    4560:	00008067          	ret
    4564:	00004797          	auipc	a5,0x4
    4568:	7147a783          	lw	a5,1812(a5) # 8c78 <errno>
    456c:	fe0784e3          	beqz	a5,4554 <_lseek_r+0x34>
    4570:	00c12083          	lw	ra,12(sp)
    4574:	00f42023          	sw	a5,0(s0)
    4578:	00812403          	lw	s0,8(sp)
    457c:	01010113          	add	sp,sp,16
    4580:	00008067          	ret

00004584 <_read_r>:
    4584:	ff010113          	add	sp,sp,-16
    4588:	00058713          	mv	a4,a1
    458c:	00812423          	sw	s0,8(sp)
    4590:	00060593          	mv	a1,a2
    4594:	00050413          	mv	s0,a0
    4598:	00068613          	mv	a2,a3
    459c:	00070513          	mv	a0,a4
    45a0:	00004797          	auipc	a5,0x4
    45a4:	6c07ac23          	sw	zero,1752(a5) # 8c78 <errno>
    45a8:	00112623          	sw	ra,12(sp)
    45ac:	0cd000ef          	jal	4e78 <_read>
    45b0:	fff00793          	li	a5,-1
    45b4:	00f50a63          	beq	a0,a5,45c8 <_read_r+0x44>
    45b8:	00c12083          	lw	ra,12(sp)
    45bc:	00812403          	lw	s0,8(sp)
    45c0:	01010113          	add	sp,sp,16
    45c4:	00008067          	ret
    45c8:	00004797          	auipc	a5,0x4
    45cc:	6b07a783          	lw	a5,1712(a5) # 8c78 <errno>
    45d0:	fe0784e3          	beqz	a5,45b8 <_read_r+0x34>
    45d4:	00c12083          	lw	ra,12(sp)
    45d8:	00f42023          	sw	a5,0(s0)
    45dc:	00812403          	lw	s0,8(sp)
    45e0:	01010113          	add	sp,sp,16
    45e4:	00008067          	ret

000045e8 <__register_exitproc>:
    45e8:	fe010113          	add	sp,sp,-32
    45ec:	01212823          	sw	s2,16(sp)
    45f0:	82c18913          	add	s2,gp,-2004 # 74d0 <__atexit_recursive_mutex>
    45f4:	00812c23          	sw	s0,24(sp)
    45f8:	00050413          	mv	s0,a0
    45fc:	00092503          	lw	a0,0(s2)
    4600:	00912a23          	sw	s1,20(sp)
    4604:	01312623          	sw	s3,12(sp)
    4608:	01412423          	sw	s4,8(sp)
    460c:	00112e23          	sw	ra,28(sp)
    4610:	00058493          	mv	s1,a1
    4614:	00060a13          	mv	s4,a2
    4618:	00068993          	mv	s3,a3
    461c:	98cff0ef          	jal	37a8 <__retarget_lock_acquire_recursive>
    4620:	00004717          	auipc	a4,0x4
    4624:	66c70713          	add	a4,a4,1644 # 8c8c <__atexit>
    4628:	00072783          	lw	a5,0(a4)
    462c:	08078663          	beqz	a5,46b8 <__register_exitproc+0xd0>
    4630:	0047a703          	lw	a4,4(a5)
    4634:	01f00593          	li	a1,31
    4638:	00092503          	lw	a0,0(s2)
    463c:	08e5c663          	blt	a1,a4,46c8 <__register_exitproc+0xe0>
    4640:	00271593          	sll	a1,a4,0x2
    4644:	02041e63          	bnez	s0,4680 <__register_exitproc+0x98>
    4648:	00170713          	add	a4,a4,1
    464c:	00e7a223          	sw	a4,4(a5)
    4650:	00b787b3          	add	a5,a5,a1
    4654:	0097a423          	sw	s1,8(a5)
    4658:	968ff0ef          	jal	37c0 <__retarget_lock_release_recursive>
    465c:	00000513          	li	a0,0
    4660:	01c12083          	lw	ra,28(sp)
    4664:	01812403          	lw	s0,24(sp)
    4668:	01412483          	lw	s1,20(sp)
    466c:	01012903          	lw	s2,16(sp)
    4670:	00c12983          	lw	s3,12(sp)
    4674:	00812a03          	lw	s4,8(sp)
    4678:	02010113          	add	sp,sp,32
    467c:	00008067          	ret
    4680:	00b78833          	add	a6,a5,a1
    4684:	09482423          	sw	s4,136(a6)
    4688:	1887a683          	lw	a3,392(a5)
    468c:	00100613          	li	a2,1
    4690:	00e61633          	sll	a2,a2,a4
    4694:	00c6e6b3          	or	a3,a3,a2
    4698:	18d7a423          	sw	a3,392(a5)
    469c:	11382423          	sw	s3,264(a6)
    46a0:	00200693          	li	a3,2
    46a4:	fad412e3          	bne	s0,a3,4648 <__register_exitproc+0x60>
    46a8:	18c7a683          	lw	a3,396(a5)
    46ac:	00c6e6b3          	or	a3,a3,a2
    46b0:	18d7a623          	sw	a3,396(a5)
    46b4:	f95ff06f          	j	4648 <__register_exitproc+0x60>
    46b8:	00004797          	auipc	a5,0x4
    46bc:	7dc78793          	add	a5,a5,2012 # 8e94 <__atexit0>
    46c0:	00f72023          	sw	a5,0(a4)
    46c4:	f6dff06f          	j	4630 <__register_exitproc+0x48>
    46c8:	8f8ff0ef          	jal	37c0 <__retarget_lock_release_recursive>
    46cc:	fff00513          	li	a0,-1
    46d0:	f91ff06f          	j	4660 <__register_exitproc+0x78>

000046d4 <alt_get_errno>:
  if (fd)
  {
    /*
     * If the associated file system/device has a close function, call it so 
     * that any necessary cleanup code can run.
     */
    46d4:	ff010113          	add	sp,sp,-16
    46d8:	00112623          	sw	ra,12(sp)
    46dc:	00812423          	sw	s0,8(sp)
    46e0:	01010413          	add	s0,sp,16

    46e4:	8141a783          	lw	a5,-2028(gp) # 74b8 <alt_errno>
    46e8:	00078a63          	beqz	a5,46fc <alt_get_errno+0x28>
    46ec:	8141a783          	lw	a5,-2028(gp) # 74b8 <alt_errno>
    46f0:	000780e7          	jalr	a5
    46f4:	00050793          	mv	a5,a0
    46f8:	00c0006f          	j	4704 <alt_get_errno+0x30>
    46fc:	000097b7          	lui	a5,0x9
    4700:	c7878793          	add	a5,a5,-904 # 8c78 <errno>
    rval = (fd->dev->close) ? fd->dev->close(fd) : 0;
    4704:	00078513          	mv	a0,a5
    4708:	00c12083          	lw	ra,12(sp)
    470c:	00812403          	lw	s0,8(sp)
    4710:	01010113          	add	sp,sp,16
    4714:	00008067          	ret

00004718 <_close>:
{
    4718:	fd010113          	add	sp,sp,-48
    471c:	02112623          	sw	ra,44(sp)
    4720:	02812423          	sw	s0,40(sp)
    4724:	03010413          	add	s0,sp,48
    4728:	fca42e23          	sw	a0,-36(s0)
  fd = (fildes < 0) ? NULL : &alt_fd_list[fildes];
    472c:	fdc42783          	lw	a5,-36(s0)
    4730:	0207c463          	bltz	a5,4758 <_close+0x40>
    4734:	fdc42703          	lw	a4,-36(s0)
    4738:	00070793          	mv	a5,a4
    473c:	00179793          	sll	a5,a5,0x1
    4740:	00e787b3          	add	a5,a5,a4
    4744:	00279793          	sll	a5,a5,0x2
    4748:	00007737          	lui	a4,0x7
    474c:	df070713          	add	a4,a4,-528 # 6df0 <alt_fd_list>
    4750:	00e787b3          	add	a5,a5,a4
    4754:	0080006f          	j	475c <_close+0x44>
    4758:	00000793          	li	a5,0
    475c:	fef42423          	sw	a5,-24(s0)
  if (fd)
    4760:	fe842783          	lw	a5,-24(s0)
    4764:	06078663          	beqz	a5,47d0 <_close+0xb8>
    rval = (fd->dev->close) ? fd->dev->close(fd) : 0;
    4768:	fe842783          	lw	a5,-24(s0)
    476c:	0007a783          	lw	a5,0(a5)
    4770:	0107a783          	lw	a5,16(a5)
    4774:	02078063          	beqz	a5,4794 <_close+0x7c>
    4778:	fe842783          	lw	a5,-24(s0)
    477c:	0007a783          	lw	a5,0(a5)
    4780:	0107a783          	lw	a5,16(a5)
    4784:	fe842503          	lw	a0,-24(s0)
    4788:	000780e7          	jalr	a5
    478c:	00050793          	mv	a5,a0
    4790:	0080006f          	j	4798 <_close+0x80>
    4794:	00000793          	li	a5,0
    4798:	fef42623          	sw	a5,-20(s0)

    /* Free the file descriptor structure and return. */

    alt_release_fd (fildes);
    479c:	fdc42503          	lw	a0,-36(s0)
    47a0:	98cfd0ef          	jal	192c <alt_release_fd>
    if (rval < 0)
    47a4:	fec42783          	lw	a5,-20(s0)
    47a8:	0207d063          	bgez	a5,47c8 <_close+0xb0>
    {
      ALT_ERRNO = -rval;
    47ac:	f29ff0ef          	jal	46d4 <alt_get_errno>
    47b0:	00050713          	mv	a4,a0
    47b4:	fec42783          	lw	a5,-20(s0)
    47b8:	40f007b3          	neg	a5,a5
    47bc:	00f72023          	sw	a5,0(a4)
      return -1;
    47c0:	fff00793          	li	a5,-1
    47c4:	0200006f          	j	47e4 <_close+0xcc>
    }
    return 0;
    47c8:	00000793          	li	a5,0
    47cc:	0180006f          	j	47e4 <_close+0xcc>
  }
  else
  {
    ALT_ERRNO = EBADFD;
    47d0:	f05ff0ef          	jal	46d4 <alt_get_errno>
    47d4:	00050713          	mv	a4,a0
    47d8:	05100793          	li	a5,81
    47dc:	00f72023          	sw	a5,0(a4)
    return -1;
    47e0:	fff00793          	li	a5,-1
  }
}
    47e4:	00078513          	mv	a0,a5
    47e8:	02c12083          	lw	ra,44(sp)
    47ec:	02812403          	lw	s0,40(sp)
    47f0:	03010113          	add	sp,sp,48
    47f4:	00008067          	ret

000047f8 <_exit>:
 *
 * ALT_EXIT is mapped onto the _exit() system call in alt_syscall.h
 */

void ALT_EXIT (int exit_code)
{
    47f8:	fd010113          	add	sp,sp,-48
    47fc:	02812623          	sw	s0,44(sp)
    4800:	03010413          	add	s0,sp,48
    4804:	fca42e23          	sw	a0,-36(s0)
  ALT_LOG_PRINT_BOOT("[alt_exit.c] Entering _exit() function.\r\n");
  ALT_LOG_PRINT_BOOT("[alt_exit.c] Exit code from main was %d.\r\n",exit_code);
  /* Stop all other threads */

  ALT_LOG_PRINT_BOOT("[alt_exit.c] Calling ALT_OS_STOP().\r\n");
  ALT_OS_STOP();
    4808:	00000013          	nop
    480c:	fdc42783          	lw	a5,-36(s0)
    4810:	fef42623          	sw	a5,-20(s0)
 * Routine called on exit.
 * TODO: Add support for GMON/gprof.
 */
static ALT_INLINE ALT_ALWAYS_INLINE void alt_sim_halt(int exit_code)
{
  register int a0 asm ("a0") = exit_code;
    4814:	fec42503          	lw	a0,-20(s0)
    "ebreak" 
    : 
    : "r"(a0), "r"(a1));

#else /* !DEBUG_STUB */
  if (a0) {
    4818:	00050793          	mv	a5,a0
    481c:	00078663          	beqz	a5,4828 <_exit+0x30>
    ALT_SIM_FAIL();
    4820:	7c103013          	sltiu	zero,zero,1985
  } else {
    ALT_SIM_PASS();
  }
#endif /* DEBUG_STUB */
}
    4824:	0080006f          	j	482c <_exit+0x34>
    ALT_SIM_PASS();
    4828:	7c203013          	sltiu	zero,zero,1986
}
    482c:	00000013          	nop
  ALT_SIM_HALT(exit_code);

  /* spin forever, since there's no where to go back to */

  ALT_LOG_PRINT_BOOT("[alt_exit.c] Spinning forever.\r\n");
  while (1);
    4830:	00000013          	nop
    4834:	ffdff06f          	j	4830 <_exit+0x38>

00004838 <alt_get_errno>:
    case 2: /* stderr file descriptor */
        st->st_mode = _IFCHR;
        return 0;
#endif /* ALT_STDERR_PRESENT */        
    default:
        return -1;
    4838:	ff010113          	add	sp,sp,-16
    483c:	00112623          	sw	ra,12(sp)
    4840:	00812423          	sw	s0,8(sp)
    4844:	01010413          	add	s0,sp,16
    }
    4848:	8141a783          	lw	a5,-2028(gp) # 74b8 <alt_errno>
    484c:	00078a63          	beqz	a5,4860 <alt_get_errno+0x28>
    4850:	8141a783          	lw	a5,-2028(gp) # 74b8 <alt_errno>
    4854:	000780e7          	jalr	a5
    4858:	00050793          	mv	a5,a0
    485c:	00c0006f          	j	4868 <alt_get_errno+0x30>
    4860:	000097b7          	lui	a5,0x9
    4864:	c7878793          	add	a5,a5,-904 # 8c78 <errno>

    4868:	00078513          	mv	a0,a5
    486c:	00c12083          	lw	ra,12(sp)
    4870:	00812403          	lw	s0,8(sp)
    4874:	01010113          	add	sp,sp,16
    4878:	00008067          	ret

0000487c <_fstat>:
}

#else /* !ALT_USE_DIRECT_DRIVERS */

int ALT_FSTAT (int file, struct stat *st)
{
    487c:	fd010113          	add	sp,sp,-48
    4880:	02112623          	sw	ra,44(sp)
    4884:	02812423          	sw	s0,40(sp)
    4888:	03010413          	add	s0,sp,48
    488c:	fca42e23          	sw	a0,-36(s0)
    4890:	fcb42c23          	sw	a1,-40(s0)
   * A common error case is that when the file descriptor was created, the call
   * to open() failed resulting in a negative file descriptor. This is trapped
   * below so that we don't try and process an invalid file descriptor.
   */

  fd = (file < 0) ? NULL : &alt_fd_list[file];
    4894:	fdc42783          	lw	a5,-36(s0)
    4898:	0207c463          	bltz	a5,48c0 <_fstat+0x44>
    489c:	fdc42703          	lw	a4,-36(s0)
    48a0:	00070793          	mv	a5,a4
    48a4:	00179793          	sll	a5,a5,0x1
    48a8:	00e787b3          	add	a5,a5,a4
    48ac:	00279793          	sll	a5,a5,0x2
    48b0:	00007737          	lui	a4,0x7
    48b4:	df070713          	add	a4,a4,-528 # 6df0 <alt_fd_list>
    48b8:	00e787b3          	add	a5,a5,a4
    48bc:	0080006f          	j	48c4 <_fstat+0x48>
    48c0:	00000793          	li	a5,0
    48c4:	fef42623          	sw	a5,-20(s0)
  
  if (fd)
    48c8:	fec42783          	lw	a5,-20(s0)
    48cc:	04078463          	beqz	a5,4914 <_fstat+0x98>
  {
    /* Call the drivers fstat() function to fill out the "st" structure. */

    if (fd->dev->fstat)
    48d0:	fec42783          	lw	a5,-20(s0)
    48d4:	0007a783          	lw	a5,0(a5)
    48d8:	0207a783          	lw	a5,32(a5)
    48dc:	02078263          	beqz	a5,4900 <_fstat+0x84>
    {
      return fd->dev->fstat(fd, st);
    48e0:	fec42783          	lw	a5,-20(s0)
    48e4:	0007a783          	lw	a5,0(a5)
    48e8:	0207a783          	lw	a5,32(a5)
    48ec:	fd842583          	lw	a1,-40(s0)
    48f0:	fec42503          	lw	a0,-20(s0)
    48f4:	000780e7          	jalr	a5
    48f8:	00050793          	mv	a5,a0
    48fc:	02c0006f          	j	4928 <_fstat+0xac>
     * device.
     */
 
    else
    {
      st->st_mode = _IFCHR;
    4900:	fd842783          	lw	a5,-40(s0)
    4904:	00002737          	lui	a4,0x2
    4908:	00e7a223          	sw	a4,4(a5)
      return 0;
    490c:	00000793          	li	a5,0
    4910:	0180006f          	j	4928 <_fstat+0xac>
    }
  }
  else
  {
    ALT_ERRNO = EBADFD;
    4914:	f25ff0ef          	jal	4838 <alt_get_errno>
    4918:	00050713          	mv	a4,a0
    491c:	05100793          	li	a5,81
    4920:	00f72023          	sw	a5,0(a4) # 2000 <_reclaim_reent+0x64>
    return -1;
    4924:	fff00793          	li	a5,-1
  }
}
    4928:	00078513          	mv	a0,a5
    492c:	02c12083          	lw	ra,44(sp)
    4930:	02812403          	lw	s0,40(sp)
    4934:	03010113          	add	sp,sp,48
    4938:	00008067          	ret

0000493c <alt_get_errno>:
 * isatty() can be used to determine whether the input file descriptor "file" 
 * refers to a terminal device or not. If it is a terminal device then the
 * return value is one, otherwise it is zero.  
 *
 * ALT_ISATTY is mapped onto the isatty() system call in alt_syscall.h
 */
    493c:	ff010113          	add	sp,sp,-16
    4940:	00112623          	sw	ra,12(sp)
    4944:	00812423          	sw	s0,8(sp)
    4948:	01010413          	add	s0,sp,16
 
    494c:	8141a783          	lw	a5,-2028(gp) # 74b8 <alt_errno>
    4950:	00078a63          	beqz	a5,4964 <alt_get_errno+0x28>
    4954:	8141a783          	lw	a5,-2028(gp) # 74b8 <alt_errno>
    4958:	000780e7          	jalr	a5
    495c:	00050793          	mv	a5,a0
    4960:	00c0006f          	j	496c <alt_get_errno+0x30>
    4964:	000097b7          	lui	a5,0x9
    4968:	c7878793          	add	a5,a5,-904 # 8c78 <errno>
int ALT_ISATTY (int file)
    496c:	00078513          	mv	a0,a5
    4970:	00c12083          	lw	ra,12(sp)
    4974:	00812403          	lw	s0,8(sp)
    4978:	01010113          	add	sp,sp,16
    497c:	00008067          	ret

00004980 <_isatty>:
{
    4980:	f7010113          	add	sp,sp,-144
    4984:	08112623          	sw	ra,140(sp)
    4988:	08812423          	sw	s0,136(sp)
    498c:	09010413          	add	s0,sp,144
    4990:	f6a42e23          	sw	a0,-132(s0)
    4994:	000097b7          	lui	a5,0x9
    4998:	cb07a703          	lw	a4,-848(a5) # 8cb0 <__stack_chk_guard>
    499c:	fee42623          	sw	a4,-20(s0)
    49a0:	00000713          	li	a4,0
  alt_fd*     fd;
  struct stat stat;
  
  stat.st_mode=0;  /* misrac compliance */
    49a4:	f8042a23          	sw	zero,-108(s0)
   * A common error case is that when the file descriptor was created, the call
   * to open() failed resulting in a negative file descriptor. This is trapped
   * below so that we don't try and process an invalid file descriptor.
   */

  fd = (file < 0) ? NULL : &alt_fd_list[file];
    49a8:	f7c42783          	lw	a5,-132(s0)
    49ac:	0207c463          	bltz	a5,49d4 <_isatty+0x54>
    49b0:	f7c42703          	lw	a4,-132(s0)
    49b4:	00070793          	mv	a5,a4
    49b8:	00179793          	sll	a5,a5,0x1
    49bc:	00e787b3          	add	a5,a5,a4
    49c0:	00279793          	sll	a5,a5,0x2
    49c4:	00007737          	lui	a4,0x7
    49c8:	df070713          	add	a4,a4,-528 # 6df0 <alt_fd_list>
    49cc:	00e787b3          	add	a5,a5,a4
    49d0:	0080006f          	j	49d8 <_isatty+0x58>
    49d4:	00000793          	li	a5,0
    49d8:	f8f42623          	sw	a5,-116(s0)
  
  if (fd)
    49dc:	f8c42783          	lw	a5,-116(s0)
    49e0:	04078a63          	beqz	a5,4a34 <_isatty+0xb4>
    /*
     * If a device driver does not provide an fstat() function, then it is 
     * treated as a terminal device by default.
     */

    if (!fd->dev->fstat)
    49e4:	f8c42783          	lw	a5,-116(s0)
    49e8:	0007a783          	lw	a5,0(a5)
    49ec:	0207a783          	lw	a5,32(a5)
    49f0:	00079663          	bnez	a5,49fc <_isatty+0x7c>
    {
      return 1;
    49f4:	00100793          	li	a5,1
    49f8:	0500006f          	j	4a48 <_isatty+0xc8>
     * this is called so that the device can identify itself.
     */ 

    else
    {
      if (fstat (file, &stat) < 0)
    49fc:	f9040793          	add	a5,s0,-112
    4a00:	00078593          	mv	a1,a5
    4a04:	f7c42503          	lw	a0,-132(s0)
    4a08:	351000ef          	jal	5558 <fstat>
    4a0c:	00050793          	mv	a5,a0
    4a10:	0007d663          	bgez	a5,4a1c <_isatty+0x9c>
        return 0;  // fstat will set ERRNO
    4a14:	00000793          	li	a5,0
    4a18:	0300006f          	j	4a48 <_isatty+0xc8>
      else
        return (stat.st_mode == _IFCHR) ? 1 : 0;
    4a1c:	f9442703          	lw	a4,-108(s0)
    4a20:	ffffe7b7          	lui	a5,0xffffe
    4a24:	00f707b3          	add	a5,a4,a5
    4a28:	0017b793          	seqz	a5,a5
    4a2c:	0ff7f793          	zext.b	a5,a5
    4a30:	0180006f          	j	4a48 <_isatty+0xc8>
    }
  }
  else
  {
    ALT_ERRNO = EBADFD;
    4a34:	f09ff0ef          	jal	493c <alt_get_errno>
    4a38:	00050713          	mv	a4,a0
    4a3c:	05100793          	li	a5,81
    4a40:	00f72023          	sw	a5,0(a4)
    return 0;
    4a44:	00000793          	li	a5,0
  }
}
    4a48:	00078713          	mv	a4,a5
    4a4c:	000097b7          	lui	a5,0x9
    4a50:	fec42683          	lw	a3,-20(s0)
    4a54:	cb07a783          	lw	a5,-848(a5) # 8cb0 <__stack_chk_guard>
    4a58:	00f6c7b3          	xor	a5,a3,a5
    4a5c:	00000693          	li	a3,0
    4a60:	00078463          	beqz	a5,4a68 <_isatty+0xe8>
    4a64:	235000ef          	jal	5498 <__stack_chk_fail>
    4a68:	00070513          	mv	a0,a4
    4a6c:	08c12083          	lw	ra,140(sp)
    4a70:	08812403          	lw	s0,136(sp)
    4a74:	09010113          	add	sp,sp,144
    4a78:	00008067          	ret

00004a7c <alt_get_errno>:
   * to open() failed resulting in a negative file descriptor. This is trapped
   * below so that we don't try and process an invalid file descriptor.
   */

  fd = (file < 0) ? NULL : &alt_fd_list[file];
  
    4a7c:	ff010113          	add	sp,sp,-16
    4a80:	00112623          	sw	ra,12(sp)
    4a84:	00812423          	sw	s0,8(sp)
    4a88:	01010413          	add	s0,sp,16
  if (fd) 
    4a8c:	8141a783          	lw	a5,-2028(gp) # 74b8 <alt_errno>
    4a90:	00078a63          	beqz	a5,4aa4 <alt_get_errno+0x28>
    4a94:	8141a783          	lw	a5,-2028(gp) # 74b8 <alt_errno>
    4a98:	000780e7          	jalr	a5
    4a9c:	00050793          	mv	a5,a0
    4aa0:	00c0006f          	j	4aac <alt_get_errno+0x30>
    4aa4:	000097b7          	lui	a5,0x9
    4aa8:	c7878793          	add	a5,a5,-904 # 8c78 <errno>
  {
    4aac:	00078513          	mv	a0,a5
    4ab0:	00c12083          	lw	ra,12(sp)
    4ab4:	00812403          	lw	s0,8(sp)
    4ab8:	01010113          	add	sp,sp,16
    4abc:	00008067          	ret

00004ac0 <_lseek>:
{
    4ac0:	fd010113          	add	sp,sp,-48
    4ac4:	02112623          	sw	ra,44(sp)
    4ac8:	02812423          	sw	s0,40(sp)
    4acc:	03010413          	add	s0,sp,48
    4ad0:	fca42e23          	sw	a0,-36(s0)
    4ad4:	fcb42c23          	sw	a1,-40(s0)
    4ad8:	fcc42a23          	sw	a2,-44(s0)
  off_t   rc = 0; 
    4adc:	fe042423          	sw	zero,-24(s0)
  fd = (file < 0) ? NULL : &alt_fd_list[file];
    4ae0:	fdc42783          	lw	a5,-36(s0)
    4ae4:	0207c463          	bltz	a5,4b0c <_lseek+0x4c>
    4ae8:	fdc42703          	lw	a4,-36(s0)
    4aec:	00070793          	mv	a5,a4
    4af0:	00179793          	sll	a5,a5,0x1
    4af4:	00e787b3          	add	a5,a5,a4
    4af8:	00279793          	sll	a5,a5,0x2
    4afc:	00007737          	lui	a4,0x7
    4b00:	df070713          	add	a4,a4,-528 # 6df0 <alt_fd_list>
    4b04:	00e787b3          	add	a5,a5,a4
    4b08:	0080006f          	j	4b10 <_lseek+0x50>
    4b0c:	00000793          	li	a5,0
    4b10:	fef42623          	sw	a5,-20(s0)
  if (fd) 
    4b14:	fec42783          	lw	a5,-20(s0)
    4b18:	04078263          	beqz	a5,4b5c <_lseek+0x9c>
    /*
     * If the device driver provides an implementation of the lseek() function,
     * then call that to process the request.
     */
 
    if (fd->dev->lseek)
    4b1c:	fec42783          	lw	a5,-20(s0)
    4b20:	0007a783          	lw	a5,0(a5)
    4b24:	01c7a783          	lw	a5,28(a5)
    4b28:	02078463          	beqz	a5,4b50 <_lseek+0x90>
    {
      rc = fd->dev->lseek(fd, ptr, dir);
    4b2c:	fec42783          	lw	a5,-20(s0)
    4b30:	0007a783          	lw	a5,0(a5)
    4b34:	01c7a783          	lw	a5,28(a5)
    4b38:	fd442603          	lw	a2,-44(s0)
    4b3c:	fd842583          	lw	a1,-40(s0)
    4b40:	fec42503          	lw	a0,-20(s0)
    4b44:	000780e7          	jalr	a5
    4b48:	fea42423          	sw	a0,-24(s0)
    4b4c:	0180006f          	j	4b64 <_lseek+0xa4>
     * Otherwise return an error.
     */

    else
    {
      rc = -ENOTSUP;
    4b50:	f7a00793          	li	a5,-134
    4b54:	fef42423          	sw	a5,-24(s0)
    4b58:	00c0006f          	j	4b64 <_lseek+0xa4>
    }
  }
  else  
  {
    rc = -EBADFD;
    4b5c:	faf00793          	li	a5,-81
    4b60:	fef42423          	sw	a5,-24(s0)
  }

  if (rc < 0)
    4b64:	fe842783          	lw	a5,-24(s0)
    4b68:	0207d063          	bgez	a5,4b88 <_lseek+0xc8>
  {
    ALT_ERRNO = -rc;
    4b6c:	f11ff0ef          	jal	4a7c <alt_get_errno>
    4b70:	00050713          	mv	a4,a0
    4b74:	fe842783          	lw	a5,-24(s0)
    4b78:	40f007b3          	neg	a5,a5
    4b7c:	00f72023          	sw	a5,0(a4)
    rc = -1;
    4b80:	fff00793          	li	a5,-1
    4b84:	fef42423          	sw	a5,-24(s0)
  }

  return rc;
    4b88:	fe842783          	lw	a5,-24(s0)
}
    4b8c:	00078513          	mv	a0,a5
    4b90:	02c12083          	lw	ra,44(sp)
    4b94:	02812403          	lw	s0,40(sp)
    4b98:	03010113          	add	sp,sp,48
    4b9c:	00008067          	ret

00004ba0 <alt_get_errno>:
   */

  for (i = 0; i <= alt_max_fd; i++)
  {
    if ((alt_fd_list[i].dev == fd->dev) &&
        (alt_fd_list[i].fd_flags & ALT_FD_EXCL) &&
    4ba0:	ff010113          	add	sp,sp,-16
    4ba4:	00112623          	sw	ra,12(sp)
    4ba8:	00812423          	sw	s0,8(sp)
    4bac:	01010413          	add	s0,sp,16
        (&alt_fd_list[i] != fd))
    4bb0:	8141a783          	lw	a5,-2028(gp) # 74b8 <alt_errno>
    4bb4:	00078a63          	beqz	a5,4bc8 <alt_get_errno+0x28>
    4bb8:	8141a783          	lw	a5,-2028(gp) # 74b8 <alt_errno>
    4bbc:	000780e7          	jalr	a5
    4bc0:	00050793          	mv	a5,a0
    4bc4:	00c0006f          	j	4bd0 <alt_get_errno+0x30>
    4bc8:	000097b7          	lui	a5,0x9
    4bcc:	c7878793          	add	a5,a5,-904 # 8c78 <errno>
    {
    4bd0:	00078513          	mv	a0,a5
    4bd4:	00c12083          	lw	ra,12(sp)
    4bd8:	00812403          	lw	s0,8(sp)
    4bdc:	01010113          	add	sp,sp,16
    4be0:	00008067          	ret

00004be4 <alt_file_locked>:
{
    4be4:	fd010113          	add	sp,sp,-48
    4be8:	02812623          	sw	s0,44(sp)
    4bec:	03010413          	add	s0,sp,48
    4bf0:	fca42e23          	sw	a0,-36(s0)
  fd->fd_flags |= ALT_FD_DEV;
    4bf4:	fdc42783          	lw	a5,-36(s0)
    4bf8:	0087a703          	lw	a4,8(a5)
    4bfc:	400007b7          	lui	a5,0x40000
    4c00:	00f76733          	or	a4,a4,a5
    4c04:	fdc42783          	lw	a5,-36(s0)
    4c08:	00e7a423          	sw	a4,8(a5) # 40000008 <__reset+0x3c000008>
  for (i = 0; i <= alt_max_fd; i++)
    4c0c:	fe042623          	sw	zero,-20(s0)
    4c10:	0980006f          	j	4ca8 <alt_file_locked+0xc4>
    if ((alt_fd_list[i].dev == fd->dev) &&
    4c14:	000077b7          	lui	a5,0x7
    4c18:	df078693          	add	a3,a5,-528 # 6df0 <alt_fd_list>
    4c1c:	fec42703          	lw	a4,-20(s0)
    4c20:	00070793          	mv	a5,a4
    4c24:	00179793          	sll	a5,a5,0x1
    4c28:	00e787b3          	add	a5,a5,a4
    4c2c:	00279793          	sll	a5,a5,0x2
    4c30:	00f687b3          	add	a5,a3,a5
    4c34:	0007a703          	lw	a4,0(a5)
    4c38:	fdc42783          	lw	a5,-36(s0)
    4c3c:	0007a783          	lw	a5,0(a5)
    4c40:	04f71e63          	bne	a4,a5,4c9c <alt_file_locked+0xb8>
        (alt_fd_list[i].fd_flags & ALT_FD_EXCL) &&
    4c44:	000077b7          	lui	a5,0x7
    4c48:	df078693          	add	a3,a5,-528 # 6df0 <alt_fd_list>
    4c4c:	fec42703          	lw	a4,-20(s0)
    4c50:	00070793          	mv	a5,a4
    4c54:	00179793          	sll	a5,a5,0x1
    4c58:	00e787b3          	add	a5,a5,a4
    4c5c:	00279793          	sll	a5,a5,0x2
    4c60:	00f687b3          	add	a5,a3,a5
    4c64:	0087a783          	lw	a5,8(a5)
    if ((alt_fd_list[i].dev == fd->dev) &&
    4c68:	0207da63          	bgez	a5,4c9c <alt_file_locked+0xb8>
        (&alt_fd_list[i] != fd))
    4c6c:	fec42703          	lw	a4,-20(s0)
    4c70:	00070793          	mv	a5,a4
    4c74:	00179793          	sll	a5,a5,0x1
    4c78:	00e787b3          	add	a5,a5,a4
    4c7c:	00279793          	sll	a5,a5,0x2
    4c80:	00007737          	lui	a4,0x7
    4c84:	df070713          	add	a4,a4,-528 # 6df0 <alt_fd_list>
    4c88:	00e787b3          	add	a5,a5,a4
        (alt_fd_list[i].fd_flags & ALT_FD_EXCL) &&
    4c8c:	fdc42703          	lw	a4,-36(s0)
    4c90:	00f70663          	beq	a4,a5,4c9c <alt_file_locked+0xb8>
      return -EACCES;
    4c94:	ff300793          	li	a5,-13
    4c98:	0240006f          	j	4cbc <alt_file_locked+0xd8>
  for (i = 0; i <= alt_max_fd; i++)
    4c9c:	fec42783          	lw	a5,-20(s0)
    4ca0:	00178793          	add	a5,a5,1
    4ca4:	fef42623          	sw	a5,-20(s0)
    4ca8:	8101a783          	lw	a5,-2032(gp) # 74b4 <alt_max_fd>
    4cac:	00078713          	mv	a4,a5
    4cb0:	fec42783          	lw	a5,-20(s0)
    4cb4:	f6f770e3          	bgeu	a4,a5,4c14 <alt_file_locked+0x30>
    }
  }
  
  /* The device is not locked */
 
  return 0;
    4cb8:	00000793          	li	a5,0
}
    4cbc:	00078513          	mv	a0,a5
    4cc0:	02c12403          	lw	s0,44(sp)
    4cc4:	03010113          	add	sp,sp,48
    4cc8:	00008067          	ret

00004ccc <_open>:
 *
 * ALT_OPEN is mapped onto the open() system call in alt_syscall.h
 */
 
int ALT_OPEN (const char* file, int flags, int mode)
{ 
    4ccc:	fc010113          	add	sp,sp,-64
    4cd0:	02112e23          	sw	ra,60(sp)
    4cd4:	02812c23          	sw	s0,56(sp)
    4cd8:	04010413          	add	s0,sp,64
    4cdc:	fca42623          	sw	a0,-52(s0)
    4ce0:	fcb42423          	sw	a1,-56(s0)
    4ce4:	fcc42223          	sw	a2,-60(s0)
  alt_dev* dev;
  alt_fd*  fd;
  int index  = -1;
    4ce8:	fff00793          	li	a5,-1
    4cec:	fef42023          	sw	a5,-32(s0)
  int status = -ENODEV;
    4cf0:	fed00793          	li	a5,-19
    4cf4:	fef42223          	sw	a5,-28(s0)
  int isafs = 0;
    4cf8:	fe042423          	sw	zero,-24(s0)
  /* 
   * Check the device list, to see if a device with a matching name is 
   * registered.
   */
  
  if (!(dev = alt_find_dev (file, &alt_dev_list)))
    4cfc:	000077b7          	lui	a5,0x7
    4d00:	4ac78593          	add	a1,a5,1196 # 74ac <alt_dev_list>
    4d04:	fcc42503          	lw	a0,-52(s0)
    4d08:	474000ef          	jal	517c <alt_find_dev>
    4d0c:	fca42e23          	sw	a0,-36(s0)
    4d10:	fdc42783          	lw	a5,-36(s0)
    4d14:	00079c63          	bnez	a5,4d2c <_open+0x60>
  {
    /* No matching device, so try the filesystem list */

    dev   = alt_find_file (file);
    4d18:	fcc42503          	lw	a0,-52(s0)
    4d1c:	580000ef          	jal	529c <alt_find_file>
    4d20:	fca42e23          	sw	a0,-36(s0)
    isafs = 1;
    4d24:	00100793          	li	a5,1
    4d28:	fef42423          	sw	a5,-24(s0)

  /* 
   * If a matching device or filesystem is found, allocate a file descriptor. 
   */

  if (dev)
    4d2c:	fdc42783          	lw	a5,-36(s0)
    4d30:	0a078c63          	beqz	a5,4de8 <_open+0x11c>
  {
    if ((index = alt_get_fd (dev)) < 0)
    4d34:	fdc42503          	lw	a0,-36(s0)
    4d38:	6a0000ef          	jal	53d8 <alt_get_fd>
    4d3c:	fea42023          	sw	a0,-32(s0)
    4d40:	fe042783          	lw	a5,-32(s0)
    4d44:	0007d863          	bgez	a5,4d54 <_open+0x88>
    {
      status = index;
    4d48:	fe042783          	lw	a5,-32(s0)
    4d4c:	fef42223          	sw	a5,-28(s0)
    4d50:	0a00006f          	j	4df0 <_open+0x124>
    }
    else
    {
      fd = &alt_fd_list[index];
    4d54:	fe042703          	lw	a4,-32(s0)
    4d58:	00070793          	mv	a5,a4
    4d5c:	00179793          	sll	a5,a5,0x1
    4d60:	00e787b3          	add	a5,a5,a4
    4d64:	00279793          	sll	a5,a5,0x2
    4d68:	00007737          	lui	a4,0x7
    4d6c:	df070713          	add	a4,a4,-528 # 6df0 <alt_fd_list>
    4d70:	00e787b3          	add	a5,a5,a4
    4d74:	fef42623          	sw	a5,-20(s0)
      fd->fd_flags = (flags & ~ALT_FD_FLAGS_MASK);
    4d78:	fc842703          	lw	a4,-56(s0)
    4d7c:	400007b7          	lui	a5,0x40000
    4d80:	fff78793          	add	a5,a5,-1 # 3fffffff <__reset+0x3bffffff>
    4d84:	00f77733          	and	a4,a4,a5
    4d88:	fec42783          	lw	a5,-20(s0)
    4d8c:	00e7a423          	sw	a4,8(a5)
      
      /* If this is a device, ensure it isn't already locked */

      if (isafs || ((status = alt_file_locked (fd)) >= 0))
    4d90:	fe842783          	lw	a5,-24(s0)
    4d94:	00079c63          	bnez	a5,4dac <_open+0xe0>
    4d98:	fec42503          	lw	a0,-20(s0)
    4d9c:	e49ff0ef          	jal	4be4 <alt_file_locked>
    4da0:	fea42223          	sw	a0,-28(s0)
    4da4:	fe442783          	lw	a5,-28(s0)
    4da8:	0407c463          	bltz	a5,4df0 <_open+0x124>
        /* 
         * If the device or filesystem provides an open() callback function,
         * call it now to perform any device/filesystem specific operations.
         */
    
        status = (dev->open) ? dev->open(fd, file, flags, mode): 0;
    4dac:	fdc42783          	lw	a5,-36(s0)
    4db0:	00c7a783          	lw	a5,12(a5)
    4db4:	02078463          	beqz	a5,4ddc <_open+0x110>
    4db8:	fdc42783          	lw	a5,-36(s0)
    4dbc:	00c7a783          	lw	a5,12(a5)
    4dc0:	fc442683          	lw	a3,-60(s0)
    4dc4:	fc842603          	lw	a2,-56(s0)
    4dc8:	fcc42583          	lw	a1,-52(s0)
    4dcc:	fec42503          	lw	a0,-20(s0)
    4dd0:	000780e7          	jalr	a5
    4dd4:	00050793          	mv	a5,a0
    4dd8:	0080006f          	j	4de0 <_open+0x114>
    4ddc:	00000793          	li	a5,0
    4de0:	fef42223          	sw	a5,-28(s0)
    4de4:	00c0006f          	j	4df0 <_open+0x124>
      }
    }
  }
  else
  {
    status = -ENODEV;
    4de8:	fed00793          	li	a5,-19
    4dec:	fef42223          	sw	a5,-28(s0)
  }

  /* Allocation failed, so clean up and return an error */ 

  if (status < 0)
    4df0:	fe442783          	lw	a5,-28(s0)
    4df4:	0207d463          	bgez	a5,4e1c <_open+0x150>
  {
    alt_release_fd (index);  
    4df8:	fe042503          	lw	a0,-32(s0)
    4dfc:	b31fc0ef          	jal	192c <alt_release_fd>
    ALT_ERRNO = -status;
    4e00:	da1ff0ef          	jal	4ba0 <alt_get_errno>
    4e04:	00050713          	mv	a4,a0
    4e08:	fe442783          	lw	a5,-28(s0)
    4e0c:	40f007b3          	neg	a5,a5
    4e10:	00f72023          	sw	a5,0(a4)
    return -1;
    4e14:	fff00793          	li	a5,-1
    4e18:	0080006f          	j	4e20 <_open+0x154>
  }
  
  /* return the reference upon success */

  return index;
    4e1c:	fe042783          	lw	a5,-32(s0)
}
    4e20:	00078513          	mv	a0,a5
    4e24:	03c12083          	lw	ra,60(sp)
    4e28:	03812403          	lw	s0,56(sp)
    4e2c:	04010113          	add	sp,sp,64
    4e30:	00008067          	ret

00004e34 <alt_get_errno>:
    }
}

#else /* !ALT_USE_DIRECT_DRIVERS */

int ALT_READ (int file, void *ptr, size_t len)
    4e34:	ff010113          	add	sp,sp,-16
    4e38:	00112623          	sw	ra,12(sp)
    4e3c:	00812423          	sw	s0,8(sp)
    4e40:	01010413          	add	s0,sp,16
{
    4e44:	8141a783          	lw	a5,-2028(gp) # 74b8 <alt_errno>
    4e48:	00078a63          	beqz	a5,4e5c <alt_get_errno+0x28>
    4e4c:	8141a783          	lw	a5,-2028(gp) # 74b8 <alt_errno>
    4e50:	000780e7          	jalr	a5
    4e54:	00050793          	mv	a5,a0
    4e58:	00c0006f          	j	4e64 <alt_get_errno+0x30>
    4e5c:	000097b7          	lui	a5,0x9
    4e60:	c7878793          	add	a5,a5,-904 # 8c78 <errno>
  alt_fd*  fd;
    4e64:	00078513          	mv	a0,a5
    4e68:	00c12083          	lw	ra,12(sp)
    4e6c:	00812403          	lw	s0,8(sp)
    4e70:	01010113          	add	sp,sp,16
    4e74:	00008067          	ret

00004e78 <_read>:
{
    4e78:	fd010113          	add	sp,sp,-48
    4e7c:	02112623          	sw	ra,44(sp)
    4e80:	02812423          	sw	s0,40(sp)
    4e84:	03010413          	add	s0,sp,48
    4e88:	fca42e23          	sw	a0,-36(s0)
    4e8c:	fcb42c23          	sw	a1,-40(s0)
    4e90:	fcc42a23          	sw	a2,-44(s0)
   * A common error case is that when the file descriptor was created, the call
   * to open() failed resulting in a negative file descriptor. This is trapped
   * below so that we don't try and process an invalid file descriptor.
   */

  fd = (file < 0) ? NULL : &alt_fd_list[file];
    4e94:	fdc42783          	lw	a5,-36(s0)
    4e98:	0207c463          	bltz	a5,4ec0 <_read+0x48>
    4e9c:	fdc42703          	lw	a4,-36(s0)
    4ea0:	00070793          	mv	a5,a4
    4ea4:	00179793          	sll	a5,a5,0x1
    4ea8:	00e787b3          	add	a5,a5,a4
    4eac:	00279793          	sll	a5,a5,0x2
    4eb0:	00007737          	lui	a4,0x7
    4eb4:	df070713          	add	a4,a4,-528 # 6df0 <alt_fd_list>
    4eb8:	00e787b3          	add	a5,a5,a4
    4ebc:	0080006f          	j	4ec4 <_read+0x4c>
    4ec0:	00000793          	li	a5,0
    4ec4:	fef42423          	sw	a5,-24(s0)
  
  if (fd)
    4ec8:	fe842783          	lw	a5,-24(s0)
    4ecc:	08078663          	beqz	a5,4f58 <_read+0xe0>
     * If the file has not been opened with read access, or if the driver does
     * not provide an implementation of read(), generate an error. Otherwise
     * call the drivers read() function to process the request.
     */

    if (((fd->fd_flags & O_ACCMODE) != O_WRONLY) && 
    4ed0:	fe842783          	lw	a5,-24(s0)
    4ed4:	0087a783          	lw	a5,8(a5)
    4ed8:	0037f713          	and	a4,a5,3
    4edc:	00100793          	li	a5,1
    4ee0:	06f70263          	beq	a4,a5,4f44 <_read+0xcc>
        (fd->dev->read))
    4ee4:	fe842783          	lw	a5,-24(s0)
    4ee8:	0007a783          	lw	a5,0(a5)
    4eec:	0147a783          	lw	a5,20(a5)
    if (((fd->fd_flags & O_ACCMODE) != O_WRONLY) && 
    4ef0:	04078a63          	beqz	a5,4f44 <_read+0xcc>
      {
        if ((rval = fd->dev->read(fd, ptr, len)) < 0)
    4ef4:	fe842783          	lw	a5,-24(s0)
    4ef8:	0007a783          	lw	a5,0(a5)
    4efc:	0147a783          	lw	a5,20(a5)
    4f00:	fd442703          	lw	a4,-44(s0)
    4f04:	00070613          	mv	a2,a4
    4f08:	fd842583          	lw	a1,-40(s0)
    4f0c:	fe842503          	lw	a0,-24(s0)
    4f10:	000780e7          	jalr	a5
    4f14:	fea42623          	sw	a0,-20(s0)
    4f18:	fec42783          	lw	a5,-20(s0)
    4f1c:	0207d063          	bgez	a5,4f3c <_read+0xc4>
        {
          ALT_ERRNO = -rval;
    4f20:	f15ff0ef          	jal	4e34 <alt_get_errno>
    4f24:	00050713          	mv	a4,a0
    4f28:	fec42783          	lw	a5,-20(s0)
    4f2c:	40f007b3          	neg	a5,a5
    4f30:	00f72023          	sw	a5,0(a4)
          return -1;
    4f34:	fff00793          	li	a5,-1
    4f38:	0340006f          	j	4f6c <_read+0xf4>
        }
        return rval;
    4f3c:	fec42783          	lw	a5,-20(s0)
    4f40:	02c0006f          	j	4f6c <_read+0xf4>
      }
      else
      {
        ALT_ERRNO = EACCES;
    4f44:	ef1ff0ef          	jal	4e34 <alt_get_errno>
    4f48:	00050713          	mv	a4,a0
    4f4c:	00d00793          	li	a5,13
    4f50:	00f72023          	sw	a5,0(a4)
    4f54:	0140006f          	j	4f68 <_read+0xf0>
      }
    }
  else
  {
    ALT_ERRNO = EBADFD;
    4f58:	eddff0ef          	jal	4e34 <alt_get_errno>
    4f5c:	00050713          	mv	a4,a0
    4f60:	05100793          	li	a5,81
    4f64:	00f72023          	sw	a5,0(a4)
  }
  return -1;
    4f68:	fff00793          	li	a5,-1
}
    4f6c:	00078513          	mv	a0,a5
    4f70:	02c12083          	lw	ra,44(sp)
    4f74:	02812403          	lw	s0,40(sp)
    4f78:	03010113          	add	sp,sp,48
    4f7c:	00008067          	ret

00004f80 <_sbrk>:
#endif
 
caddr_t ALT_SBRK (int incr) __attribute__ ((no_instrument_function ));

caddr_t ALT_SBRK (int incr)
{ 
    4f80:	fc010113          	add	sp,sp,-64
    4f84:	02812e23          	sw	s0,60(sp)
    4f88:	04010413          	add	s0,sp,64
    4f8c:	fca42623          	sw	a0,-52(s0)
    NIOSV_READ_AND_CLR_CSR(NIOSV_MSTATUS_CSR, context, NIOSV_MSTATUS_MIE_MASK);
    4f90:	00800793          	li	a5,8
    4f94:	3007b7f3          	csrrc	a5,mstatus,a5
    4f98:	fef42223          	sw	a5,-28(s0)
    return context;
    4f9c:	fe442783          	lw	a5,-28(s0)
  alt_irq_context context;
  char *prev_heap_end; 

  context = alt_irq_disable_all();
    4fa0:	fcf42e23          	sw	a5,-36(s0)

  /* Always return data aligned on a word boundary */
  heap_end = (char *)(((unsigned int)heap_end + 3) & ~3);
    4fa4:	8301a783          	lw	a5,-2000(gp) # 74d4 <heap_end>
    4fa8:	00378793          	add	a5,a5,3
    4fac:	ffc7f793          	and	a5,a5,-4
    4fb0:	00078713          	mv	a4,a5
    4fb4:	82e1a823          	sw	a4,-2000(gp) # 74d4 <heap_end>
  if (((heap_end + incr) - __alt_heap_start) > ALT_MAX_HEAP_BYTES) {
    alt_irq_enable_all(context);
    return (caddr_t)-1;
  }
#else
  if ((heap_end + incr) > __alt_heap_limit) {
    4fb8:	8301a703          	lw	a4,-2000(gp) # 74d4 <heap_end>
    4fbc:	fcc42783          	lw	a5,-52(s0)
    4fc0:	00f70733          	add	a4,a4,a5
    4fc4:	040007b7          	lui	a5,0x4000
    4fc8:	00078793          	mv	a5,a5
    4fcc:	02e7f263          	bgeu	a5,a4,4ff0 <_sbrk+0x70>
    4fd0:	fdc42783          	lw	a5,-36(s0)
    4fd4:	fef42423          	sw	a5,-24(s0)
    NIOSV_SET_CSR(NIOSV_MSTATUS_CSR, context & NIOSV_MSTATUS_MIE_MASK);
    4fd8:	fe842783          	lw	a5,-24(s0)
    4fdc:	0087f793          	and	a5,a5,8
    4fe0:	3007a073          	csrs	mstatus,a5
}
    4fe4:	00000013          	nop
    alt_irq_enable_all(context);
    return (caddr_t)-1;
    4fe8:	fff00793          	li	a5,-1
    4fec:	0380006f          	j	5024 <_sbrk+0xa4>
  }
#endif

  prev_heap_end = heap_end; 
    4ff0:	8301a783          	lw	a5,-2000(gp) # 74d4 <heap_end>
    4ff4:	fef42023          	sw	a5,-32(s0)
  heap_end += incr; 
    4ff8:	8301a703          	lw	a4,-2000(gp) # 74d4 <heap_end>
    4ffc:	fcc42783          	lw	a5,-52(s0)
    5000:	00f70733          	add	a4,a4,a5
    5004:	82e1a823          	sw	a4,-2000(gp) # 74d4 <heap_end>
    5008:	fdc42783          	lw	a5,-36(s0)
    500c:	fef42623          	sw	a5,-20(s0)
    NIOSV_SET_CSR(NIOSV_MSTATUS_CSR, context & NIOSV_MSTATUS_MIE_MASK);
    5010:	fec42783          	lw	a5,-20(s0)
    5014:	0087f793          	and	a5,a5,8
    5018:	3007a073          	csrs	mstatus,a5
}
    501c:	00000013          	nop

#endif

  alt_irq_enable_all(context);

  return (caddr_t) prev_heap_end; 
    5020:	fe042783          	lw	a5,-32(s0)
}
    5024:	00078513          	mv	a0,a5
    5028:	03c12403          	lw	s0,60(sp)
    502c:	04010113          	add	sp,sp,64
    5030:	00008067          	ret

00005034 <alt_get_errno>:
    case 1: /* stdout file descriptor */
        return ALT_DRIVER_WRITE(ALT_STDOUT_DEV, ptr, len, 0);
#endif /* ALT_STDOUT_PRESENT */
#ifdef ALT_STDERR_PRESENT
    case 2: /* stderr file descriptor */
        return ALT_DRIVER_WRITE(ALT_STDERR_DEV, ptr, len, 0);
    5034:	ff010113          	add	sp,sp,-16
    5038:	00112623          	sw	ra,12(sp)
    503c:	00812423          	sw	s0,8(sp)
    5040:	01010413          	add	s0,sp,16
#endif /* ALT_STDERR_PRESENT */
    5044:	8141a783          	lw	a5,-2028(gp) # 74b8 <alt_errno>
    5048:	00078a63          	beqz	a5,505c <alt_get_errno+0x28>
    504c:	8141a783          	lw	a5,-2028(gp) # 74b8 <alt_errno>
    5050:	000780e7          	jalr	a5 # 4000000 <__reset>
    5054:	00050793          	mv	a5,a0
    5058:	00c0006f          	j	5064 <alt_get_errno+0x30>
    505c:	000097b7          	lui	a5,0x9
    5060:	c7878793          	add	a5,a5,-904 # 8c78 <errno>
    default:
    5064:	00078513          	mv	a0,a5
    5068:	00c12083          	lw	ra,12(sp)
    506c:	00812403          	lw	s0,8(sp)
    5070:	01010113          	add	sp,sp,16
    5074:	00008067          	ret

00005078 <_write>:
}

#else /* !ALT_USE_DIRECT_DRIVERS */

int ALT_WRITE (int file, const void *ptr, size_t len)
{
    5078:	fd010113          	add	sp,sp,-48
    507c:	02112623          	sw	ra,44(sp)
    5080:	02812423          	sw	s0,40(sp)
    5084:	03010413          	add	s0,sp,48
    5088:	fca42e23          	sw	a0,-36(s0)
    508c:	fcb42c23          	sw	a1,-40(s0)
    5090:	fcc42a23          	sw	a2,-44(s0)
   * A common error case is that when the file descriptor was created, the call
   * to open() failed resulting in a negative file descriptor. This is trapped
   * below so that we don't try and process an invalid file descriptor.
   */

  fd = (file < 0) ? NULL : &alt_fd_list[file];
    5094:	fdc42783          	lw	a5,-36(s0)
    5098:	0207c463          	bltz	a5,50c0 <_write+0x48>
    509c:	fdc42703          	lw	a4,-36(s0)
    50a0:	00070793          	mv	a5,a4
    50a4:	00179793          	sll	a5,a5,0x1
    50a8:	00e787b3          	add	a5,a5,a4
    50ac:	00279793          	sll	a5,a5,0x2
    50b0:	00007737          	lui	a4,0x7
    50b4:	df070713          	add	a4,a4,-528 # 6df0 <alt_fd_list>
    50b8:	00e787b3          	add	a5,a5,a4
    50bc:	0080006f          	j	50c4 <_write+0x4c>
    50c0:	00000793          	li	a5,0
    50c4:	fef42423          	sw	a5,-24(s0)
  
  if (fd)
    50c8:	fe842783          	lw	a5,-24(s0)
    50cc:	08078463          	beqz	a5,5154 <_write+0xdc>
     * If the file has not been opened with write access, or if the driver does
     * not provide an implementation of write(), generate an error. Otherwise
     * call the drivers write() function to process the request.
     */

    if (((fd->fd_flags & O_ACCMODE) != O_RDONLY) && fd->dev->write)
    50d0:	fe842783          	lw	a5,-24(s0)
    50d4:	0087a783          	lw	a5,8(a5)
    50d8:	0037f793          	and	a5,a5,3
    50dc:	06078263          	beqz	a5,5140 <_write+0xc8>
    50e0:	fe842783          	lw	a5,-24(s0)
    50e4:	0007a783          	lw	a5,0(a5)
    50e8:	0187a783          	lw	a5,24(a5)
    50ec:	04078a63          	beqz	a5,5140 <_write+0xc8>
    {
      
      /* ALT_LOG - see altera_hal/HAL/inc/sys/alt_log_printf.h */
      ALT_LOG_WRITE_FUNCTION(ptr,len);

      if ((rval = fd->dev->write(fd, ptr, len)) < 0)
    50f0:	fe842783          	lw	a5,-24(s0)
    50f4:	0007a783          	lw	a5,0(a5)
    50f8:	0187a783          	lw	a5,24(a5)
    50fc:	fd442703          	lw	a4,-44(s0)
    5100:	00070613          	mv	a2,a4
    5104:	fd842583          	lw	a1,-40(s0)
    5108:	fe842503          	lw	a0,-24(s0)
    510c:	000780e7          	jalr	a5
    5110:	fea42623          	sw	a0,-20(s0)
    5114:	fec42783          	lw	a5,-20(s0)
    5118:	0207d063          	bgez	a5,5138 <_write+0xc0>
      {
        ALT_ERRNO = -rval;
    511c:	f19ff0ef          	jal	5034 <alt_get_errno>
    5120:	00050713          	mv	a4,a0
    5124:	fec42783          	lw	a5,-20(s0)
    5128:	40f007b3          	neg	a5,a5
    512c:	00f72023          	sw	a5,0(a4)
        return -1;
    5130:	fff00793          	li	a5,-1
    5134:	0340006f          	j	5168 <_write+0xf0>
      }
      return rval;
    5138:	fec42783          	lw	a5,-20(s0)
    513c:	02c0006f          	j	5168 <_write+0xf0>
    }
    else
    {
      ALT_ERRNO = EACCES;
    5140:	ef5ff0ef          	jal	5034 <alt_get_errno>
    5144:	00050713          	mv	a4,a0
    5148:	00d00793          	li	a5,13
    514c:	00f72023          	sw	a5,0(a4)
    5150:	0140006f          	j	5164 <_write+0xec>
    }
  }
  else  
  {
    ALT_ERRNO = EBADFD;
    5154:	ee1ff0ef          	jal	5034 <alt_get_errno>
    5158:	00050713          	mv	a4,a0
    515c:	05100793          	li	a5,81
    5160:	00f72023          	sw	a5,0(a4)
  }
  return -1;
    5164:	fff00793          	li	a5,-1
}
    5168:	00078513          	mv	a0,a5
    516c:	02c12083          	lw	ra,44(sp)
    5170:	02812403          	lw	s0,40(sp)
    5174:	03010113          	add	sp,sp,48
    5178:	00008067          	ret

0000517c <alt_find_dev>:
 * "name" must be an exact match for the devices registered name for a match to
 * be found.
 */
 
alt_dev* alt_find_dev(const char* name, alt_llist* llist)
{
    517c:	fd010113          	add	sp,sp,-48
    5180:	02812623          	sw	s0,44(sp)
    5184:	03010413          	add	s0,sp,48
    5188:	fca42e23          	sw	a0,-36(s0)
    518c:	fcb42c23          	sw	a1,-40(s0)
    alt_dev* next=NULL; 
    5190:	fe042223          	sw	zero,-28(s0)
    alt_32   len=0;
    5194:	fe042423          	sw	zero,-24(s0)
    alt_32   MAX_STRING_LENGTH=1000;
    5198:	3e800793          	li	a5,1000
    519c:	fef42623          	sw	a5,-20(s0)
    
    if (llist == NULL) { return NULL; }
    51a0:	fd842783          	lw	a5,-40(s0)
    51a4:	00079663          	bnez	a5,51b0 <alt_find_dev+0x34>
    51a8:	00000793          	li	a5,0
    51ac:	0e00006f          	j	528c <alt_find_dev+0x110>
    next = (alt_dev*) llist->next;
    51b0:	fd842783          	lw	a5,-40(s0)
    51b4:	0007a783          	lw	a5,0(a5)
    51b8:	fef42223          	sw	a5,-28(s0)
    /*
     * Check each list entry in turn, until a match is found, or we reach the
     * end of the list (i.e. next winds up pointing back to the list head).
     */ 

    while (next != (alt_dev*) llist)
    51bc:	0c00006f          	j	527c <alt_find_dev+0x100>
    {
        len=0;
    51c0:	fe042423          	sw	zero,-24(s0)
        while ((name[len] != 0) && (next->name[len]!=0) && (len < MAX_STRING_LENGTH))
    51c4:	0380006f          	j	51fc <alt_find_dev+0x80>
        {
            if (next->name[len] != name[len]) { break; }
    51c8:	fe442783          	lw	a5,-28(s0)
    51cc:	0087a703          	lw	a4,8(a5)
    51d0:	fe842783          	lw	a5,-24(s0)
    51d4:	00f707b3          	add	a5,a4,a5
    51d8:	0007c703          	lbu	a4,0(a5)
    51dc:	fe842783          	lw	a5,-24(s0)
    51e0:	fdc42683          	lw	a3,-36(s0)
    51e4:	00f687b3          	add	a5,a3,a5
    51e8:	0007c783          	lbu	a5,0(a5)
    51ec:	04f71663          	bne	a4,a5,5238 <alt_find_dev+0xbc>
            len++;
    51f0:	fe842783          	lw	a5,-24(s0)
    51f4:	00178793          	add	a5,a5,1
    51f8:	fef42423          	sw	a5,-24(s0)
        while ((name[len] != 0) && (next->name[len]!=0) && (len < MAX_STRING_LENGTH))
    51fc:	fe842783          	lw	a5,-24(s0)
    5200:	fdc42703          	lw	a4,-36(s0)
    5204:	00f707b3          	add	a5,a4,a5
    5208:	0007c783          	lbu	a5,0(a5)
    520c:	02078863          	beqz	a5,523c <alt_find_dev+0xc0>
    5210:	fe442783          	lw	a5,-28(s0)
    5214:	0087a703          	lw	a4,8(a5)
    5218:	fe842783          	lw	a5,-24(s0)
    521c:	00f707b3          	add	a5,a4,a5
    5220:	0007c783          	lbu	a5,0(a5)
    5224:	00078c63          	beqz	a5,523c <alt_find_dev+0xc0>
    5228:	fe842703          	lw	a4,-24(s0)
    522c:	fec42783          	lw	a5,-20(s0)
    5230:	f8f74ce3          	blt	a4,a5,51c8 <alt_find_dev+0x4c>
    5234:	0080006f          	j	523c <alt_find_dev+0xc0>
            if (next->name[len] != name[len]) { break; }
    5238:	00000013          	nop
        }
    
        /* match found */
        if ((name[len] == 0) && (next->name[len]==0)) {  return next; }
    523c:	fe842783          	lw	a5,-24(s0)
    5240:	fdc42703          	lw	a4,-36(s0)
    5244:	00f707b3          	add	a5,a4,a5
    5248:	0007c783          	lbu	a5,0(a5)
    524c:	02079263          	bnez	a5,5270 <alt_find_dev+0xf4>
    5250:	fe442783          	lw	a5,-28(s0)
    5254:	0087a703          	lw	a4,8(a5)
    5258:	fe842783          	lw	a5,-24(s0)
    525c:	00f707b3          	add	a5,a4,a5
    5260:	0007c783          	lbu	a5,0(a5)
    5264:	00079663          	bnez	a5,5270 <alt_find_dev+0xf4>
    5268:	fe442783          	lw	a5,-28(s0)
    526c:	0200006f          	j	528c <alt_find_dev+0x110>

        next = (alt_dev*) next->llist.next;
    5270:	fe442783          	lw	a5,-28(s0)
    5274:	0007a783          	lw	a5,0(a5)
    5278:	fef42223          	sw	a5,-28(s0)
    while (next != (alt_dev*) llist)
    527c:	fe442703          	lw	a4,-28(s0)
    5280:	fd842783          	lw	a5,-40(s0)
    5284:	f2f71ee3          	bne	a4,a5,51c0 <alt_find_dev+0x44>
    }
  
    /* No match found */
  
    return NULL;
    5288:	00000793          	li	a5,0
}
    528c:	00078513          	mv	a0,a5
    5290:	02c12403          	lw	s0,44(sp)
    5294:	03010113          	add	sp,sp,48
    5298:	00008067          	ret

0000529c <alt_find_file>:
 * either '/' or '\0' is the prefix of the filename. For example the filename:
 * "/myfilesystem/junk.txt" would match: "/myfilesystem", but not: "/myfile". 
 */
 
alt_dev* alt_find_file (const char* name)
{
    529c:	fd010113          	add	sp,sp,-48
    52a0:	02812623          	sw	s0,44(sp)
    52a4:	03010413          	add	s0,sp,48
    52a8:	fca42e23          	sw	a0,-36(s0)
    alt_dev* next = (alt_dev*) alt_fs_list.next;   
    52ac:	000077b7          	lui	a5,0x7
    52b0:	4a478793          	add	a5,a5,1188 # 74a4 <alt_fs_list>
    52b4:	0007a783          	lw	a5,0(a5)
    52b8:	fef42223          	sw	a5,-28(s0)
    alt_32   len=0;
    52bc:	fe042423          	sw	zero,-24(s0)
    alt_32   MAX_STRING_LENGTH=1000;
    52c0:	3e800793          	li	a5,1000
    52c4:	fef42623          	sw	a5,-20(s0)
 
    /*
    * Check each list entry in turn, until a match is found, or we reach the
    * end of the list (i.e. next winds up pointing back to the list head).
    */ 
    while (next != (alt_dev*) &alt_fs_list)
    52c8:	0ec0006f          	j	53b4 <alt_find_file+0x118>
    {
        len=0;
    52cc:	fe042423          	sw	zero,-24(s0)
        while (len < MAX_STRING_LENGTH)    
    52d0:	0bc0006f          	j	538c <alt_find_file+0xf0>
        {
            if (((next->name[len]== '/') && (next->name[len+1] == 0)) || (next->name[len] == 0))
    52d4:	fe442783          	lw	a5,-28(s0)
    52d8:	0087a703          	lw	a4,8(a5)
    52dc:	fe842783          	lw	a5,-24(s0)
    52e0:	00f707b3          	add	a5,a4,a5
    52e4:	0007c703          	lbu	a4,0(a5)
    52e8:	02f00793          	li	a5,47
    52ec:	02f71063          	bne	a4,a5,530c <alt_find_file+0x70>
    52f0:	fe442783          	lw	a5,-28(s0)
    52f4:	0087a703          	lw	a4,8(a5)
    52f8:	fe842783          	lw	a5,-24(s0)
    52fc:	00178793          	add	a5,a5,1
    5300:	00f707b3          	add	a5,a4,a5
    5304:	0007c783          	lbu	a5,0(a5)
    5308:	00078e63          	beqz	a5,5324 <alt_find_file+0x88>
    530c:	fe442783          	lw	a5,-28(s0)
    5310:	0087a703          	lw	a4,8(a5)
    5314:	fe842783          	lw	a5,-24(s0)
    5318:	00f707b3          	add	a5,a4,a5
    531c:	0007c783          	lbu	a5,0(a5)
    5320:	02079c63          	bnez	a5,5358 <alt_find_file+0xbc>
            { 
                if ((name[len]== '/') || (name[len] == 0))
    5324:	fe842783          	lw	a5,-24(s0)
    5328:	fdc42703          	lw	a4,-36(s0)
    532c:	00f707b3          	add	a5,a4,a5
    5330:	0007c703          	lbu	a4,0(a5)
    5334:	02f00793          	li	a5,47
    5338:	00f70c63          	beq	a4,a5,5350 <alt_find_file+0xb4>
    533c:	fe842783          	lw	a5,-24(s0)
    5340:	fdc42703          	lw	a4,-36(s0)
    5344:	00f707b3          	add	a5,a4,a5
    5348:	0007c783          	lbu	a5,0(a5)
    534c:	04079863          	bnez	a5,539c <alt_find_file+0x100>
                {
                    return next;
    5350:	fe442783          	lw	a5,-28(s0)
    5354:	0740006f          	j	53c8 <alt_find_file+0x12c>
                }
                break;
            }
            
            if (next->name[len]!=name[len]) { break; }
    5358:	fe442783          	lw	a5,-28(s0)
    535c:	0087a703          	lw	a4,8(a5)
    5360:	fe842783          	lw	a5,-24(s0)
    5364:	00f707b3          	add	a5,a4,a5
    5368:	0007c703          	lbu	a4,0(a5)
    536c:	fe842783          	lw	a5,-24(s0)
    5370:	fdc42683          	lw	a3,-36(s0)
    5374:	00f687b3          	add	a5,a3,a5
    5378:	0007c783          	lbu	a5,0(a5)
    537c:	02f71463          	bne	a4,a5,53a4 <alt_find_file+0x108>
            len++;
    5380:	fe842783          	lw	a5,-24(s0)
    5384:	00178793          	add	a5,a5,1
    5388:	fef42423          	sw	a5,-24(s0)
        while (len < MAX_STRING_LENGTH)    
    538c:	fe842703          	lw	a4,-24(s0)
    5390:	fec42783          	lw	a5,-20(s0)
    5394:	f4f740e3          	blt	a4,a5,52d4 <alt_find_file+0x38>
    5398:	0100006f          	j	53a8 <alt_find_file+0x10c>
                break;
    539c:	00000013          	nop
    53a0:	0080006f          	j	53a8 <alt_find_file+0x10c>
            if (next->name[len]!=name[len]) { break; }
    53a4:	00000013          	nop
        }  
        
        next = (alt_dev*) next->llist.next;
    53a8:	fe442783          	lw	a5,-28(s0)
    53ac:	0007a783          	lw	a5,0(a5)
    53b0:	fef42223          	sw	a5,-28(s0)
    while (next != (alt_dev*) &alt_fs_list)
    53b4:	fe442703          	lw	a4,-28(s0)
    53b8:	000077b7          	lui	a5,0x7
    53bc:	4a478793          	add	a5,a5,1188 # 74a4 <alt_fs_list>
    53c0:	f0f716e3          	bne	a4,a5,52cc <alt_find_file+0x30>
    }
  
    /* No match found */
  
    return NULL;     
    53c4:	00000793          	li	a5,0
}
    53c8:	00078513          	mv	a0,a5
    53cc:	02c12403          	lw	s0,44(sp)
    53d0:	03010113          	add	sp,sp,48
    53d4:	00008067          	ret

000053d8 <alt_get_fd>:
 * the offset of the file descriptor within the file descriptor array). A
 * negative value indicates failure.
 */

int alt_get_fd (alt_dev* dev)
{
    53d8:	fd010113          	add	sp,sp,-48
    53dc:	02812623          	sw	s0,44(sp)
    53e0:	03010413          	add	s0,sp,48
    53e4:	fca42e23          	sw	a0,-36(s0)
  alt_32 i;
  int rc = -EMFILE;
    53e8:	fe800793          	li	a5,-24
    53ec:	fef42623          	sw	a5,-20(s0)
   * indicates the highest file descriptor ever allocated. This is used to
   * improve efficency when searching the file descriptor list, and 
   * therefore reduce contention on the alt_fd_list_lock semaphore. 
   */

  for (i = 0; i < ALT_MAX_FD; i++)
    53f0:	fe042423          	sw	zero,-24(s0)
    53f4:	0800006f          	j	5474 <alt_get_fd+0x9c>
  {
    if (!alt_fd_list[i].dev)
    53f8:	000077b7          	lui	a5,0x7
    53fc:	df078693          	add	a3,a5,-528 # 6df0 <alt_fd_list>
    5400:	fe842703          	lw	a4,-24(s0)
    5404:	00070793          	mv	a5,a4
    5408:	00179793          	sll	a5,a5,0x1
    540c:	00e787b3          	add	a5,a5,a4
    5410:	00279793          	sll	a5,a5,0x2
    5414:	00f687b3          	add	a5,a3,a5
    5418:	0007a783          	lw	a5,0(a5)
    541c:	04079663          	bnez	a5,5468 <alt_get_fd+0x90>
    {
      alt_fd_list[i].dev = dev;
    5420:	000077b7          	lui	a5,0x7
    5424:	df078693          	add	a3,a5,-528 # 6df0 <alt_fd_list>
    5428:	fe842703          	lw	a4,-24(s0)
    542c:	00070793          	mv	a5,a4
    5430:	00179793          	sll	a5,a5,0x1
    5434:	00e787b3          	add	a5,a5,a4
    5438:	00279793          	sll	a5,a5,0x2
    543c:	00f687b3          	add	a5,a3,a5
    5440:	fdc42703          	lw	a4,-36(s0)
    5444:	00e7a023          	sw	a4,0(a5)
      if (i > alt_max_fd)
    5448:	8101a783          	lw	a5,-2032(gp) # 74b4 <alt_max_fd>
    544c:	fe842703          	lw	a4,-24(s0)
    5450:	00e7d663          	bge	a5,a4,545c <alt_get_fd+0x84>
      {
        alt_max_fd = i;
    5454:	fe842703          	lw	a4,-24(s0)
    5458:	80e1a823          	sw	a4,-2032(gp) # 74b4 <alt_max_fd>
      }
      rc = i;
    545c:	fe842783          	lw	a5,-24(s0)
    5460:	fef42623          	sw	a5,-20(s0)
      goto alt_get_fd_exit;
    5464:	0200006f          	j	5484 <alt_get_fd+0xac>
  for (i = 0; i < ALT_MAX_FD; i++)
    5468:	fe842783          	lw	a5,-24(s0)
    546c:	00178793          	add	a5,a5,1
    5470:	fef42423          	sw	a5,-24(s0)
    5474:	fe842703          	lw	a4,-24(s0)
    5478:	01f00793          	li	a5,31
    547c:	f6e7dee3          	bge	a5,a4,53f8 <alt_get_fd+0x20>
    }
  }

 alt_get_fd_exit:
    5480:	00000013          	nop
   * file descriptor pool.
   */

  ALT_SEM_POST(alt_fd_list_lock);

  return rc;
    5484:	fec42783          	lw	a5,-20(s0)
}
    5488:	00078513          	mv	a0,a5
    548c:	02c12403          	lw	s0,44(sp)
    5490:	03010113          	add	sp,sp,48
    5494:	00008067          	ret

00005498 <__stack_chk_fail>:
    5498:	00001797          	auipc	a5,0x1
    549c:	8a078793          	add	a5,a5,-1888 # 5d38 <__fini_array_end+0x2c>
    54a0:	0007af83          	lw	t6,0(a5)
    54a4:	0047af03          	lw	t5,4(a5)
    54a8:	0087ae83          	lw	t4,8(a5)
    54ac:	00c7ae03          	lw	t3,12(a5)
    54b0:	0107a303          	lw	t1,16(a5)
    54b4:	0147a883          	lw	a7,20(a5)
    54b8:	0187a803          	lw	a6,24(a5)
    54bc:	0247a683          	lw	a3,36(a5)
    54c0:	0287a703          	lw	a4,40(a5)
    54c4:	01c7a583          	lw	a1,28(a5)
    54c8:	0207a603          	lw	a2,32(a5)
    54cc:	02c7c783          	lbu	a5,44(a5)
    54d0:	fc010113          	add	sp,sp,-64
    54d4:	00010513          	mv	a0,sp
    54d8:	02112e23          	sw	ra,60(sp)
    54dc:	01f12023          	sw	t6,0(sp)
    54e0:	01e12223          	sw	t5,4(sp)
    54e4:	01d12423          	sw	t4,8(sp)
    54e8:	01c12623          	sw	t3,12(sp)
    54ec:	00612823          	sw	t1,16(sp)
    54f0:	01112a23          	sw	a7,20(sp)
    54f4:	01012c23          	sw	a6,24(sp)
    54f8:	02d12223          	sw	a3,36(sp)
    54fc:	02e12423          	sw	a4,40(sp)
    5500:	02f10623          	sb	a5,44(sp)
    5504:	00b12e23          	sw	a1,28(sp)
    5508:	02c12023          	sw	a2,32(sp)
    550c:	05c000ef          	jal	5568 <strlen>
    5510:	00050613          	mv	a2,a0
    5514:	00010593          	mv	a1,sp
    5518:	00200513          	li	a0,2
    551c:	618000ef          	jal	5b34 <write>
    5520:	00600513          	li	a0,6
    5524:	36c000ef          	jal	5890 <raise>
    5528:	07f00513          	li	a0,127
    552c:	accff0ef          	jal	47f8 <_exit>

00005530 <__stack_chk_fail_local>:
    5530:	ff010113          	add	sp,sp,-16
    5534:	00112623          	sw	ra,12(sp)
    5538:	f61ff0ef          	jal	5498 <__stack_chk_fail>

0000553c <__stack_chk_init>:
    553c:	00003797          	auipc	a5,0x3
    5540:	77478793          	add	a5,a5,1908 # 8cb0 <__stack_chk_guard>
    5544:	0007a703          	lw	a4,0(a5)
    5548:	00071663          	bnez	a4,5554 <__stack_chk_init+0x18>
    554c:	ff0a0737          	lui	a4,0xff0a0
    5550:	00e7a023          	sw	a4,0(a5)
    5554:	00008067          	ret

00005558 <fstat>:
    5558:	00058613          	mv	a2,a1
    555c:	00050593          	mv	a1,a0
    5560:	8201a503          	lw	a0,-2016(gp) # 74c4 <_impure_ptr>
    5564:	f05fe06f          	j	4468 <_fstat_r>

00005568 <strlen>:
    5568:	00357793          	and	a5,a0,3
    556c:	00050713          	mv	a4,a0
    5570:	04079c63          	bnez	a5,55c8 <strlen+0x60>
    5574:	7f7f86b7          	lui	a3,0x7f7f8
    5578:	f7f68693          	add	a3,a3,-129 # 7f7f7f7f <__reset+0x7b7f7f7f>
    557c:	fff00593          	li	a1,-1
    5580:	00072603          	lw	a2,0(a4) # ff0a0000 <__reset+0xfb0a0000>
    5584:	00470713          	add	a4,a4,4
    5588:	00d677b3          	and	a5,a2,a3
    558c:	00d787b3          	add	a5,a5,a3
    5590:	00c7e7b3          	or	a5,a5,a2
    5594:	00d7e7b3          	or	a5,a5,a3
    5598:	feb784e3          	beq	a5,a1,5580 <strlen+0x18>
    559c:	ffc74683          	lbu	a3,-4(a4)
    55a0:	40a707b3          	sub	a5,a4,a0
    55a4:	04068463          	beqz	a3,55ec <strlen+0x84>
    55a8:	ffd74683          	lbu	a3,-3(a4)
    55ac:	02068c63          	beqz	a3,55e4 <strlen+0x7c>
    55b0:	ffe74503          	lbu	a0,-2(a4)
    55b4:	00a03533          	snez	a0,a0
    55b8:	00f50533          	add	a0,a0,a5
    55bc:	ffe50513          	add	a0,a0,-2
    55c0:	00008067          	ret
    55c4:	fa0688e3          	beqz	a3,5574 <strlen+0xc>
    55c8:	00074783          	lbu	a5,0(a4)
    55cc:	00170713          	add	a4,a4,1
    55d0:	00377693          	and	a3,a4,3
    55d4:	fe0798e3          	bnez	a5,55c4 <strlen+0x5c>
    55d8:	40a70733          	sub	a4,a4,a0
    55dc:	fff70513          	add	a0,a4,-1
    55e0:	00008067          	ret
    55e4:	ffd78513          	add	a0,a5,-3
    55e8:	00008067          	ret
    55ec:	ffc78513          	add	a0,a5,-4
    55f0:	00008067          	ret

000055f4 <_init_signal_r>:
    55f4:	11852783          	lw	a5,280(a0)
    55f8:	00078663          	beqz	a5,5604 <_init_signal_r+0x10>
    55fc:	00000513          	li	a0,0
    5600:	00008067          	ret
    5604:	ff010113          	add	sp,sp,-16
    5608:	08000593          	li	a1,128
    560c:	00812423          	sw	s0,8(sp)
    5610:	00112623          	sw	ra,12(sp)
    5614:	00050413          	mv	s0,a0
    5618:	c80fd0ef          	jal	2a98 <_malloc_r>
    561c:	10a42c23          	sw	a0,280(s0)
    5620:	02050463          	beqz	a0,5648 <_init_signal_r+0x54>
    5624:	08050793          	add	a5,a0,128
    5628:	00052023          	sw	zero,0(a0)
    562c:	00450513          	add	a0,a0,4
    5630:	fef51ce3          	bne	a0,a5,5628 <_init_signal_r+0x34>
    5634:	00000513          	li	a0,0
    5638:	00c12083          	lw	ra,12(sp)
    563c:	00812403          	lw	s0,8(sp)
    5640:	01010113          	add	sp,sp,16
    5644:	00008067          	ret
    5648:	fff00513          	li	a0,-1
    564c:	fedff06f          	j	5638 <_init_signal_r+0x44>

00005650 <_signal_r>:
    5650:	fe010113          	add	sp,sp,-32
    5654:	00912a23          	sw	s1,20(sp)
    5658:	00112e23          	sw	ra,28(sp)
    565c:	01f00793          	li	a5,31
    5660:	00050493          	mv	s1,a0
    5664:	02b7ec63          	bltu	a5,a1,569c <_signal_r+0x4c>
    5668:	11852783          	lw	a5,280(a0)
    566c:	00812c23          	sw	s0,24(sp)
    5670:	00058413          	mv	s0,a1
    5674:	02078c63          	beqz	a5,56ac <_signal_r+0x5c>
    5678:	00241413          	sll	s0,s0,0x2
    567c:	008787b3          	add	a5,a5,s0
    5680:	01812403          	lw	s0,24(sp)
    5684:	0007a503          	lw	a0,0(a5)
    5688:	00c7a023          	sw	a2,0(a5)
    568c:	01c12083          	lw	ra,28(sp)
    5690:	01412483          	lw	s1,20(sp)
    5694:	02010113          	add	sp,sp,32
    5698:	00008067          	ret
    569c:	01600793          	li	a5,22
    56a0:	00f52023          	sw	a5,0(a0)
    56a4:	fff00513          	li	a0,-1
    56a8:	fe5ff06f          	j	568c <_signal_r+0x3c>
    56ac:	08000593          	li	a1,128
    56b0:	00c12623          	sw	a2,12(sp)
    56b4:	be4fd0ef          	jal	2a98 <_malloc_r>
    56b8:	10a4ac23          	sw	a0,280(s1)
    56bc:	00c12603          	lw	a2,12(sp)
    56c0:	00050793          	mv	a5,a0
    56c4:	00050713          	mv	a4,a0
    56c8:	08050693          	add	a3,a0,128
    56cc:	00050a63          	beqz	a0,56e0 <_signal_r+0x90>
    56d0:	00072023          	sw	zero,0(a4)
    56d4:	00470713          	add	a4,a4,4
    56d8:	fed71ce3          	bne	a4,a3,56d0 <_signal_r+0x80>
    56dc:	f9dff06f          	j	5678 <_signal_r+0x28>
    56e0:	01812403          	lw	s0,24(sp)
    56e4:	fff00513          	li	a0,-1
    56e8:	fa5ff06f          	j	568c <_signal_r+0x3c>

000056ec <_raise_r>:
    56ec:	ff010113          	add	sp,sp,-16
    56f0:	00912223          	sw	s1,4(sp)
    56f4:	00112623          	sw	ra,12(sp)
    56f8:	01f00793          	li	a5,31
    56fc:	00050493          	mv	s1,a0
    5700:	0ab7e063          	bltu	a5,a1,57a0 <_raise_r+0xb4>
    5704:	11852783          	lw	a5,280(a0)
    5708:	00812423          	sw	s0,8(sp)
    570c:	00058413          	mv	s0,a1
    5710:	04078463          	beqz	a5,5758 <_raise_r+0x6c>
    5714:	00259713          	sll	a4,a1,0x2
    5718:	00e787b3          	add	a5,a5,a4
    571c:	0007a703          	lw	a4,0(a5)
    5720:	02070c63          	beqz	a4,5758 <_raise_r+0x6c>
    5724:	00100693          	li	a3,1
    5728:	00d70c63          	beq	a4,a3,5740 <_raise_r+0x54>
    572c:	fff00693          	li	a3,-1
    5730:	04d70863          	beq	a4,a3,5780 <_raise_r+0x94>
    5734:	0007a023          	sw	zero,0(a5)
    5738:	00058513          	mv	a0,a1
    573c:	000700e7          	jalr	a4
    5740:	00812403          	lw	s0,8(sp)
    5744:	00000513          	li	a0,0
    5748:	00c12083          	lw	ra,12(sp)
    574c:	00412483          	lw	s1,4(sp)
    5750:	01010113          	add	sp,sp,16
    5754:	00008067          	ret
    5758:	00048513          	mv	a0,s1
    575c:	44c000ef          	jal	5ba8 <_getpid_r>
    5760:	00040613          	mv	a2,s0
    5764:	00812403          	lw	s0,8(sp)
    5768:	00c12083          	lw	ra,12(sp)
    576c:	00050593          	mv	a1,a0
    5770:	00048513          	mv	a0,s1
    5774:	00412483          	lw	s1,4(sp)
    5778:	01010113          	add	sp,sp,16
    577c:	3cc0006f          	j	5b48 <_kill_r>
    5780:	00812403          	lw	s0,8(sp)
    5784:	00c12083          	lw	ra,12(sp)
    5788:	01600793          	li	a5,22
    578c:	00f52023          	sw	a5,0(a0)
    5790:	00412483          	lw	s1,4(sp)
    5794:	00100513          	li	a0,1
    5798:	01010113          	add	sp,sp,16
    579c:	00008067          	ret
    57a0:	01600793          	li	a5,22
    57a4:	00f52023          	sw	a5,0(a0)
    57a8:	fff00513          	li	a0,-1
    57ac:	f9dff06f          	j	5748 <_raise_r+0x5c>

000057b0 <__sigtramp_r>:
    57b0:	01f00793          	li	a5,31
    57b4:	0cb7ea63          	bltu	a5,a1,5888 <__sigtramp_r+0xd8>
    57b8:	11852783          	lw	a5,280(a0)
    57bc:	ff010113          	add	sp,sp,-16
    57c0:	00812423          	sw	s0,8(sp)
    57c4:	00912223          	sw	s1,4(sp)
    57c8:	00112623          	sw	ra,12(sp)
    57cc:	00058413          	mv	s0,a1
    57d0:	00050493          	mv	s1,a0
    57d4:	08078063          	beqz	a5,5854 <__sigtramp_r+0xa4>
    57d8:	00241713          	sll	a4,s0,0x2
    57dc:	00e787b3          	add	a5,a5,a4
    57e0:	0007a703          	lw	a4,0(a5)
    57e4:	02070c63          	beqz	a4,581c <__sigtramp_r+0x6c>
    57e8:	fff00693          	li	a3,-1
    57ec:	06d70063          	beq	a4,a3,584c <__sigtramp_r+0x9c>
    57f0:	00100693          	li	a3,1
    57f4:	04d70063          	beq	a4,a3,5834 <__sigtramp_r+0x84>
    57f8:	00040513          	mv	a0,s0
    57fc:	0007a023          	sw	zero,0(a5)
    5800:	000700e7          	jalr	a4
    5804:	00000513          	li	a0,0
    5808:	00c12083          	lw	ra,12(sp)
    580c:	00812403          	lw	s0,8(sp)
    5810:	00412483          	lw	s1,4(sp)
    5814:	01010113          	add	sp,sp,16
    5818:	00008067          	ret
    581c:	00c12083          	lw	ra,12(sp)
    5820:	00812403          	lw	s0,8(sp)
    5824:	00412483          	lw	s1,4(sp)
    5828:	00100513          	li	a0,1
    582c:	01010113          	add	sp,sp,16
    5830:	00008067          	ret
    5834:	00c12083          	lw	ra,12(sp)
    5838:	00812403          	lw	s0,8(sp)
    583c:	00412483          	lw	s1,4(sp)
    5840:	00300513          	li	a0,3
    5844:	01010113          	add	sp,sp,16
    5848:	00008067          	ret
    584c:	00200513          	li	a0,2
    5850:	fb9ff06f          	j	5808 <__sigtramp_r+0x58>
    5854:	08000593          	li	a1,128
    5858:	a40fd0ef          	jal	2a98 <_malloc_r>
    585c:	10a4ac23          	sw	a0,280(s1)
    5860:	00050793          	mv	a5,a0
    5864:	00050e63          	beqz	a0,5880 <__sigtramp_r+0xd0>
    5868:	00050713          	mv	a4,a0
    586c:	08050693          	add	a3,a0,128
    5870:	00072023          	sw	zero,0(a4)
    5874:	00470713          	add	a4,a4,4
    5878:	fed71ce3          	bne	a4,a3,5870 <__sigtramp_r+0xc0>
    587c:	f5dff06f          	j	57d8 <__sigtramp_r+0x28>
    5880:	fff00513          	li	a0,-1
    5884:	f85ff06f          	j	5808 <__sigtramp_r+0x58>
    5888:	fff00513          	li	a0,-1
    588c:	00008067          	ret

00005890 <raise>:
    5890:	ff010113          	add	sp,sp,-16
    5894:	00912223          	sw	s1,4(sp)
    5898:	00112623          	sw	ra,12(sp)
    589c:	01f00793          	li	a5,31
    58a0:	8201a483          	lw	s1,-2016(gp) # 74c4 <_impure_ptr>
    58a4:	08a7ee63          	bltu	a5,a0,5940 <raise+0xb0>
    58a8:	1184a783          	lw	a5,280(s1)
    58ac:	00812423          	sw	s0,8(sp)
    58b0:	00050413          	mv	s0,a0
    58b4:	04078263          	beqz	a5,58f8 <raise+0x68>
    58b8:	00251713          	sll	a4,a0,0x2
    58bc:	00e787b3          	add	a5,a5,a4
    58c0:	0007a703          	lw	a4,0(a5)
    58c4:	02070a63          	beqz	a4,58f8 <raise+0x68>
    58c8:	00100693          	li	a3,1
    58cc:	00d70a63          	beq	a4,a3,58e0 <raise+0x50>
    58d0:	fff00693          	li	a3,-1
    58d4:	04d70663          	beq	a4,a3,5920 <raise+0x90>
    58d8:	0007a023          	sw	zero,0(a5)
    58dc:	000700e7          	jalr	a4
    58e0:	00812403          	lw	s0,8(sp)
    58e4:	00000513          	li	a0,0
    58e8:	00c12083          	lw	ra,12(sp)
    58ec:	00412483          	lw	s1,4(sp)
    58f0:	01010113          	add	sp,sp,16
    58f4:	00008067          	ret
    58f8:	00048513          	mv	a0,s1
    58fc:	2ac000ef          	jal	5ba8 <_getpid_r>
    5900:	00040613          	mv	a2,s0
    5904:	00812403          	lw	s0,8(sp)
    5908:	00c12083          	lw	ra,12(sp)
    590c:	00050593          	mv	a1,a0
    5910:	00048513          	mv	a0,s1
    5914:	00412483          	lw	s1,4(sp)
    5918:	01010113          	add	sp,sp,16
    591c:	22c0006f          	j	5b48 <_kill_r>
    5920:	00812403          	lw	s0,8(sp)
    5924:	00c12083          	lw	ra,12(sp)
    5928:	01600793          	li	a5,22
    592c:	00f4a023          	sw	a5,0(s1)
    5930:	00100513          	li	a0,1
    5934:	00412483          	lw	s1,4(sp)
    5938:	01010113          	add	sp,sp,16
    593c:	00008067          	ret
    5940:	01600793          	li	a5,22
    5944:	00f4a023          	sw	a5,0(s1)
    5948:	fff00513          	li	a0,-1
    594c:	f9dff06f          	j	58e8 <raise+0x58>

00005950 <signal>:
    5950:	ff010113          	add	sp,sp,-16
    5954:	01212023          	sw	s2,0(sp)
    5958:	00112623          	sw	ra,12(sp)
    595c:	01f00793          	li	a5,31
    5960:	8201a903          	lw	s2,-2016(gp) # 74c4 <_impure_ptr>
    5964:	04a7e263          	bltu	a5,a0,59a8 <signal+0x58>
    5968:	00812423          	sw	s0,8(sp)
    596c:	00050413          	mv	s0,a0
    5970:	11892503          	lw	a0,280(s2)
    5974:	00912223          	sw	s1,4(sp)
    5978:	00058493          	mv	s1,a1
    597c:	02050e63          	beqz	a0,59b8 <signal+0x68>
    5980:	00241413          	sll	s0,s0,0x2
    5984:	008507b3          	add	a5,a0,s0
    5988:	0007a503          	lw	a0,0(a5)
    598c:	00812403          	lw	s0,8(sp)
    5990:	0097a023          	sw	s1,0(a5)
    5994:	00412483          	lw	s1,4(sp)
    5998:	00c12083          	lw	ra,12(sp)
    599c:	00012903          	lw	s2,0(sp)
    59a0:	01010113          	add	sp,sp,16
    59a4:	00008067          	ret
    59a8:	01600793          	li	a5,22
    59ac:	00f92023          	sw	a5,0(s2)
    59b0:	fff00513          	li	a0,-1
    59b4:	fe5ff06f          	j	5998 <signal+0x48>
    59b8:	08000593          	li	a1,128
    59bc:	00090513          	mv	a0,s2
    59c0:	8d8fd0ef          	jal	2a98 <_malloc_r>
    59c4:	10a92c23          	sw	a0,280(s2)
    59c8:	00050793          	mv	a5,a0
    59cc:	08050713          	add	a4,a0,128
    59d0:	00050a63          	beqz	a0,59e4 <signal+0x94>
    59d4:	0007a023          	sw	zero,0(a5)
    59d8:	00478793          	add	a5,a5,4
    59dc:	fef71ce3          	bne	a4,a5,59d4 <signal+0x84>
    59e0:	fa1ff06f          	j	5980 <signal+0x30>
    59e4:	00812403          	lw	s0,8(sp)
    59e8:	00412483          	lw	s1,4(sp)
    59ec:	fff00513          	li	a0,-1
    59f0:	fa9ff06f          	j	5998 <signal+0x48>

000059f4 <_init_signal>:
    59f4:	ff010113          	add	sp,sp,-16
    59f8:	00812423          	sw	s0,8(sp)
    59fc:	8201a403          	lw	s0,-2016(gp) # 74c4 <_impure_ptr>
    5a00:	11842783          	lw	a5,280(s0)
    5a04:	00112623          	sw	ra,12(sp)
    5a08:	00078c63          	beqz	a5,5a20 <_init_signal+0x2c>
    5a0c:	00000513          	li	a0,0
    5a10:	00c12083          	lw	ra,12(sp)
    5a14:	00812403          	lw	s0,8(sp)
    5a18:	01010113          	add	sp,sp,16
    5a1c:	00008067          	ret
    5a20:	08000593          	li	a1,128
    5a24:	00040513          	mv	a0,s0
    5a28:	870fd0ef          	jal	2a98 <_malloc_r>
    5a2c:	10a42c23          	sw	a0,280(s0)
    5a30:	00050c63          	beqz	a0,5a48 <_init_signal+0x54>
    5a34:	08050793          	add	a5,a0,128
    5a38:	00052023          	sw	zero,0(a0)
    5a3c:	00450513          	add	a0,a0,4
    5a40:	fef51ce3          	bne	a0,a5,5a38 <_init_signal+0x44>
    5a44:	fc9ff06f          	j	5a0c <_init_signal+0x18>
    5a48:	fff00513          	li	a0,-1
    5a4c:	fc5ff06f          	j	5a10 <_init_signal+0x1c>

00005a50 <__sigtramp>:
    5a50:	ff010113          	add	sp,sp,-16
    5a54:	00912223          	sw	s1,4(sp)
    5a58:	00112623          	sw	ra,12(sp)
    5a5c:	01f00793          	li	a5,31
    5a60:	8201a483          	lw	s1,-2016(gp) # 74c4 <_impure_ptr>
    5a64:	0ca7e463          	bltu	a5,a0,5b2c <__sigtramp+0xdc>
    5a68:	1184a783          	lw	a5,280(s1)
    5a6c:	00812423          	sw	s0,8(sp)
    5a70:	00050413          	mv	s0,a0
    5a74:	08078263          	beqz	a5,5af8 <__sigtramp+0xa8>
    5a78:	00241713          	sll	a4,s0,0x2
    5a7c:	00e787b3          	add	a5,a5,a4
    5a80:	0007a703          	lw	a4,0(a5)
    5a84:	02070c63          	beqz	a4,5abc <__sigtramp+0x6c>
    5a88:	fff00693          	li	a3,-1
    5a8c:	06d70063          	beq	a4,a3,5aec <__sigtramp+0x9c>
    5a90:	00100693          	li	a3,1
    5a94:	04d70063          	beq	a4,a3,5ad4 <__sigtramp+0x84>
    5a98:	00040513          	mv	a0,s0
    5a9c:	0007a023          	sw	zero,0(a5)
    5aa0:	000700e7          	jalr	a4
    5aa4:	00812403          	lw	s0,8(sp)
    5aa8:	00000513          	li	a0,0
    5aac:	00c12083          	lw	ra,12(sp)
    5ab0:	00412483          	lw	s1,4(sp)
    5ab4:	01010113          	add	sp,sp,16
    5ab8:	00008067          	ret
    5abc:	00812403          	lw	s0,8(sp)
    5ac0:	00c12083          	lw	ra,12(sp)
    5ac4:	00412483          	lw	s1,4(sp)
    5ac8:	00100513          	li	a0,1
    5acc:	01010113          	add	sp,sp,16
    5ad0:	00008067          	ret
    5ad4:	00812403          	lw	s0,8(sp)
    5ad8:	00c12083          	lw	ra,12(sp)
    5adc:	00412483          	lw	s1,4(sp)
    5ae0:	00300513          	li	a0,3
    5ae4:	01010113          	add	sp,sp,16
    5ae8:	00008067          	ret
    5aec:	00812403          	lw	s0,8(sp)
    5af0:	00200513          	li	a0,2
    5af4:	fb9ff06f          	j	5aac <__sigtramp+0x5c>
    5af8:	08000593          	li	a1,128
    5afc:	00048513          	mv	a0,s1
    5b00:	f99fc0ef          	jal	2a98 <_malloc_r>
    5b04:	10a4ac23          	sw	a0,280(s1)
    5b08:	00050793          	mv	a5,a0
    5b0c:	00050e63          	beqz	a0,5b28 <__sigtramp+0xd8>
    5b10:	00050713          	mv	a4,a0
    5b14:	08050693          	add	a3,a0,128
    5b18:	00072023          	sw	zero,0(a4)
    5b1c:	00470713          	add	a4,a4,4
    5b20:	fee69ce3          	bne	a3,a4,5b18 <__sigtramp+0xc8>
    5b24:	f55ff06f          	j	5a78 <__sigtramp+0x28>
    5b28:	00812403          	lw	s0,8(sp)
    5b2c:	fff00513          	li	a0,-1
    5b30:	f7dff06f          	j	5aac <__sigtramp+0x5c>

00005b34 <write>:
    5b34:	00060693          	mv	a3,a2
    5b38:	00058613          	mv	a2,a1
    5b3c:	00050593          	mv	a1,a0
    5b40:	8201a503          	lw	a0,-2016(gp) # 74c4 <_impure_ptr>
    5b44:	8f5fd06f          	j	3438 <_write_r>

00005b48 <_kill_r>:
    5b48:	ff010113          	add	sp,sp,-16
    5b4c:	00058713          	mv	a4,a1
    5b50:	00812423          	sw	s0,8(sp)
    5b54:	00060593          	mv	a1,a2
    5b58:	00050413          	mv	s0,a0
    5b5c:	00070513          	mv	a0,a4
    5b60:	00003797          	auipc	a5,0x3
    5b64:	1007ac23          	sw	zero,280(a5) # 8c78 <errno>
    5b68:	00112623          	sw	ra,12(sp)
    5b6c:	0a4000ef          	jal	5c10 <_kill>
    5b70:	fff00793          	li	a5,-1
    5b74:	00f50a63          	beq	a0,a5,5b88 <_kill_r+0x40>
    5b78:	00c12083          	lw	ra,12(sp)
    5b7c:	00812403          	lw	s0,8(sp)
    5b80:	01010113          	add	sp,sp,16
    5b84:	00008067          	ret
    5b88:	00003797          	auipc	a5,0x3
    5b8c:	0f07a783          	lw	a5,240(a5) # 8c78 <errno>
    5b90:	fe0784e3          	beqz	a5,5b78 <_kill_r+0x30>
    5b94:	00c12083          	lw	ra,12(sp)
    5b98:	00f42023          	sw	a5,0(s0)
    5b9c:	00812403          	lw	s0,8(sp)
    5ba0:	01010113          	add	sp,sp,16
    5ba4:	00008067          	ret

00005ba8 <_getpid_r>:
    5ba8:	0040006f          	j	5bac <_getpid>

00005bac <_getpid>:
 *
 * ALT_GETPID is mapped onto the getpid() system call in alt_syscall.h
 */
 
int ALT_GETPID (void)
{
    5bac:	ff010113          	add	sp,sp,-16
    5bb0:	00812623          	sw	s0,12(sp)
    5bb4:	01010413          	add	s0,sp,16
  return 0;
    5bb8:	00000793          	li	a5,0
}
    5bbc:	00078513          	mv	a0,a5
    5bc0:	00c12403          	lw	s0,12(sp)
    5bc4:	01010113          	add	sp,sp,16
    5bc8:	00008067          	ret

00005bcc <alt_get_errno>:
    case SIGSYS:
    case SIGTRAP:
    case SIGVTALRM:
    case SIGXCPU:
    case SIGXFSZ:

    5bcc:	ff010113          	add	sp,sp,-16
    5bd0:	00112623          	sw	ra,12(sp)
    5bd4:	00812423          	sw	s0,8(sp)
    5bd8:	01010413          	add	s0,sp,16
      /* 
    5bdc:	8141a783          	lw	a5,-2028(gp) # 74b8 <alt_errno>
    5be0:	00078a63          	beqz	a5,5bf4 <alt_get_errno+0x28>
    5be4:	8141a783          	lw	a5,-2028(gp) # 74b8 <alt_errno>
    5be8:	000780e7          	jalr	a5
    5bec:	00050793          	mv	a5,a0
    5bf0:	00c0006f          	j	5bfc <alt_get_errno+0x30>
    5bf4:	000097b7          	lui	a5,0x9
    5bf8:	c7878793          	add	a5,a5,-904 # 8c78 <errno>
       * The Posix standard defines the default behaviour for all these signals 
    5bfc:	00078513          	mv	a0,a5
    5c00:	00c12083          	lw	ra,12(sp)
    5c04:	00812403          	lw	s0,8(sp)
    5c08:	01010113          	add	sp,sp,16
    5c0c:	00008067          	ret

00005c10 <_kill>:
{
    5c10:	fd010113          	add	sp,sp,-48
    5c14:	02112623          	sw	ra,44(sp)
    5c18:	02812423          	sw	s0,40(sp)
    5c1c:	03010413          	add	s0,sp,48
    5c20:	fca42e23          	sw	a0,-36(s0)
    5c24:	fcb42c23          	sw	a1,-40(s0)
  int status = 0;
    5c28:	fe042623          	sw	zero,-20(s0)
  if (pid <= 0)
    5c2c:	fdc42783          	lw	a5,-36(s0)
    5c30:	06f04e63          	bgtz	a5,5cac <_kill+0x9c>
    switch (sig)
    5c34:	fd842783          	lw	a5,-40(s0)
    5c38:	08078463          	beqz	a5,5cc0 <_kill+0xb0>
    5c3c:	fd842783          	lw	a5,-40(s0)
    5c40:	0607c063          	bltz	a5,5ca0 <_kill+0x90>
    5c44:	fd842703          	lw	a4,-40(s0)
    5c48:	01f00793          	li	a5,31
    5c4c:	04e7ca63          	blt	a5,a4,5ca0 <_kill+0x90>
    5c50:	fd842703          	lw	a4,-40(s0)
    5c54:	00300793          	li	a5,3
    5c58:	04f74463          	blt	a4,a5,5ca0 <_kill+0x90>
    5c5c:	fd842783          	lw	a5,-40(s0)
    5c60:	00100713          	li	a4,1
    5c64:	00f717b3          	sll	a5,a4,a5
    5c68:	cf810737          	lui	a4,0xcf810
    5c6c:	f7870713          	add	a4,a4,-136 # cf80ff78 <__reset+0xcb80ff78>
    5c70:	00e7f733          	and	a4,a5,a4
    5c74:	00e03733          	snez	a4,a4
    5c78:	0ff77713          	zext.b	a4,a4
    5c7c:	00071e63          	bnez	a4,5c98 <_kill+0x88>
    5c80:	00110737          	lui	a4,0x110
    5c84:	00e7f7b3          	and	a5,a5,a4
    5c88:	00f037b3          	snez	a5,a5
    5c8c:	0ff7f793          	zext.b	a5,a5
    5c90:	02079c63          	bnez	a5,5cc8 <_kill+0xb8>
    5c94:	00c0006f          	j	5ca0 <_kill+0x90>
       * as being eqivalent to a call to _exit(). No mechanism is provided to 
       * change this behaviour.
       */

      _exit(0);
    5c98:	00000513          	li	a0,0
    5c9c:	b5dfe0ef          	jal	47f8 <_exit>
      break;
    default:

      /* Tried to send an unsupported signal */

      status = EINVAL;
    5ca0:	01600793          	li	a5,22
    5ca4:	fef42623          	sw	a5,-20(s0)
    5ca8:	0240006f          	j	5ccc <_kill+0xbc>
    }
  }

  else if (pid > 0)
    5cac:	fdc42783          	lw	a5,-36(s0)
    5cb0:	00f05e63          	blez	a5,5ccc <_kill+0xbc>
  {
    /* Attempted to signal a non-existant process */

    status = ESRCH;
    5cb4:	00300793          	li	a5,3
    5cb8:	fef42623          	sw	a5,-20(s0)
    5cbc:	0100006f          	j	5ccc <_kill+0xbc>
      break;
    5cc0:	00000013          	nop
    5cc4:	0080006f          	j	5ccc <_kill+0xbc>
      break;
    5cc8:	00000013          	nop
  }

  if (status)
    5ccc:	fec42783          	lw	a5,-20(s0)
    5cd0:	00078e63          	beqz	a5,5cec <_kill+0xdc>
  {
    ALT_ERRNO = status;
    5cd4:	ef9ff0ef          	jal	5bcc <alt_get_errno>
    5cd8:	00050713          	mv	a4,a0
    5cdc:	fec42783          	lw	a5,-20(s0)
    5ce0:	00f72023          	sw	a5,0(a4) # 110000 <__alt_heap_start+0x106fdc>
    return -1;
    5ce4:	fff00793          	li	a5,-1
    5ce8:	0080006f          	j	5cf0 <_kill+0xe0>
  }

  return 0;
    5cec:	00000793          	li	a5,0
}
    5cf0:	00078513          	mv	a0,a5
    5cf4:	02c12083          	lw	ra,44(sp)
    5cf8:	02812403          	lw	s0,40(sp)
    5cfc:	03010113          	add	sp,sp,48
    5d00:	00008067          	ret
    5d04:	33c8                	.insn	2, 0x33c8
    5d06:	0000                	.insn	2, 0x
    5d08:	553c                	.insn	2, 0x553c
	...
